
Bazowy_STM32_LCD_SPI_ILI9341.elf:     file format elf32-littlearm

Sections:
Idx Name          Size      VMA       LMA       File off  Algn
  0 .isr_vector   000001ac  20000000  20000000  00010000  2**0
                  CONTENTS, ALLOC, LOAD, READONLY, DATA
  1 .text         0000631c  200001b0  200001b0  000101b0  2**4
                  CONTENTS, ALLOC, LOAD, READONLY, CODE
  2 .rodata       00003e64  200064cc  200064cc  000164cc  2**2
                  CONTENTS, ALLOC, LOAD, READONLY, DATA
  3 .ARM.extab    00000000  2000a330  2000a330  0001a3f0  2**0
                  CONTENTS
  4 .ARM          00000000  2000a330  2000a330  0001a3f0  2**0
                  CONTENTS
  5 .preinit_array 00000000  2000a330  2000a3f0  0001a3f0  2**0
                  CONTENTS, ALLOC, LOAD, DATA
  6 .init_array   00000004  2000a330  2000a330  0001a330  2**2
                  CONTENTS, ALLOC, LOAD, DATA
  7 .fini_array   00000004  2000a334  2000a334  0001a334  2**2
                  CONTENTS, ALLOC, LOAD, DATA
  8 .data         000000b8  2000a338  2000a338  0001a338  2**2
                  CONTENTS, ALLOC, LOAD, DATA
  9 .bss          00015568  2000a3f0  2000a3f0  0001a3f0  2**2
                  ALLOC
 10 ._user_heap_stack 00000600  2001f958  2001f958  0001a3f0  2**0
                  ALLOC
 11 .ARM.attributes 00000030  00000000  00000000  0001a3f0  2**0
                  CONTENTS, READONLY
 12 .debug_info   00010f84  00000000  00000000  0001a420  2**0
                  CONTENTS, READONLY, DEBUGGING, OCTETS
 13 .debug_abbrev 00002701  00000000  00000000  0002b3a4  2**0
                  CONTENTS, READONLY, DEBUGGING, OCTETS
 14 .debug_aranges 00000ef0  00000000  00000000  0002daa8  2**3
                  CONTENTS, READONLY, DEBUGGING, OCTETS
 15 .debug_ranges 00000de8  00000000  00000000  0002e998  2**3
                  CONTENTS, READONLY, DEBUGGING, OCTETS
 16 .debug_macro  00005885  00000000  00000000  0002f780  2**0
                  CONTENTS, READONLY, DEBUGGING, OCTETS
 17 .debug_line   0000d2de  00000000  00000000  00035005  2**0
                  CONTENTS, READONLY, DEBUGGING, OCTETS
 18 .debug_str    000b4c97  00000000  00000000  000422e3  2**0
                  CONTENTS, READONLY, DEBUGGING, OCTETS
 19 .comment      00000050  00000000  00000000  000f6f7a  2**0
                  CONTENTS, READONLY
 20 .debug_frame  000041c4  00000000  00000000  000f6fcc  2**2
                  CONTENTS, READONLY, DEBUGGING, OCTETS

Disassembly of section .text:

200001b0 <__do_global_dtors_aux>:
200001b0:	b510      	push	{r4, lr}
200001b2:	4c05      	ldr	r4, [pc, #20]	; (200001c8 <__do_global_dtors_aux+0x18>)
200001b4:	7823      	ldrb	r3, [r4, #0]
200001b6:	b933      	cbnz	r3, 200001c6 <__do_global_dtors_aux+0x16>
200001b8:	4b04      	ldr	r3, [pc, #16]	; (200001cc <__do_global_dtors_aux+0x1c>)
200001ba:	b113      	cbz	r3, 200001c2 <__do_global_dtors_aux+0x12>
200001bc:	4804      	ldr	r0, [pc, #16]	; (200001d0 <__do_global_dtors_aux+0x20>)
200001be:	f3af 8000 	nop.w
200001c2:	2301      	movs	r3, #1
200001c4:	7023      	strb	r3, [r4, #0]
200001c6:	bd10      	pop	{r4, pc}
200001c8:	2000a3f0 	.word	0x2000a3f0
200001cc:	00000000 	.word	0x00000000
200001d0:	200064b4 	.word	0x200064b4

200001d4 <frame_dummy>:
200001d4:	b508      	push	{r3, lr}
200001d6:	4b03      	ldr	r3, [pc, #12]	; (200001e4 <frame_dummy+0x10>)
200001d8:	b11b      	cbz	r3, 200001e2 <frame_dummy+0xe>
200001da:	4903      	ldr	r1, [pc, #12]	; (200001e8 <frame_dummy+0x14>)
200001dc:	4803      	ldr	r0, [pc, #12]	; (200001ec <frame_dummy+0x18>)
200001de:	f3af 8000 	nop.w
200001e2:	bd08      	pop	{r3, pc}
200001e4:	00000000 	.word	0x00000000
200001e8:	2000a3f4 	.word	0x2000a3f4
200001ec:	200064b4 	.word	0x200064b4

200001f0 <__aeabi_drsub>:
200001f0:	f081 4100 	eor.w	r1, r1, #2147483648	; 0x80000000
200001f4:	e002      	b.n	200001fc <__adddf3>
200001f6:	bf00      	nop

200001f8 <__aeabi_dsub>:
200001f8:	f083 4300 	eor.w	r3, r3, #2147483648	; 0x80000000

200001fc <__adddf3>:
200001fc:	b530      	push	{r4, r5, lr}
200001fe:	ea4f 0441 	mov.w	r4, r1, lsl #1
20000202:	ea4f 0543 	mov.w	r5, r3, lsl #1
20000206:	ea94 0f05 	teq	r4, r5
2000020a:	bf08      	it	eq
2000020c:	ea90 0f02 	teqeq	r0, r2
20000210:	bf1f      	itttt	ne
20000212:	ea54 0c00 	orrsne.w	ip, r4, r0
20000216:	ea55 0c02 	orrsne.w	ip, r5, r2
2000021a:	ea7f 5c64 	mvnsne.w	ip, r4, asr #21
2000021e:	ea7f 5c65 	mvnsne.w	ip, r5, asr #21
20000222:	f000 80e2 	beq.w	200003ea <__adddf3+0x1ee>
20000226:	ea4f 5454 	mov.w	r4, r4, lsr #21
2000022a:	ebd4 5555 	rsbs	r5, r4, r5, lsr #21
2000022e:	bfb8      	it	lt
20000230:	426d      	neglt	r5, r5
20000232:	dd0c      	ble.n	2000024e <__adddf3+0x52>
20000234:	442c      	add	r4, r5
20000236:	ea80 0202 	eor.w	r2, r0, r2
2000023a:	ea81 0303 	eor.w	r3, r1, r3
2000023e:	ea82 0000 	eor.w	r0, r2, r0
20000242:	ea83 0101 	eor.w	r1, r3, r1
20000246:	ea80 0202 	eor.w	r2, r0, r2
2000024a:	ea81 0303 	eor.w	r3, r1, r3
2000024e:	2d36      	cmp	r5, #54	; 0x36
20000250:	bf88      	it	hi
20000252:	bd30      	pophi	{r4, r5, pc}
20000254:	f011 4f00 	tst.w	r1, #2147483648	; 0x80000000
20000258:	ea4f 3101 	mov.w	r1, r1, lsl #12
2000025c:	f44f 1c80 	mov.w	ip, #1048576	; 0x100000
20000260:	ea4c 3111 	orr.w	r1, ip, r1, lsr #12
20000264:	d002      	beq.n	2000026c <__adddf3+0x70>
20000266:	4240      	negs	r0, r0
20000268:	eb61 0141 	sbc.w	r1, r1, r1, lsl #1
2000026c:	f013 4f00 	tst.w	r3, #2147483648	; 0x80000000
20000270:	ea4f 3303 	mov.w	r3, r3, lsl #12
20000274:	ea4c 3313 	orr.w	r3, ip, r3, lsr #12
20000278:	d002      	beq.n	20000280 <__adddf3+0x84>
2000027a:	4252      	negs	r2, r2
2000027c:	eb63 0343 	sbc.w	r3, r3, r3, lsl #1
20000280:	ea94 0f05 	teq	r4, r5
20000284:	f000 80a7 	beq.w	200003d6 <__adddf3+0x1da>
20000288:	f1a4 0401 	sub.w	r4, r4, #1
2000028c:	f1d5 0e20 	rsbs	lr, r5, #32
20000290:	db0d      	blt.n	200002ae <__adddf3+0xb2>
20000292:	fa02 fc0e 	lsl.w	ip, r2, lr
20000296:	fa22 f205 	lsr.w	r2, r2, r5
2000029a:	1880      	adds	r0, r0, r2
2000029c:	f141 0100 	adc.w	r1, r1, #0
200002a0:	fa03 f20e 	lsl.w	r2, r3, lr
200002a4:	1880      	adds	r0, r0, r2
200002a6:	fa43 f305 	asr.w	r3, r3, r5
200002aa:	4159      	adcs	r1, r3
200002ac:	e00e      	b.n	200002cc <__adddf3+0xd0>
200002ae:	f1a5 0520 	sub.w	r5, r5, #32
200002b2:	f10e 0e20 	add.w	lr, lr, #32
200002b6:	2a01      	cmp	r2, #1
200002b8:	fa03 fc0e 	lsl.w	ip, r3, lr
200002bc:	bf28      	it	cs
200002be:	f04c 0c02 	orrcs.w	ip, ip, #2
200002c2:	fa43 f305 	asr.w	r3, r3, r5
200002c6:	18c0      	adds	r0, r0, r3
200002c8:	eb51 71e3 	adcs.w	r1, r1, r3, asr #31
200002cc:	f001 4500 	and.w	r5, r1, #2147483648	; 0x80000000
200002d0:	d507      	bpl.n	200002e2 <__adddf3+0xe6>
200002d2:	f04f 0e00 	mov.w	lr, #0
200002d6:	f1dc 0c00 	rsbs	ip, ip, #0
200002da:	eb7e 0000 	sbcs.w	r0, lr, r0
200002de:	eb6e 0101 	sbc.w	r1, lr, r1
200002e2:	f5b1 1f80 	cmp.w	r1, #1048576	; 0x100000
200002e6:	d31b      	bcc.n	20000320 <__adddf3+0x124>
200002e8:	f5b1 1f00 	cmp.w	r1, #2097152	; 0x200000
200002ec:	d30c      	bcc.n	20000308 <__adddf3+0x10c>
200002ee:	0849      	lsrs	r1, r1, #1
200002f0:	ea5f 0030 	movs.w	r0, r0, rrx
200002f4:	ea4f 0c3c 	mov.w	ip, ip, rrx
200002f8:	f104 0401 	add.w	r4, r4, #1
200002fc:	ea4f 5244 	mov.w	r2, r4, lsl #21
20000300:	f512 0f80 	cmn.w	r2, #4194304	; 0x400000
20000304:	f080 809a 	bcs.w	2000043c <__adddf3+0x240>
20000308:	f1bc 4f00 	cmp.w	ip, #2147483648	; 0x80000000
2000030c:	bf08      	it	eq
2000030e:	ea5f 0c50 	movseq.w	ip, r0, lsr #1
20000312:	f150 0000 	adcs.w	r0, r0, #0
20000316:	eb41 5104 	adc.w	r1, r1, r4, lsl #20
2000031a:	ea41 0105 	orr.w	r1, r1, r5
2000031e:	bd30      	pop	{r4, r5, pc}
20000320:	ea5f 0c4c 	movs.w	ip, ip, lsl #1
20000324:	4140      	adcs	r0, r0
20000326:	eb41 0101 	adc.w	r1, r1, r1
2000032a:	3c01      	subs	r4, #1
2000032c:	bf28      	it	cs
2000032e:	f5b1 1f80 	cmpcs.w	r1, #1048576	; 0x100000
20000332:	d2e9      	bcs.n	20000308 <__adddf3+0x10c>
20000334:	f091 0f00 	teq	r1, #0
20000338:	bf04      	itt	eq
2000033a:	4601      	moveq	r1, r0
2000033c:	2000      	moveq	r0, #0
2000033e:	fab1 f381 	clz	r3, r1
20000342:	bf08      	it	eq
20000344:	3320      	addeq	r3, #32
20000346:	f1a3 030b 	sub.w	r3, r3, #11
2000034a:	f1b3 0220 	subs.w	r2, r3, #32
2000034e:	da0c      	bge.n	2000036a <__adddf3+0x16e>
20000350:	320c      	adds	r2, #12
20000352:	dd08      	ble.n	20000366 <__adddf3+0x16a>
20000354:	f102 0c14 	add.w	ip, r2, #20
20000358:	f1c2 020c 	rsb	r2, r2, #12
2000035c:	fa01 f00c 	lsl.w	r0, r1, ip
20000360:	fa21 f102 	lsr.w	r1, r1, r2
20000364:	e00c      	b.n	20000380 <__adddf3+0x184>
20000366:	f102 0214 	add.w	r2, r2, #20
2000036a:	bfd8      	it	le
2000036c:	f1c2 0c20 	rsble	ip, r2, #32
20000370:	fa01 f102 	lsl.w	r1, r1, r2
20000374:	fa20 fc0c 	lsr.w	ip, r0, ip
20000378:	bfdc      	itt	le
2000037a:	ea41 010c 	orrle.w	r1, r1, ip
2000037e:	4090      	lslle	r0, r2
20000380:	1ae4      	subs	r4, r4, r3
20000382:	bfa2      	ittt	ge
20000384:	eb01 5104 	addge.w	r1, r1, r4, lsl #20
20000388:	4329      	orrge	r1, r5
2000038a:	bd30      	popge	{r4, r5, pc}
2000038c:	ea6f 0404 	mvn.w	r4, r4
20000390:	3c1f      	subs	r4, #31
20000392:	da1c      	bge.n	200003ce <__adddf3+0x1d2>
20000394:	340c      	adds	r4, #12
20000396:	dc0e      	bgt.n	200003b6 <__adddf3+0x1ba>
20000398:	f104 0414 	add.w	r4, r4, #20
2000039c:	f1c4 0220 	rsb	r2, r4, #32
200003a0:	fa20 f004 	lsr.w	r0, r0, r4
200003a4:	fa01 f302 	lsl.w	r3, r1, r2
200003a8:	ea40 0003 	orr.w	r0, r0, r3
200003ac:	fa21 f304 	lsr.w	r3, r1, r4
200003b0:	ea45 0103 	orr.w	r1, r5, r3
200003b4:	bd30      	pop	{r4, r5, pc}
200003b6:	f1c4 040c 	rsb	r4, r4, #12
200003ba:	f1c4 0220 	rsb	r2, r4, #32
200003be:	fa20 f002 	lsr.w	r0, r0, r2
200003c2:	fa01 f304 	lsl.w	r3, r1, r4
200003c6:	ea40 0003 	orr.w	r0, r0, r3
200003ca:	4629      	mov	r1, r5
200003cc:	bd30      	pop	{r4, r5, pc}
200003ce:	fa21 f004 	lsr.w	r0, r1, r4
200003d2:	4629      	mov	r1, r5
200003d4:	bd30      	pop	{r4, r5, pc}
200003d6:	f094 0f00 	teq	r4, #0
200003da:	f483 1380 	eor.w	r3, r3, #1048576	; 0x100000
200003de:	bf06      	itte	eq
200003e0:	f481 1180 	eoreq.w	r1, r1, #1048576	; 0x100000
200003e4:	3401      	addeq	r4, #1
200003e6:	3d01      	subne	r5, #1
200003e8:	e74e      	b.n	20000288 <__adddf3+0x8c>
200003ea:	ea7f 5c64 	mvns.w	ip, r4, asr #21
200003ee:	bf18      	it	ne
200003f0:	ea7f 5c65 	mvnsne.w	ip, r5, asr #21
200003f4:	d029      	beq.n	2000044a <__adddf3+0x24e>
200003f6:	ea94 0f05 	teq	r4, r5
200003fa:	bf08      	it	eq
200003fc:	ea90 0f02 	teqeq	r0, r2
20000400:	d005      	beq.n	2000040e <__adddf3+0x212>
20000402:	ea54 0c00 	orrs.w	ip, r4, r0
20000406:	bf04      	itt	eq
20000408:	4619      	moveq	r1, r3
2000040a:	4610      	moveq	r0, r2
2000040c:	bd30      	pop	{r4, r5, pc}
2000040e:	ea91 0f03 	teq	r1, r3
20000412:	bf1e      	ittt	ne
20000414:	2100      	movne	r1, #0
20000416:	2000      	movne	r0, #0
20000418:	bd30      	popne	{r4, r5, pc}
2000041a:	ea5f 5c54 	movs.w	ip, r4, lsr #21
2000041e:	d105      	bne.n	2000042c <__adddf3+0x230>
20000420:	0040      	lsls	r0, r0, #1
20000422:	4149      	adcs	r1, r1
20000424:	bf28      	it	cs
20000426:	f041 4100 	orrcs.w	r1, r1, #2147483648	; 0x80000000
2000042a:	bd30      	pop	{r4, r5, pc}
2000042c:	f514 0480 	adds.w	r4, r4, #4194304	; 0x400000
20000430:	bf3c      	itt	cc
20000432:	f501 1180 	addcc.w	r1, r1, #1048576	; 0x100000
20000436:	bd30      	popcc	{r4, r5, pc}
20000438:	f001 4500 	and.w	r5, r1, #2147483648	; 0x80000000
2000043c:	f045 41fe 	orr.w	r1, r5, #2130706432	; 0x7f000000
20000440:	f441 0170 	orr.w	r1, r1, #15728640	; 0xf00000
20000444:	f04f 0000 	mov.w	r0, #0
20000448:	bd30      	pop	{r4, r5, pc}
2000044a:	ea7f 5c64 	mvns.w	ip, r4, asr #21
2000044e:	bf1a      	itte	ne
20000450:	4619      	movne	r1, r3
20000452:	4610      	movne	r0, r2
20000454:	ea7f 5c65 	mvnseq.w	ip, r5, asr #21
20000458:	bf1c      	itt	ne
2000045a:	460b      	movne	r3, r1
2000045c:	4602      	movne	r2, r0
2000045e:	ea50 3401 	orrs.w	r4, r0, r1, lsl #12
20000462:	bf06      	itte	eq
20000464:	ea52 3503 	orrseq.w	r5, r2, r3, lsl #12
20000468:	ea91 0f03 	teqeq	r1, r3
2000046c:	f441 2100 	orrne.w	r1, r1, #524288	; 0x80000
20000470:	bd30      	pop	{r4, r5, pc}
20000472:	bf00      	nop

20000474 <__aeabi_ui2d>:
20000474:	f090 0f00 	teq	r0, #0
20000478:	bf04      	itt	eq
2000047a:	2100      	moveq	r1, #0
2000047c:	4770      	bxeq	lr
2000047e:	b530      	push	{r4, r5, lr}
20000480:	f44f 6480 	mov.w	r4, #1024	; 0x400
20000484:	f104 0432 	add.w	r4, r4, #50	; 0x32
20000488:	f04f 0500 	mov.w	r5, #0
2000048c:	f04f 0100 	mov.w	r1, #0
20000490:	e750      	b.n	20000334 <__adddf3+0x138>
20000492:	bf00      	nop

20000494 <__aeabi_i2d>:
20000494:	f090 0f00 	teq	r0, #0
20000498:	bf04      	itt	eq
2000049a:	2100      	moveq	r1, #0
2000049c:	4770      	bxeq	lr
2000049e:	b530      	push	{r4, r5, lr}
200004a0:	f44f 6480 	mov.w	r4, #1024	; 0x400
200004a4:	f104 0432 	add.w	r4, r4, #50	; 0x32
200004a8:	f010 4500 	ands.w	r5, r0, #2147483648	; 0x80000000
200004ac:	bf48      	it	mi
200004ae:	4240      	negmi	r0, r0
200004b0:	f04f 0100 	mov.w	r1, #0
200004b4:	e73e      	b.n	20000334 <__adddf3+0x138>
200004b6:	bf00      	nop

200004b8 <__aeabi_f2d>:
200004b8:	0042      	lsls	r2, r0, #1
200004ba:	ea4f 01e2 	mov.w	r1, r2, asr #3
200004be:	ea4f 0131 	mov.w	r1, r1, rrx
200004c2:	ea4f 7002 	mov.w	r0, r2, lsl #28
200004c6:	bf1f      	itttt	ne
200004c8:	f012 437f 	andsne.w	r3, r2, #4278190080	; 0xff000000
200004cc:	f093 4f7f 	teqne	r3, #4278190080	; 0xff000000
200004d0:	f081 5160 	eorne.w	r1, r1, #939524096	; 0x38000000
200004d4:	4770      	bxne	lr
200004d6:	f032 427f 	bics.w	r2, r2, #4278190080	; 0xff000000
200004da:	bf08      	it	eq
200004dc:	4770      	bxeq	lr
200004de:	f093 4f7f 	teq	r3, #4278190080	; 0xff000000
200004e2:	bf04      	itt	eq
200004e4:	f441 2100 	orreq.w	r1, r1, #524288	; 0x80000
200004e8:	4770      	bxeq	lr
200004ea:	b530      	push	{r4, r5, lr}
200004ec:	f44f 7460 	mov.w	r4, #896	; 0x380
200004f0:	f001 4500 	and.w	r5, r1, #2147483648	; 0x80000000
200004f4:	f021 4100 	bic.w	r1, r1, #2147483648	; 0x80000000
200004f8:	e71c      	b.n	20000334 <__adddf3+0x138>
200004fa:	bf00      	nop

200004fc <__aeabi_ul2d>:
200004fc:	ea50 0201 	orrs.w	r2, r0, r1
20000500:	bf08      	it	eq
20000502:	4770      	bxeq	lr
20000504:	b530      	push	{r4, r5, lr}
20000506:	f04f 0500 	mov.w	r5, #0
2000050a:	e00a      	b.n	20000522 <__aeabi_l2d+0x16>

2000050c <__aeabi_l2d>:
2000050c:	ea50 0201 	orrs.w	r2, r0, r1
20000510:	bf08      	it	eq
20000512:	4770      	bxeq	lr
20000514:	b530      	push	{r4, r5, lr}
20000516:	f011 4500 	ands.w	r5, r1, #2147483648	; 0x80000000
2000051a:	d502      	bpl.n	20000522 <__aeabi_l2d+0x16>
2000051c:	4240      	negs	r0, r0
2000051e:	eb61 0141 	sbc.w	r1, r1, r1, lsl #1
20000522:	f44f 6480 	mov.w	r4, #1024	; 0x400
20000526:	f104 0432 	add.w	r4, r4, #50	; 0x32
2000052a:	ea5f 5c91 	movs.w	ip, r1, lsr #22
2000052e:	f43f aed8 	beq.w	200002e2 <__adddf3+0xe6>
20000532:	f04f 0203 	mov.w	r2, #3
20000536:	ea5f 0cdc 	movs.w	ip, ip, lsr #3
2000053a:	bf18      	it	ne
2000053c:	3203      	addne	r2, #3
2000053e:	ea5f 0cdc 	movs.w	ip, ip, lsr #3
20000542:	bf18      	it	ne
20000544:	3203      	addne	r2, #3
20000546:	eb02 02dc 	add.w	r2, r2, ip, lsr #3
2000054a:	f1c2 0320 	rsb	r3, r2, #32
2000054e:	fa00 fc03 	lsl.w	ip, r0, r3
20000552:	fa20 f002 	lsr.w	r0, r0, r2
20000556:	fa01 fe03 	lsl.w	lr, r1, r3
2000055a:	ea40 000e 	orr.w	r0, r0, lr
2000055e:	fa21 f102 	lsr.w	r1, r1, r2
20000562:	4414      	add	r4, r2
20000564:	e6bd      	b.n	200002e2 <__adddf3+0xe6>
20000566:	bf00      	nop

20000568 <__aeabi_d2f>:
20000568:	ea4f 0241 	mov.w	r2, r1, lsl #1
2000056c:	f1b2 43e0 	subs.w	r3, r2, #1879048192	; 0x70000000
20000570:	bf24      	itt	cs
20000572:	f5b3 1c00 	subscs.w	ip, r3, #2097152	; 0x200000
20000576:	f1dc 5cfe 	rsbscs	ip, ip, #532676608	; 0x1fc00000
2000057a:	d90d      	bls.n	20000598 <__aeabi_d2f+0x30>
2000057c:	f001 4c00 	and.w	ip, r1, #2147483648	; 0x80000000
20000580:	ea4f 02c0 	mov.w	r2, r0, lsl #3
20000584:	ea4c 7050 	orr.w	r0, ip, r0, lsr #29
20000588:	f1b2 4f00 	cmp.w	r2, #2147483648	; 0x80000000
2000058c:	eb40 0083 	adc.w	r0, r0, r3, lsl #2
20000590:	bf08      	it	eq
20000592:	f020 0001 	biceq.w	r0, r0, #1
20000596:	4770      	bx	lr
20000598:	f011 4f80 	tst.w	r1, #1073741824	; 0x40000000
2000059c:	d121      	bne.n	200005e2 <__aeabi_d2f+0x7a>
2000059e:	f113 7238 	adds.w	r2, r3, #48234496	; 0x2e00000
200005a2:	bfbc      	itt	lt
200005a4:	f001 4000 	andlt.w	r0, r1, #2147483648	; 0x80000000
200005a8:	4770      	bxlt	lr
200005aa:	f441 1180 	orr.w	r1, r1, #1048576	; 0x100000
200005ae:	ea4f 5252 	mov.w	r2, r2, lsr #21
200005b2:	f1c2 0218 	rsb	r2, r2, #24
200005b6:	f1c2 0c20 	rsb	ip, r2, #32
200005ba:	fa10 f30c 	lsls.w	r3, r0, ip
200005be:	fa20 f002 	lsr.w	r0, r0, r2
200005c2:	bf18      	it	ne
200005c4:	f040 0001 	orrne.w	r0, r0, #1
200005c8:	ea4f 23c1 	mov.w	r3, r1, lsl #11
200005cc:	ea4f 23d3 	mov.w	r3, r3, lsr #11
200005d0:	fa03 fc0c 	lsl.w	ip, r3, ip
200005d4:	ea40 000c 	orr.w	r0, r0, ip
200005d8:	fa23 f302 	lsr.w	r3, r3, r2
200005dc:	ea4f 0343 	mov.w	r3, r3, lsl #1
200005e0:	e7cc      	b.n	2000057c <__aeabi_d2f+0x14>
200005e2:	ea7f 5362 	mvns.w	r3, r2, asr #21
200005e6:	d107      	bne.n	200005f8 <__aeabi_d2f+0x90>
200005e8:	ea50 3301 	orrs.w	r3, r0, r1, lsl #12
200005ec:	bf1e      	ittt	ne
200005ee:	f04f 40fe 	movne.w	r0, #2130706432	; 0x7f000000
200005f2:	f440 0040 	orrne.w	r0, r0, #12582912	; 0xc00000
200005f6:	4770      	bxne	lr
200005f8:	f001 4000 	and.w	r0, r1, #2147483648	; 0x80000000
200005fc:	f040 40fe 	orr.w	r0, r0, #2130706432	; 0x7f000000
20000600:	f440 0000 	orr.w	r0, r0, #8388608	; 0x800000
20000604:	4770      	bx	lr
20000606:	bf00      	nop

20000608 <LL_GPIO_SetPinMode>:
20000608:	b480      	push	{r7}
2000060a:	b089      	sub	sp, #36	; 0x24
2000060c:	af00      	add	r7, sp, #0
2000060e:	60f8      	str	r0, [r7, #12]
20000610:	60b9      	str	r1, [r7, #8]
20000612:	607a      	str	r2, [r7, #4]
20000614:	68fb      	ldr	r3, [r7, #12]
20000616:	681a      	ldr	r2, [r3, #0]
20000618:	68bb      	ldr	r3, [r7, #8]
2000061a:	617b      	str	r3, [r7, #20]
2000061c:	697b      	ldr	r3, [r7, #20]
2000061e:	fa93 f3a3 	rbit	r3, r3
20000622:	613b      	str	r3, [r7, #16]
20000624:	693b      	ldr	r3, [r7, #16]
20000626:	fab3 f383 	clz	r3, r3
2000062a:	b2db      	uxtb	r3, r3
2000062c:	005b      	lsls	r3, r3, #1
2000062e:	2103      	movs	r1, #3
20000630:	fa01 f303 	lsl.w	r3, r1, r3
20000634:	43db      	mvns	r3, r3
20000636:	401a      	ands	r2, r3
20000638:	68bb      	ldr	r3, [r7, #8]
2000063a:	61fb      	str	r3, [r7, #28]
2000063c:	69fb      	ldr	r3, [r7, #28]
2000063e:	fa93 f3a3 	rbit	r3, r3
20000642:	61bb      	str	r3, [r7, #24]
20000644:	69bb      	ldr	r3, [r7, #24]
20000646:	fab3 f383 	clz	r3, r3
2000064a:	b2db      	uxtb	r3, r3
2000064c:	005b      	lsls	r3, r3, #1
2000064e:	6879      	ldr	r1, [r7, #4]
20000650:	fa01 f303 	lsl.w	r3, r1, r3
20000654:	431a      	orrs	r2, r3
20000656:	68fb      	ldr	r3, [r7, #12]
20000658:	601a      	str	r2, [r3, #0]
2000065a:	bf00      	nop
2000065c:	3724      	adds	r7, #36	; 0x24
2000065e:	46bd      	mov	sp, r7
20000660:	f85d 7b04 	ldr.w	r7, [sp], #4
20000664:	4770      	bx	lr

20000666 <LL_GPIO_SetPinOutputType>:
20000666:	b480      	push	{r7}
20000668:	b085      	sub	sp, #20
2000066a:	af00      	add	r7, sp, #0
2000066c:	60f8      	str	r0, [r7, #12]
2000066e:	60b9      	str	r1, [r7, #8]
20000670:	607a      	str	r2, [r7, #4]
20000672:	68fb      	ldr	r3, [r7, #12]
20000674:	685a      	ldr	r2, [r3, #4]
20000676:	68bb      	ldr	r3, [r7, #8]
20000678:	43db      	mvns	r3, r3
2000067a:	401a      	ands	r2, r3
2000067c:	68bb      	ldr	r3, [r7, #8]
2000067e:	6879      	ldr	r1, [r7, #4]
20000680:	fb01 f303 	mul.w	r3, r1, r3
20000684:	431a      	orrs	r2, r3
20000686:	68fb      	ldr	r3, [r7, #12]
20000688:	605a      	str	r2, [r3, #4]
2000068a:	bf00      	nop
2000068c:	3714      	adds	r7, #20
2000068e:	46bd      	mov	sp, r7
20000690:	f85d 7b04 	ldr.w	r7, [sp], #4
20000694:	4770      	bx	lr

20000696 <LL_GPIO_SetPinSpeed>:
20000696:	b480      	push	{r7}
20000698:	b089      	sub	sp, #36	; 0x24
2000069a:	af00      	add	r7, sp, #0
2000069c:	60f8      	str	r0, [r7, #12]
2000069e:	60b9      	str	r1, [r7, #8]
200006a0:	607a      	str	r2, [r7, #4]
200006a2:	68fb      	ldr	r3, [r7, #12]
200006a4:	689a      	ldr	r2, [r3, #8]
200006a6:	68bb      	ldr	r3, [r7, #8]
200006a8:	617b      	str	r3, [r7, #20]
200006aa:	697b      	ldr	r3, [r7, #20]
200006ac:	fa93 f3a3 	rbit	r3, r3
200006b0:	613b      	str	r3, [r7, #16]
200006b2:	693b      	ldr	r3, [r7, #16]
200006b4:	fab3 f383 	clz	r3, r3
200006b8:	b2db      	uxtb	r3, r3
200006ba:	005b      	lsls	r3, r3, #1
200006bc:	2103      	movs	r1, #3
200006be:	fa01 f303 	lsl.w	r3, r1, r3
200006c2:	43db      	mvns	r3, r3
200006c4:	401a      	ands	r2, r3
200006c6:	68bb      	ldr	r3, [r7, #8]
200006c8:	61fb      	str	r3, [r7, #28]
200006ca:	69fb      	ldr	r3, [r7, #28]
200006cc:	fa93 f3a3 	rbit	r3, r3
200006d0:	61bb      	str	r3, [r7, #24]
200006d2:	69bb      	ldr	r3, [r7, #24]
200006d4:	fab3 f383 	clz	r3, r3
200006d8:	b2db      	uxtb	r3, r3
200006da:	005b      	lsls	r3, r3, #1
200006dc:	6879      	ldr	r1, [r7, #4]
200006de:	fa01 f303 	lsl.w	r3, r1, r3
200006e2:	431a      	orrs	r2, r3
200006e4:	68fb      	ldr	r3, [r7, #12]
200006e6:	609a      	str	r2, [r3, #8]
200006e8:	bf00      	nop
200006ea:	3724      	adds	r7, #36	; 0x24
200006ec:	46bd      	mov	sp, r7
200006ee:	f85d 7b04 	ldr.w	r7, [sp], #4
200006f2:	4770      	bx	lr

200006f4 <LL_GPIO_SetPinPull>:
200006f4:	b480      	push	{r7}
200006f6:	b089      	sub	sp, #36	; 0x24
200006f8:	af00      	add	r7, sp, #0
200006fa:	60f8      	str	r0, [r7, #12]
200006fc:	60b9      	str	r1, [r7, #8]
200006fe:	607a      	str	r2, [r7, #4]
20000700:	68fb      	ldr	r3, [r7, #12]
20000702:	68da      	ldr	r2, [r3, #12]
20000704:	68bb      	ldr	r3, [r7, #8]
20000706:	617b      	str	r3, [r7, #20]
20000708:	697b      	ldr	r3, [r7, #20]
2000070a:	fa93 f3a3 	rbit	r3, r3
2000070e:	613b      	str	r3, [r7, #16]
20000710:	693b      	ldr	r3, [r7, #16]
20000712:	fab3 f383 	clz	r3, r3
20000716:	b2db      	uxtb	r3, r3
20000718:	005b      	lsls	r3, r3, #1
2000071a:	2103      	movs	r1, #3
2000071c:	fa01 f303 	lsl.w	r3, r1, r3
20000720:	43db      	mvns	r3, r3
20000722:	401a      	ands	r2, r3
20000724:	68bb      	ldr	r3, [r7, #8]
20000726:	61fb      	str	r3, [r7, #28]
20000728:	69fb      	ldr	r3, [r7, #28]
2000072a:	fa93 f3a3 	rbit	r3, r3
2000072e:	61bb      	str	r3, [r7, #24]
20000730:	69bb      	ldr	r3, [r7, #24]
20000732:	fab3 f383 	clz	r3, r3
20000736:	b2db      	uxtb	r3, r3
20000738:	005b      	lsls	r3, r3, #1
2000073a:	6879      	ldr	r1, [r7, #4]
2000073c:	fa01 f303 	lsl.w	r3, r1, r3
20000740:	431a      	orrs	r2, r3
20000742:	68fb      	ldr	r3, [r7, #12]
20000744:	60da      	str	r2, [r3, #12]
20000746:	bf00      	nop
20000748:	3724      	adds	r7, #36	; 0x24
2000074a:	46bd      	mov	sp, r7
2000074c:	f85d 7b04 	ldr.w	r7, [sp], #4
20000750:	4770      	bx	lr

20000752 <LL_GPIO_SetAFPin_0_7>:
20000752:	b480      	push	{r7}
20000754:	b089      	sub	sp, #36	; 0x24
20000756:	af00      	add	r7, sp, #0
20000758:	60f8      	str	r0, [r7, #12]
2000075a:	60b9      	str	r1, [r7, #8]
2000075c:	607a      	str	r2, [r7, #4]
2000075e:	68fb      	ldr	r3, [r7, #12]
20000760:	6a1a      	ldr	r2, [r3, #32]
20000762:	68bb      	ldr	r3, [r7, #8]
20000764:	617b      	str	r3, [r7, #20]
20000766:	697b      	ldr	r3, [r7, #20]
20000768:	fa93 f3a3 	rbit	r3, r3
2000076c:	613b      	str	r3, [r7, #16]
2000076e:	693b      	ldr	r3, [r7, #16]
20000770:	fab3 f383 	clz	r3, r3
20000774:	b2db      	uxtb	r3, r3
20000776:	009b      	lsls	r3, r3, #2
20000778:	210f      	movs	r1, #15
2000077a:	fa01 f303 	lsl.w	r3, r1, r3
2000077e:	43db      	mvns	r3, r3
20000780:	401a      	ands	r2, r3
20000782:	68bb      	ldr	r3, [r7, #8]
20000784:	61fb      	str	r3, [r7, #28]
20000786:	69fb      	ldr	r3, [r7, #28]
20000788:	fa93 f3a3 	rbit	r3, r3
2000078c:	61bb      	str	r3, [r7, #24]
2000078e:	69bb      	ldr	r3, [r7, #24]
20000790:	fab3 f383 	clz	r3, r3
20000794:	b2db      	uxtb	r3, r3
20000796:	009b      	lsls	r3, r3, #2
20000798:	6879      	ldr	r1, [r7, #4]
2000079a:	fa01 f303 	lsl.w	r3, r1, r3
2000079e:	431a      	orrs	r2, r3
200007a0:	68fb      	ldr	r3, [r7, #12]
200007a2:	621a      	str	r2, [r3, #32]
200007a4:	bf00      	nop
200007a6:	3724      	adds	r7, #36	; 0x24
200007a8:	46bd      	mov	sp, r7
200007aa:	f85d 7b04 	ldr.w	r7, [sp], #4
200007ae:	4770      	bx	lr

200007b0 <LL_GPIO_SetAFPin_8_15>:
200007b0:	b480      	push	{r7}
200007b2:	b089      	sub	sp, #36	; 0x24
200007b4:	af00      	add	r7, sp, #0
200007b6:	60f8      	str	r0, [r7, #12]
200007b8:	60b9      	str	r1, [r7, #8]
200007ba:	607a      	str	r2, [r7, #4]
200007bc:	68fb      	ldr	r3, [r7, #12]
200007be:	6a5a      	ldr	r2, [r3, #36]	; 0x24
200007c0:	68bb      	ldr	r3, [r7, #8]
200007c2:	0a1b      	lsrs	r3, r3, #8
200007c4:	617b      	str	r3, [r7, #20]
200007c6:	697b      	ldr	r3, [r7, #20]
200007c8:	fa93 f3a3 	rbit	r3, r3
200007cc:	613b      	str	r3, [r7, #16]
200007ce:	693b      	ldr	r3, [r7, #16]
200007d0:	fab3 f383 	clz	r3, r3
200007d4:	b2db      	uxtb	r3, r3
200007d6:	009b      	lsls	r3, r3, #2
200007d8:	210f      	movs	r1, #15
200007da:	fa01 f303 	lsl.w	r3, r1, r3
200007de:	43db      	mvns	r3, r3
200007e0:	401a      	ands	r2, r3
200007e2:	68bb      	ldr	r3, [r7, #8]
200007e4:	0a1b      	lsrs	r3, r3, #8
200007e6:	61fb      	str	r3, [r7, #28]
200007e8:	69fb      	ldr	r3, [r7, #28]
200007ea:	fa93 f3a3 	rbit	r3, r3
200007ee:	61bb      	str	r3, [r7, #24]
200007f0:	69bb      	ldr	r3, [r7, #24]
200007f2:	fab3 f383 	clz	r3, r3
200007f6:	b2db      	uxtb	r3, r3
200007f8:	009b      	lsls	r3, r3, #2
200007fa:	6879      	ldr	r1, [r7, #4]
200007fc:	fa01 f303 	lsl.w	r3, r1, r3
20000800:	431a      	orrs	r2, r3
20000802:	68fb      	ldr	r3, [r7, #12]
20000804:	625a      	str	r2, [r3, #36]	; 0x24
20000806:	bf00      	nop
20000808:	3724      	adds	r7, #36	; 0x24
2000080a:	46bd      	mov	sp, r7
2000080c:	f85d 7b04 	ldr.w	r7, [sp], #4
20000810:	4770      	bx	lr

20000812 <LL_GPIO_Init>:
20000812:	b580      	push	{r7, lr}
20000814:	b088      	sub	sp, #32
20000816:	af00      	add	r7, sp, #0
20000818:	6078      	str	r0, [r7, #4]
2000081a:	6039      	str	r1, [r7, #0]
2000081c:	2300      	movs	r3, #0
2000081e:	61fb      	str	r3, [r7, #28]
20000820:	2300      	movs	r3, #0
20000822:	61bb      	str	r3, [r7, #24]
20000824:	683b      	ldr	r3, [r7, #0]
20000826:	681b      	ldr	r3, [r3, #0]
20000828:	617b      	str	r3, [r7, #20]
2000082a:	697b      	ldr	r3, [r7, #20]
2000082c:	fa93 f3a3 	rbit	r3, r3
20000830:	613b      	str	r3, [r7, #16]
20000832:	693b      	ldr	r3, [r7, #16]
20000834:	fab3 f383 	clz	r3, r3
20000838:	b2db      	uxtb	r3, r3
2000083a:	61fb      	str	r3, [r7, #28]
2000083c:	e050      	b.n	200008e0 <LL_GPIO_Init+0xce>
2000083e:	683b      	ldr	r3, [r7, #0]
20000840:	681a      	ldr	r2, [r3, #0]
20000842:	2101      	movs	r1, #1
20000844:	69fb      	ldr	r3, [r7, #28]
20000846:	fa01 f303 	lsl.w	r3, r1, r3
2000084a:	4013      	ands	r3, r2
2000084c:	61bb      	str	r3, [r7, #24]
2000084e:	69bb      	ldr	r3, [r7, #24]
20000850:	2b00      	cmp	r3, #0
20000852:	d042      	beq.n	200008da <LL_GPIO_Init+0xc8>
20000854:	683b      	ldr	r3, [r7, #0]
20000856:	685b      	ldr	r3, [r3, #4]
20000858:	2b01      	cmp	r3, #1
2000085a:	d003      	beq.n	20000864 <LL_GPIO_Init+0x52>
2000085c:	683b      	ldr	r3, [r7, #0]
2000085e:	685b      	ldr	r3, [r3, #4]
20000860:	2b02      	cmp	r3, #2
20000862:	d10d      	bne.n	20000880 <LL_GPIO_Init+0x6e>
20000864:	683b      	ldr	r3, [r7, #0]
20000866:	689b      	ldr	r3, [r3, #8]
20000868:	461a      	mov	r2, r3
2000086a:	69b9      	ldr	r1, [r7, #24]
2000086c:	6878      	ldr	r0, [r7, #4]
2000086e:	f7ff ff12 	bl	20000696 <LL_GPIO_SetPinSpeed>
20000872:	683b      	ldr	r3, [r7, #0]
20000874:	68db      	ldr	r3, [r3, #12]
20000876:	461a      	mov	r2, r3
20000878:	69b9      	ldr	r1, [r7, #24]
2000087a:	6878      	ldr	r0, [r7, #4]
2000087c:	f7ff fef3 	bl	20000666 <LL_GPIO_SetPinOutputType>
20000880:	683b      	ldr	r3, [r7, #0]
20000882:	691b      	ldr	r3, [r3, #16]
20000884:	461a      	mov	r2, r3
20000886:	69b9      	ldr	r1, [r7, #24]
20000888:	6878      	ldr	r0, [r7, #4]
2000088a:	f7ff ff33 	bl	200006f4 <LL_GPIO_SetPinPull>
2000088e:	683b      	ldr	r3, [r7, #0]
20000890:	685b      	ldr	r3, [r3, #4]
20000892:	2b02      	cmp	r3, #2
20000894:	d11a      	bne.n	200008cc <LL_GPIO_Init+0xba>
20000896:	69bb      	ldr	r3, [r7, #24]
20000898:	60fb      	str	r3, [r7, #12]
2000089a:	68fb      	ldr	r3, [r7, #12]
2000089c:	fa93 f3a3 	rbit	r3, r3
200008a0:	60bb      	str	r3, [r7, #8]
200008a2:	68bb      	ldr	r3, [r7, #8]
200008a4:	fab3 f383 	clz	r3, r3
200008a8:	b2db      	uxtb	r3, r3
200008aa:	2b07      	cmp	r3, #7
200008ac:	d807      	bhi.n	200008be <LL_GPIO_Init+0xac>
200008ae:	683b      	ldr	r3, [r7, #0]
200008b0:	695b      	ldr	r3, [r3, #20]
200008b2:	461a      	mov	r2, r3
200008b4:	69b9      	ldr	r1, [r7, #24]
200008b6:	6878      	ldr	r0, [r7, #4]
200008b8:	f7ff ff4b 	bl	20000752 <LL_GPIO_SetAFPin_0_7>
200008bc:	e006      	b.n	200008cc <LL_GPIO_Init+0xba>
200008be:	683b      	ldr	r3, [r7, #0]
200008c0:	695b      	ldr	r3, [r3, #20]
200008c2:	461a      	mov	r2, r3
200008c4:	69b9      	ldr	r1, [r7, #24]
200008c6:	6878      	ldr	r0, [r7, #4]
200008c8:	f7ff ff72 	bl	200007b0 <LL_GPIO_SetAFPin_8_15>
200008cc:	683b      	ldr	r3, [r7, #0]
200008ce:	685b      	ldr	r3, [r3, #4]
200008d0:	461a      	mov	r2, r3
200008d2:	69b9      	ldr	r1, [r7, #24]
200008d4:	6878      	ldr	r0, [r7, #4]
200008d6:	f7ff fe97 	bl	20000608 <LL_GPIO_SetPinMode>
200008da:	69fb      	ldr	r3, [r7, #28]
200008dc:	3301      	adds	r3, #1
200008de:	61fb      	str	r3, [r7, #28]
200008e0:	683b      	ldr	r3, [r7, #0]
200008e2:	681a      	ldr	r2, [r3, #0]
200008e4:	69fb      	ldr	r3, [r7, #28]
200008e6:	fa22 f303 	lsr.w	r3, r2, r3
200008ea:	2b00      	cmp	r3, #0
200008ec:	d1a7      	bne.n	2000083e <LL_GPIO_Init+0x2c>
200008ee:	2300      	movs	r3, #0
200008f0:	4618      	mov	r0, r3
200008f2:	3720      	adds	r7, #32
200008f4:	46bd      	mov	sp, r7
200008f6:	bd80      	pop	{r7, pc}

200008f8 <LL_SPI_IsEnabled>:
200008f8:	b480      	push	{r7}
200008fa:	b083      	sub	sp, #12
200008fc:	af00      	add	r7, sp, #0
200008fe:	6078      	str	r0, [r7, #4]
20000900:	687b      	ldr	r3, [r7, #4]
20000902:	681b      	ldr	r3, [r3, #0]
20000904:	f003 0340 	and.w	r3, r3, #64	; 0x40
20000908:	2b40      	cmp	r3, #64	; 0x40
2000090a:	d101      	bne.n	20000910 <LL_SPI_IsEnabled+0x18>
2000090c:	2301      	movs	r3, #1
2000090e:	e000      	b.n	20000912 <LL_SPI_IsEnabled+0x1a>
20000910:	2300      	movs	r3, #0
20000912:	4618      	mov	r0, r3
20000914:	370c      	adds	r7, #12
20000916:	46bd      	mov	sp, r7
20000918:	f85d 7b04 	ldr.w	r7, [sp], #4
2000091c:	4770      	bx	lr

2000091e <LL_SPI_SetCRCPolynomial>:
2000091e:	b480      	push	{r7}
20000920:	b083      	sub	sp, #12
20000922:	af00      	add	r7, sp, #0
20000924:	6078      	str	r0, [r7, #4]
20000926:	6039      	str	r1, [r7, #0]
20000928:	683b      	ldr	r3, [r7, #0]
2000092a:	b29b      	uxth	r3, r3
2000092c:	461a      	mov	r2, r3
2000092e:	687b      	ldr	r3, [r7, #4]
20000930:	611a      	str	r2, [r3, #16]
20000932:	bf00      	nop
20000934:	370c      	adds	r7, #12
20000936:	46bd      	mov	sp, r7
20000938:	f85d 7b04 	ldr.w	r7, [sp], #4
2000093c:	4770      	bx	lr

2000093e <LL_SPI_Init>:
2000093e:	b580      	push	{r7, lr}
20000940:	b084      	sub	sp, #16
20000942:	af00      	add	r7, sp, #0
20000944:	6078      	str	r0, [r7, #4]
20000946:	6039      	str	r1, [r7, #0]
20000948:	2301      	movs	r3, #1
2000094a:	73fb      	strb	r3, [r7, #15]
2000094c:	6878      	ldr	r0, [r7, #4]
2000094e:	f7ff ffd3 	bl	200008f8 <LL_SPI_IsEnabled>
20000952:	4603      	mov	r3, r0
20000954:	2b00      	cmp	r3, #0
20000956:	d139      	bne.n	200009cc <LL_SPI_Init+0x8e>
20000958:	687b      	ldr	r3, [r7, #4]
2000095a:	681b      	ldr	r3, [r3, #0]
2000095c:	f423 437f 	bic.w	r3, r3, #65280	; 0xff00
20000960:	f023 03bf 	bic.w	r3, r3, #191	; 0xbf
20000964:	683a      	ldr	r2, [r7, #0]
20000966:	6811      	ldr	r1, [r2, #0]
20000968:	683a      	ldr	r2, [r7, #0]
2000096a:	6852      	ldr	r2, [r2, #4]
2000096c:	4311      	orrs	r1, r2
2000096e:	683a      	ldr	r2, [r7, #0]
20000970:	6892      	ldr	r2, [r2, #8]
20000972:	4311      	orrs	r1, r2
20000974:	683a      	ldr	r2, [r7, #0]
20000976:	68d2      	ldr	r2, [r2, #12]
20000978:	4311      	orrs	r1, r2
2000097a:	683a      	ldr	r2, [r7, #0]
2000097c:	6912      	ldr	r2, [r2, #16]
2000097e:	4311      	orrs	r1, r2
20000980:	683a      	ldr	r2, [r7, #0]
20000982:	6952      	ldr	r2, [r2, #20]
20000984:	4311      	orrs	r1, r2
20000986:	683a      	ldr	r2, [r7, #0]
20000988:	6992      	ldr	r2, [r2, #24]
2000098a:	4311      	orrs	r1, r2
2000098c:	683a      	ldr	r2, [r7, #0]
2000098e:	69d2      	ldr	r2, [r2, #28]
20000990:	4311      	orrs	r1, r2
20000992:	683a      	ldr	r2, [r7, #0]
20000994:	6a12      	ldr	r2, [r2, #32]
20000996:	430a      	orrs	r2, r1
20000998:	431a      	orrs	r2, r3
2000099a:	687b      	ldr	r3, [r7, #4]
2000099c:	601a      	str	r2, [r3, #0]
2000099e:	687b      	ldr	r3, [r7, #4]
200009a0:	685b      	ldr	r3, [r3, #4]
200009a2:	f023 0204 	bic.w	r2, r3, #4
200009a6:	683b      	ldr	r3, [r7, #0]
200009a8:	695b      	ldr	r3, [r3, #20]
200009aa:	0c1b      	lsrs	r3, r3, #16
200009ac:	431a      	orrs	r2, r3
200009ae:	687b      	ldr	r3, [r7, #4]
200009b0:	605a      	str	r2, [r3, #4]
200009b2:	683b      	ldr	r3, [r7, #0]
200009b4:	6a1b      	ldr	r3, [r3, #32]
200009b6:	f5b3 5f00 	cmp.w	r3, #8192	; 0x2000
200009ba:	d105      	bne.n	200009c8 <LL_SPI_Init+0x8a>
200009bc:	683b      	ldr	r3, [r7, #0]
200009be:	6a5b      	ldr	r3, [r3, #36]	; 0x24
200009c0:	4619      	mov	r1, r3
200009c2:	6878      	ldr	r0, [r7, #4]
200009c4:	f7ff ffab 	bl	2000091e <LL_SPI_SetCRCPolynomial>
200009c8:	2300      	movs	r3, #0
200009ca:	73fb      	strb	r3, [r7, #15]
200009cc:	687b      	ldr	r3, [r7, #4]
200009ce:	69db      	ldr	r3, [r3, #28]
200009d0:	f423 6200 	bic.w	r2, r3, #2048	; 0x800
200009d4:	687b      	ldr	r3, [r7, #4]
200009d6:	61da      	str	r2, [r3, #28]
200009d8:	7bfb      	ldrb	r3, [r7, #15]
200009da:	4618      	mov	r0, r3
200009dc:	3710      	adds	r7, #16
200009de:	46bd      	mov	sp, r7
200009e0:	bd80      	pop	{r7, pc}
	...

200009e4 <LL_InitTick>:
200009e4:	b480      	push	{r7}
200009e6:	b083      	sub	sp, #12
200009e8:	af00      	add	r7, sp, #0
200009ea:	6078      	str	r0, [r7, #4]
200009ec:	6039      	str	r1, [r7, #0]
200009ee:	687a      	ldr	r2, [r7, #4]
200009f0:	683b      	ldr	r3, [r7, #0]
200009f2:	fbb2 f3f3 	udiv	r3, r2, r3
200009f6:	4a07      	ldr	r2, [pc, #28]	; (20000a14 <LL_InitTick+0x30>)
200009f8:	3b01      	subs	r3, #1
200009fa:	6053      	str	r3, [r2, #4]
200009fc:	4b05      	ldr	r3, [pc, #20]	; (20000a14 <LL_InitTick+0x30>)
200009fe:	2200      	movs	r2, #0
20000a00:	609a      	str	r2, [r3, #8]
20000a02:	4b04      	ldr	r3, [pc, #16]	; (20000a14 <LL_InitTick+0x30>)
20000a04:	2205      	movs	r2, #5
20000a06:	601a      	str	r2, [r3, #0]
20000a08:	bf00      	nop
20000a0a:	370c      	adds	r7, #12
20000a0c:	46bd      	mov	sp, r7
20000a0e:	f85d 7b04 	ldr.w	r7, [sp], #4
20000a12:	4770      	bx	lr
20000a14:	e000e010 	.word	0xe000e010

20000a18 <LL_Init1msTick>:
20000a18:	b580      	push	{r7, lr}
20000a1a:	b082      	sub	sp, #8
20000a1c:	af00      	add	r7, sp, #0
20000a1e:	6078      	str	r0, [r7, #4]
20000a20:	f44f 717a 	mov.w	r1, #1000	; 0x3e8
20000a24:	6878      	ldr	r0, [r7, #4]
20000a26:	f7ff ffdd 	bl	200009e4 <LL_InitTick>
20000a2a:	bf00      	nop
20000a2c:	3708      	adds	r7, #8
20000a2e:	46bd      	mov	sp, r7
20000a30:	bd80      	pop	{r7, pc}
	...

20000a34 <LL_mDelay>:
20000a34:	b480      	push	{r7}
20000a36:	b085      	sub	sp, #20
20000a38:	af00      	add	r7, sp, #0
20000a3a:	6078      	str	r0, [r7, #4]
20000a3c:	4b0f      	ldr	r3, [pc, #60]	; (20000a7c <LL_mDelay+0x48>)
20000a3e:	681b      	ldr	r3, [r3, #0]
20000a40:	60fb      	str	r3, [r7, #12]
20000a42:	68fb      	ldr	r3, [r7, #12]
20000a44:	687b      	ldr	r3, [r7, #4]
20000a46:	f1b3 3fff 	cmp.w	r3, #4294967295
20000a4a:	d00c      	beq.n	20000a66 <LL_mDelay+0x32>
20000a4c:	687b      	ldr	r3, [r7, #4]
20000a4e:	3301      	adds	r3, #1
20000a50:	607b      	str	r3, [r7, #4]
20000a52:	e008      	b.n	20000a66 <LL_mDelay+0x32>
20000a54:	4b09      	ldr	r3, [pc, #36]	; (20000a7c <LL_mDelay+0x48>)
20000a56:	681b      	ldr	r3, [r3, #0]
20000a58:	f403 3380 	and.w	r3, r3, #65536	; 0x10000
20000a5c:	2b00      	cmp	r3, #0
20000a5e:	d002      	beq.n	20000a66 <LL_mDelay+0x32>
20000a60:	687b      	ldr	r3, [r7, #4]
20000a62:	3b01      	subs	r3, #1
20000a64:	607b      	str	r3, [r7, #4]
20000a66:	687b      	ldr	r3, [r7, #4]
20000a68:	2b00      	cmp	r3, #0
20000a6a:	d1f3      	bne.n	20000a54 <LL_mDelay+0x20>
20000a6c:	bf00      	nop
20000a6e:	bf00      	nop
20000a70:	3714      	adds	r7, #20
20000a72:	46bd      	mov	sp, r7
20000a74:	f85d 7b04 	ldr.w	r7, [sp], #4
20000a78:	4770      	bx	lr
20000a7a:	bf00      	nop
20000a7c:	e000e010 	.word	0xe000e010

20000a80 <LL_SetSystemCoreClock>:
20000a80:	b480      	push	{r7}
20000a82:	b083      	sub	sp, #12
20000a84:	af00      	add	r7, sp, #0
20000a86:	6078      	str	r0, [r7, #4]
20000a88:	4a04      	ldr	r2, [pc, #16]	; (20000a9c <LL_SetSystemCoreClock+0x1c>)
20000a8a:	687b      	ldr	r3, [r7, #4]
20000a8c:	6013      	str	r3, [r2, #0]
20000a8e:	bf00      	nop
20000a90:	370c      	adds	r7, #12
20000a92:	46bd      	mov	sp, r7
20000a94:	f85d 7b04 	ldr.w	r7, [sp], #4
20000a98:	4770      	bx	lr
20000a9a:	bf00      	nop
20000a9c:	2000a388 	.word	0x2000a388

20000aa0 <__NVIC_SetPriority>:
20000aa0:	b480      	push	{r7}
20000aa2:	b083      	sub	sp, #12
20000aa4:	af00      	add	r7, sp, #0
20000aa6:	4603      	mov	r3, r0
20000aa8:	6039      	str	r1, [r7, #0]
20000aaa:	71fb      	strb	r3, [r7, #7]
20000aac:	f997 3007 	ldrsb.w	r3, [r7, #7]
20000ab0:	2b00      	cmp	r3, #0
20000ab2:	db0a      	blt.n	20000aca <__NVIC_SetPriority+0x2a>
20000ab4:	683b      	ldr	r3, [r7, #0]
20000ab6:	b2da      	uxtb	r2, r3
20000ab8:	490c      	ldr	r1, [pc, #48]	; (20000aec <__NVIC_SetPriority+0x4c>)
20000aba:	f997 3007 	ldrsb.w	r3, [r7, #7]
20000abe:	0112      	lsls	r2, r2, #4
20000ac0:	b2d2      	uxtb	r2, r2
20000ac2:	440b      	add	r3, r1
20000ac4:	f883 2300 	strb.w	r2, [r3, #768]	; 0x300
20000ac8:	e00a      	b.n	20000ae0 <__NVIC_SetPriority+0x40>
20000aca:	683b      	ldr	r3, [r7, #0]
20000acc:	b2da      	uxtb	r2, r3
20000ace:	4908      	ldr	r1, [pc, #32]	; (20000af0 <__NVIC_SetPriority+0x50>)
20000ad0:	79fb      	ldrb	r3, [r7, #7]
20000ad2:	f003 030f 	and.w	r3, r3, #15
20000ad6:	3b04      	subs	r3, #4
20000ad8:	0112      	lsls	r2, r2, #4
20000ada:	b2d2      	uxtb	r2, r2
20000adc:	440b      	add	r3, r1
20000ade:	761a      	strb	r2, [r3, #24]
20000ae0:	bf00      	nop
20000ae2:	370c      	adds	r7, #12
20000ae4:	46bd      	mov	sp, r7
20000ae6:	f85d 7b04 	ldr.w	r7, [sp], #4
20000aea:	4770      	bx	lr
20000aec:	e000e100 	.word	0xe000e100
20000af0:	e000ed00 	.word	0xe000ed00

20000af4 <SVC_Setup>:
20000af4:	b580      	push	{r7, lr}
20000af6:	af00      	add	r7, sp, #0
20000af8:	2100      	movs	r1, #0
20000afa:	f06f 0004 	mvn.w	r0, #4
20000afe:	f7ff ffcf 	bl	20000aa0 <__NVIC_SetPriority>
20000b02:	bf00      	nop
20000b04:	bd80      	pop	{r7, pc}
	...

20000b08 <osKernelInitialize>:
20000b08:	b480      	push	{r7}
20000b0a:	b083      	sub	sp, #12
20000b0c:	af00      	add	r7, sp, #0
20000b0e:	f3ef 8305 	mrs	r3, IPSR
20000b12:	603b      	str	r3, [r7, #0]
20000b14:	683b      	ldr	r3, [r7, #0]
20000b16:	2b00      	cmp	r3, #0
20000b18:	d003      	beq.n	20000b22 <osKernelInitialize+0x1a>
20000b1a:	f06f 0305 	mvn.w	r3, #5
20000b1e:	607b      	str	r3, [r7, #4]
20000b20:	e00c      	b.n	20000b3c <osKernelInitialize+0x34>
20000b22:	4b0a      	ldr	r3, [pc, #40]	; (20000b4c <osKernelInitialize+0x44>)
20000b24:	681b      	ldr	r3, [r3, #0]
20000b26:	2b00      	cmp	r3, #0
20000b28:	d105      	bne.n	20000b36 <osKernelInitialize+0x2e>
20000b2a:	4b08      	ldr	r3, [pc, #32]	; (20000b4c <osKernelInitialize+0x44>)
20000b2c:	2201      	movs	r2, #1
20000b2e:	601a      	str	r2, [r3, #0]
20000b30:	2300      	movs	r3, #0
20000b32:	607b      	str	r3, [r7, #4]
20000b34:	e002      	b.n	20000b3c <osKernelInitialize+0x34>
20000b36:	f04f 33ff 	mov.w	r3, #4294967295
20000b3a:	607b      	str	r3, [r7, #4]
20000b3c:	687b      	ldr	r3, [r7, #4]
20000b3e:	4618      	mov	r0, r3
20000b40:	370c      	adds	r7, #12
20000b42:	46bd      	mov	sp, r7
20000b44:	f85d 7b04 	ldr.w	r7, [sp], #4
20000b48:	4770      	bx	lr
20000b4a:	bf00      	nop
20000b4c:	2000a40c 	.word	0x2000a40c

20000b50 <osKernelStart>:
20000b50:	b580      	push	{r7, lr}
20000b52:	b082      	sub	sp, #8
20000b54:	af00      	add	r7, sp, #0
20000b56:	f3ef 8305 	mrs	r3, IPSR
20000b5a:	603b      	str	r3, [r7, #0]
20000b5c:	683b      	ldr	r3, [r7, #0]
20000b5e:	2b00      	cmp	r3, #0
20000b60:	d003      	beq.n	20000b6a <osKernelStart+0x1a>
20000b62:	f06f 0305 	mvn.w	r3, #5
20000b66:	607b      	str	r3, [r7, #4]
20000b68:	e010      	b.n	20000b8c <osKernelStart+0x3c>
20000b6a:	4b0b      	ldr	r3, [pc, #44]	; (20000b98 <osKernelStart+0x48>)
20000b6c:	681b      	ldr	r3, [r3, #0]
20000b6e:	2b01      	cmp	r3, #1
20000b70:	d109      	bne.n	20000b86 <osKernelStart+0x36>
20000b72:	f7ff ffbf 	bl	20000af4 <SVC_Setup>
20000b76:	4b08      	ldr	r3, [pc, #32]	; (20000b98 <osKernelStart+0x48>)
20000b78:	2202      	movs	r2, #2
20000b7a:	601a      	str	r2, [r3, #0]
20000b7c:	f001 f9f6 	bl	20001f6c <vTaskStartScheduler>
20000b80:	2300      	movs	r3, #0
20000b82:	607b      	str	r3, [r7, #4]
20000b84:	e002      	b.n	20000b8c <osKernelStart+0x3c>
20000b86:	f04f 33ff 	mov.w	r3, #4294967295
20000b8a:	607b      	str	r3, [r7, #4]
20000b8c:	687b      	ldr	r3, [r7, #4]
20000b8e:	4618      	mov	r0, r3
20000b90:	3708      	adds	r7, #8
20000b92:	46bd      	mov	sp, r7
20000b94:	bd80      	pop	{r7, pc}
20000b96:	bf00      	nop
20000b98:	2000a40c 	.word	0x2000a40c

20000b9c <osThreadNew>:
20000b9c:	b580      	push	{r7, lr}
20000b9e:	b08e      	sub	sp, #56	; 0x38
20000ba0:	af04      	add	r7, sp, #16
20000ba2:	60f8      	str	r0, [r7, #12]
20000ba4:	60b9      	str	r1, [r7, #8]
20000ba6:	607a      	str	r2, [r7, #4]
20000ba8:	2300      	movs	r3, #0
20000baa:	613b      	str	r3, [r7, #16]
20000bac:	f3ef 8305 	mrs	r3, IPSR
20000bb0:	617b      	str	r3, [r7, #20]
20000bb2:	697b      	ldr	r3, [r7, #20]
20000bb4:	2b00      	cmp	r3, #0
20000bb6:	d17e      	bne.n	20000cb6 <osThreadNew+0x11a>
20000bb8:	68fb      	ldr	r3, [r7, #12]
20000bba:	2b00      	cmp	r3, #0
20000bbc:	d07b      	beq.n	20000cb6 <osThreadNew+0x11a>
20000bbe:	2380      	movs	r3, #128	; 0x80
20000bc0:	623b      	str	r3, [r7, #32]
20000bc2:	2318      	movs	r3, #24
20000bc4:	61fb      	str	r3, [r7, #28]
20000bc6:	2300      	movs	r3, #0
20000bc8:	627b      	str	r3, [r7, #36]	; 0x24
20000bca:	f04f 33ff 	mov.w	r3, #4294967295
20000bce:	61bb      	str	r3, [r7, #24]
20000bd0:	687b      	ldr	r3, [r7, #4]
20000bd2:	2b00      	cmp	r3, #0
20000bd4:	d045      	beq.n	20000c62 <osThreadNew+0xc6>
20000bd6:	687b      	ldr	r3, [r7, #4]
20000bd8:	681b      	ldr	r3, [r3, #0]
20000bda:	2b00      	cmp	r3, #0
20000bdc:	d002      	beq.n	20000be4 <osThreadNew+0x48>
20000bde:	687b      	ldr	r3, [r7, #4]
20000be0:	681b      	ldr	r3, [r3, #0]
20000be2:	627b      	str	r3, [r7, #36]	; 0x24
20000be4:	687b      	ldr	r3, [r7, #4]
20000be6:	699b      	ldr	r3, [r3, #24]
20000be8:	2b00      	cmp	r3, #0
20000bea:	d002      	beq.n	20000bf2 <osThreadNew+0x56>
20000bec:	687b      	ldr	r3, [r7, #4]
20000bee:	699b      	ldr	r3, [r3, #24]
20000bf0:	61fb      	str	r3, [r7, #28]
20000bf2:	69fb      	ldr	r3, [r7, #28]
20000bf4:	2b00      	cmp	r3, #0
20000bf6:	d008      	beq.n	20000c0a <osThreadNew+0x6e>
20000bf8:	69fb      	ldr	r3, [r7, #28]
20000bfa:	2b38      	cmp	r3, #56	; 0x38
20000bfc:	d805      	bhi.n	20000c0a <osThreadNew+0x6e>
20000bfe:	687b      	ldr	r3, [r7, #4]
20000c00:	685b      	ldr	r3, [r3, #4]
20000c02:	f003 0301 	and.w	r3, r3, #1
20000c06:	2b00      	cmp	r3, #0
20000c08:	d001      	beq.n	20000c0e <osThreadNew+0x72>
20000c0a:	2300      	movs	r3, #0
20000c0c:	e054      	b.n	20000cb8 <osThreadNew+0x11c>
20000c0e:	687b      	ldr	r3, [r7, #4]
20000c10:	695b      	ldr	r3, [r3, #20]
20000c12:	2b00      	cmp	r3, #0
20000c14:	d003      	beq.n	20000c1e <osThreadNew+0x82>
20000c16:	687b      	ldr	r3, [r7, #4]
20000c18:	695b      	ldr	r3, [r3, #20]
20000c1a:	089b      	lsrs	r3, r3, #2
20000c1c:	623b      	str	r3, [r7, #32]
20000c1e:	687b      	ldr	r3, [r7, #4]
20000c20:	689b      	ldr	r3, [r3, #8]
20000c22:	2b00      	cmp	r3, #0
20000c24:	d00e      	beq.n	20000c44 <osThreadNew+0xa8>
20000c26:	687b      	ldr	r3, [r7, #4]
20000c28:	68db      	ldr	r3, [r3, #12]
20000c2a:	2bbb      	cmp	r3, #187	; 0xbb
20000c2c:	d90a      	bls.n	20000c44 <osThreadNew+0xa8>
20000c2e:	687b      	ldr	r3, [r7, #4]
20000c30:	691b      	ldr	r3, [r3, #16]
20000c32:	2b00      	cmp	r3, #0
20000c34:	d006      	beq.n	20000c44 <osThreadNew+0xa8>
20000c36:	687b      	ldr	r3, [r7, #4]
20000c38:	695b      	ldr	r3, [r3, #20]
20000c3a:	2b00      	cmp	r3, #0
20000c3c:	d002      	beq.n	20000c44 <osThreadNew+0xa8>
20000c3e:	2301      	movs	r3, #1
20000c40:	61bb      	str	r3, [r7, #24]
20000c42:	e010      	b.n	20000c66 <osThreadNew+0xca>
20000c44:	687b      	ldr	r3, [r7, #4]
20000c46:	689b      	ldr	r3, [r3, #8]
20000c48:	2b00      	cmp	r3, #0
20000c4a:	d10c      	bne.n	20000c66 <osThreadNew+0xca>
20000c4c:	687b      	ldr	r3, [r7, #4]
20000c4e:	68db      	ldr	r3, [r3, #12]
20000c50:	2b00      	cmp	r3, #0
20000c52:	d108      	bne.n	20000c66 <osThreadNew+0xca>
20000c54:	687b      	ldr	r3, [r7, #4]
20000c56:	691b      	ldr	r3, [r3, #16]
20000c58:	2b00      	cmp	r3, #0
20000c5a:	d104      	bne.n	20000c66 <osThreadNew+0xca>
20000c5c:	2300      	movs	r3, #0
20000c5e:	61bb      	str	r3, [r7, #24]
20000c60:	e001      	b.n	20000c66 <osThreadNew+0xca>
20000c62:	2300      	movs	r3, #0
20000c64:	61bb      	str	r3, [r7, #24]
20000c66:	69bb      	ldr	r3, [r7, #24]
20000c68:	2b01      	cmp	r3, #1
20000c6a:	d110      	bne.n	20000c8e <osThreadNew+0xf2>
20000c6c:	687b      	ldr	r3, [r7, #4]
20000c6e:	691b      	ldr	r3, [r3, #16]
20000c70:	687a      	ldr	r2, [r7, #4]
20000c72:	6892      	ldr	r2, [r2, #8]
20000c74:	9202      	str	r2, [sp, #8]
20000c76:	9301      	str	r3, [sp, #4]
20000c78:	69fb      	ldr	r3, [r7, #28]
20000c7a:	9300      	str	r3, [sp, #0]
20000c7c:	68bb      	ldr	r3, [r7, #8]
20000c7e:	6a3a      	ldr	r2, [r7, #32]
20000c80:	6a79      	ldr	r1, [r7, #36]	; 0x24
20000c82:	68f8      	ldr	r0, [r7, #12]
20000c84:	f000 ff86 	bl	20001b94 <xTaskCreateStatic>
20000c88:	4603      	mov	r3, r0
20000c8a:	613b      	str	r3, [r7, #16]
20000c8c:	e013      	b.n	20000cb6 <osThreadNew+0x11a>
20000c8e:	69bb      	ldr	r3, [r7, #24]
20000c90:	2b00      	cmp	r3, #0
20000c92:	d110      	bne.n	20000cb6 <osThreadNew+0x11a>
20000c94:	6a3b      	ldr	r3, [r7, #32]
20000c96:	b29a      	uxth	r2, r3
20000c98:	f107 0310 	add.w	r3, r7, #16
20000c9c:	9301      	str	r3, [sp, #4]
20000c9e:	69fb      	ldr	r3, [r7, #28]
20000ca0:	9300      	str	r3, [sp, #0]
20000ca2:	68bb      	ldr	r3, [r7, #8]
20000ca4:	6a79      	ldr	r1, [r7, #36]	; 0x24
20000ca6:	68f8      	ldr	r0, [r7, #12]
20000ca8:	f000 ffd1 	bl	20001c4e <xTaskCreate>
20000cac:	4603      	mov	r3, r0
20000cae:	2b01      	cmp	r3, #1
20000cb0:	d001      	beq.n	20000cb6 <osThreadNew+0x11a>
20000cb2:	2300      	movs	r3, #0
20000cb4:	613b      	str	r3, [r7, #16]
20000cb6:	693b      	ldr	r3, [r7, #16]
20000cb8:	4618      	mov	r0, r3
20000cba:	3728      	adds	r7, #40	; 0x28
20000cbc:	46bd      	mov	sp, r7
20000cbe:	bd80      	pop	{r7, pc}

20000cc0 <osDelay>:
20000cc0:	b580      	push	{r7, lr}
20000cc2:	b084      	sub	sp, #16
20000cc4:	af00      	add	r7, sp, #0
20000cc6:	6078      	str	r0, [r7, #4]
20000cc8:	f3ef 8305 	mrs	r3, IPSR
20000ccc:	60bb      	str	r3, [r7, #8]
20000cce:	68bb      	ldr	r3, [r7, #8]
20000cd0:	2b00      	cmp	r3, #0
20000cd2:	d003      	beq.n	20000cdc <osDelay+0x1c>
20000cd4:	f06f 0305 	mvn.w	r3, #5
20000cd8:	60fb      	str	r3, [r7, #12]
20000cda:	e007      	b.n	20000cec <osDelay+0x2c>
20000cdc:	2300      	movs	r3, #0
20000cde:	60fb      	str	r3, [r7, #12]
20000ce0:	687b      	ldr	r3, [r7, #4]
20000ce2:	2b00      	cmp	r3, #0
20000ce4:	d002      	beq.n	20000cec <osDelay+0x2c>
20000ce6:	6878      	ldr	r0, [r7, #4]
20000ce8:	f001 f90c 	bl	20001f04 <vTaskDelay>
20000cec:	68fb      	ldr	r3, [r7, #12]
20000cee:	4618      	mov	r0, r3
20000cf0:	3710      	adds	r7, #16
20000cf2:	46bd      	mov	sp, r7
20000cf4:	bd80      	pop	{r7, pc}

20000cf6 <osSemaphoreNew>:
20000cf6:	b580      	push	{r7, lr}
20000cf8:	b08a      	sub	sp, #40	; 0x28
20000cfa:	af02      	add	r7, sp, #8
20000cfc:	60f8      	str	r0, [r7, #12]
20000cfe:	60b9      	str	r1, [r7, #8]
20000d00:	607a      	str	r2, [r7, #4]
20000d02:	2300      	movs	r3, #0
20000d04:	61fb      	str	r3, [r7, #28]
20000d06:	f3ef 8305 	mrs	r3, IPSR
20000d0a:	613b      	str	r3, [r7, #16]
20000d0c:	693b      	ldr	r3, [r7, #16]
20000d0e:	2b00      	cmp	r3, #0
20000d10:	d175      	bne.n	20000dfe <osSemaphoreNew+0x108>
20000d12:	68fb      	ldr	r3, [r7, #12]
20000d14:	2b00      	cmp	r3, #0
20000d16:	d072      	beq.n	20000dfe <osSemaphoreNew+0x108>
20000d18:	68ba      	ldr	r2, [r7, #8]
20000d1a:	68fb      	ldr	r3, [r7, #12]
20000d1c:	429a      	cmp	r2, r3
20000d1e:	d86e      	bhi.n	20000dfe <osSemaphoreNew+0x108>
20000d20:	f04f 33ff 	mov.w	r3, #4294967295
20000d24:	61bb      	str	r3, [r7, #24]
20000d26:	687b      	ldr	r3, [r7, #4]
20000d28:	2b00      	cmp	r3, #0
20000d2a:	d015      	beq.n	20000d58 <osSemaphoreNew+0x62>
20000d2c:	687b      	ldr	r3, [r7, #4]
20000d2e:	689b      	ldr	r3, [r3, #8]
20000d30:	2b00      	cmp	r3, #0
20000d32:	d006      	beq.n	20000d42 <osSemaphoreNew+0x4c>
20000d34:	687b      	ldr	r3, [r7, #4]
20000d36:	68db      	ldr	r3, [r3, #12]
20000d38:	2b4f      	cmp	r3, #79	; 0x4f
20000d3a:	d902      	bls.n	20000d42 <osSemaphoreNew+0x4c>
20000d3c:	2301      	movs	r3, #1
20000d3e:	61bb      	str	r3, [r7, #24]
20000d40:	e00c      	b.n	20000d5c <osSemaphoreNew+0x66>
20000d42:	687b      	ldr	r3, [r7, #4]
20000d44:	689b      	ldr	r3, [r3, #8]
20000d46:	2b00      	cmp	r3, #0
20000d48:	d108      	bne.n	20000d5c <osSemaphoreNew+0x66>
20000d4a:	687b      	ldr	r3, [r7, #4]
20000d4c:	68db      	ldr	r3, [r3, #12]
20000d4e:	2b00      	cmp	r3, #0
20000d50:	d104      	bne.n	20000d5c <osSemaphoreNew+0x66>
20000d52:	2300      	movs	r3, #0
20000d54:	61bb      	str	r3, [r7, #24]
20000d56:	e001      	b.n	20000d5c <osSemaphoreNew+0x66>
20000d58:	2300      	movs	r3, #0
20000d5a:	61bb      	str	r3, [r7, #24]
20000d5c:	69bb      	ldr	r3, [r7, #24]
20000d5e:	f1b3 3fff 	cmp.w	r3, #4294967295
20000d62:	d04c      	beq.n	20000dfe <osSemaphoreNew+0x108>
20000d64:	68fb      	ldr	r3, [r7, #12]
20000d66:	2b01      	cmp	r3, #1
20000d68:	d128      	bne.n	20000dbc <osSemaphoreNew+0xc6>
20000d6a:	69bb      	ldr	r3, [r7, #24]
20000d6c:	2b01      	cmp	r3, #1
20000d6e:	d10a      	bne.n	20000d86 <osSemaphoreNew+0x90>
20000d70:	687b      	ldr	r3, [r7, #4]
20000d72:	689b      	ldr	r3, [r3, #8]
20000d74:	2203      	movs	r2, #3
20000d76:	9200      	str	r2, [sp, #0]
20000d78:	2200      	movs	r2, #0
20000d7a:	2100      	movs	r1, #0
20000d7c:	2001      	movs	r0, #1
20000d7e:	f000 f993 	bl	200010a8 <xQueueGenericCreateStatic>
20000d82:	61f8      	str	r0, [r7, #28]
20000d84:	e005      	b.n	20000d92 <osSemaphoreNew+0x9c>
20000d86:	2203      	movs	r2, #3
20000d88:	2100      	movs	r1, #0
20000d8a:	2001      	movs	r0, #1
20000d8c:	f000 fa04 	bl	20001198 <xQueueGenericCreate>
20000d90:	61f8      	str	r0, [r7, #28]
20000d92:	69fb      	ldr	r3, [r7, #28]
20000d94:	2b00      	cmp	r3, #0
20000d96:	d022      	beq.n	20000dde <osSemaphoreNew+0xe8>
20000d98:	68bb      	ldr	r3, [r7, #8]
20000d9a:	2b00      	cmp	r3, #0
20000d9c:	d01f      	beq.n	20000dde <osSemaphoreNew+0xe8>
20000d9e:	2300      	movs	r3, #0
20000da0:	2200      	movs	r2, #0
20000da2:	2100      	movs	r1, #0
20000da4:	69f8      	ldr	r0, [r7, #28]
20000da6:	f000 fabf 	bl	20001328 <xQueueGenericSend>
20000daa:	4603      	mov	r3, r0
20000dac:	2b01      	cmp	r3, #1
20000dae:	d016      	beq.n	20000dde <osSemaphoreNew+0xe8>
20000db0:	69f8      	ldr	r0, [r7, #28]
20000db2:	f000 fd33 	bl	2000181c <vQueueDelete>
20000db6:	2300      	movs	r3, #0
20000db8:	61fb      	str	r3, [r7, #28]
20000dba:	e010      	b.n	20000dde <osSemaphoreNew+0xe8>
20000dbc:	69bb      	ldr	r3, [r7, #24]
20000dbe:	2b01      	cmp	r3, #1
20000dc0:	d108      	bne.n	20000dd4 <osSemaphoreNew+0xde>
20000dc2:	687b      	ldr	r3, [r7, #4]
20000dc4:	689b      	ldr	r3, [r3, #8]
20000dc6:	461a      	mov	r2, r3
20000dc8:	68b9      	ldr	r1, [r7, #8]
20000dca:	68f8      	ldr	r0, [r7, #12]
20000dcc:	f000 fa41 	bl	20001252 <xQueueCreateCountingSemaphoreStatic>
20000dd0:	61f8      	str	r0, [r7, #28]
20000dd2:	e004      	b.n	20000dde <osSemaphoreNew+0xe8>
20000dd4:	68b9      	ldr	r1, [r7, #8]
20000dd6:	68f8      	ldr	r0, [r7, #12]
20000dd8:	f000 fa72 	bl	200012c0 <xQueueCreateCountingSemaphore>
20000ddc:	61f8      	str	r0, [r7, #28]
20000dde:	69fb      	ldr	r3, [r7, #28]
20000de0:	2b00      	cmp	r3, #0
20000de2:	d00c      	beq.n	20000dfe <osSemaphoreNew+0x108>
20000de4:	687b      	ldr	r3, [r7, #4]
20000de6:	2b00      	cmp	r3, #0
20000de8:	d003      	beq.n	20000df2 <osSemaphoreNew+0xfc>
20000dea:	687b      	ldr	r3, [r7, #4]
20000dec:	681b      	ldr	r3, [r3, #0]
20000dee:	617b      	str	r3, [r7, #20]
20000df0:	e001      	b.n	20000df6 <osSemaphoreNew+0x100>
20000df2:	2300      	movs	r3, #0
20000df4:	617b      	str	r3, [r7, #20]
20000df6:	6979      	ldr	r1, [r7, #20]
20000df8:	69f8      	ldr	r0, [r7, #28]
20000dfa:	f000 fe43 	bl	20001a84 <vQueueAddToRegistry>
20000dfe:	69fb      	ldr	r3, [r7, #28]
20000e00:	4618      	mov	r0, r3
20000e02:	3720      	adds	r7, #32
20000e04:	46bd      	mov	sp, r7
20000e06:	bd80      	pop	{r7, pc}

20000e08 <vApplicationGetIdleTaskMemory>:
20000e08:	b480      	push	{r7}
20000e0a:	b085      	sub	sp, #20
20000e0c:	af00      	add	r7, sp, #0
20000e0e:	60f8      	str	r0, [r7, #12]
20000e10:	60b9      	str	r1, [r7, #8]
20000e12:	607a      	str	r2, [r7, #4]
20000e14:	68fb      	ldr	r3, [r7, #12]
20000e16:	4a07      	ldr	r2, [pc, #28]	; (20000e34 <vApplicationGetIdleTaskMemory+0x2c>)
20000e18:	601a      	str	r2, [r3, #0]
20000e1a:	68bb      	ldr	r3, [r7, #8]
20000e1c:	4a06      	ldr	r2, [pc, #24]	; (20000e38 <vApplicationGetIdleTaskMemory+0x30>)
20000e1e:	601a      	str	r2, [r3, #0]
20000e20:	687b      	ldr	r3, [r7, #4]
20000e22:	2280      	movs	r2, #128	; 0x80
20000e24:	601a      	str	r2, [r3, #0]
20000e26:	bf00      	nop
20000e28:	3714      	adds	r7, #20
20000e2a:	46bd      	mov	sp, r7
20000e2c:	f85d 7b04 	ldr.w	r7, [sp], #4
20000e30:	4770      	bx	lr
20000e32:	bf00      	nop
20000e34:	2000a410 	.word	0x2000a410
20000e38:	2000a4cc 	.word	0x2000a4cc

20000e3c <vApplicationGetTimerTaskMemory>:
20000e3c:	b480      	push	{r7}
20000e3e:	b085      	sub	sp, #20
20000e40:	af00      	add	r7, sp, #0
20000e42:	60f8      	str	r0, [r7, #12]
20000e44:	60b9      	str	r1, [r7, #8]
20000e46:	607a      	str	r2, [r7, #4]
20000e48:	68fb      	ldr	r3, [r7, #12]
20000e4a:	4a07      	ldr	r2, [pc, #28]	; (20000e68 <vApplicationGetTimerTaskMemory+0x2c>)
20000e4c:	601a      	str	r2, [r3, #0]
20000e4e:	68bb      	ldr	r3, [r7, #8]
20000e50:	4a06      	ldr	r2, [pc, #24]	; (20000e6c <vApplicationGetTimerTaskMemory+0x30>)
20000e52:	601a      	str	r2, [r3, #0]
20000e54:	687b      	ldr	r3, [r7, #4]
20000e56:	f44f 7280 	mov.w	r2, #256	; 0x100
20000e5a:	601a      	str	r2, [r3, #0]
20000e5c:	bf00      	nop
20000e5e:	3714      	adds	r7, #20
20000e60:	46bd      	mov	sp, r7
20000e62:	f85d 7b04 	ldr.w	r7, [sp], #4
20000e66:	4770      	bx	lr
20000e68:	2000a6cc 	.word	0x2000a6cc
20000e6c:	2000a788 	.word	0x2000a788

20000e70 <vListInitialise>:
20000e70:	b480      	push	{r7}
20000e72:	b083      	sub	sp, #12
20000e74:	af00      	add	r7, sp, #0
20000e76:	6078      	str	r0, [r7, #4]
20000e78:	687b      	ldr	r3, [r7, #4]
20000e7a:	f103 0208 	add.w	r2, r3, #8
20000e7e:	687b      	ldr	r3, [r7, #4]
20000e80:	605a      	str	r2, [r3, #4]
20000e82:	687b      	ldr	r3, [r7, #4]
20000e84:	f04f 32ff 	mov.w	r2, #4294967295
20000e88:	609a      	str	r2, [r3, #8]
20000e8a:	687b      	ldr	r3, [r7, #4]
20000e8c:	f103 0208 	add.w	r2, r3, #8
20000e90:	687b      	ldr	r3, [r7, #4]
20000e92:	60da      	str	r2, [r3, #12]
20000e94:	687b      	ldr	r3, [r7, #4]
20000e96:	f103 0208 	add.w	r2, r3, #8
20000e9a:	687b      	ldr	r3, [r7, #4]
20000e9c:	611a      	str	r2, [r3, #16]
20000e9e:	687b      	ldr	r3, [r7, #4]
20000ea0:	2200      	movs	r2, #0
20000ea2:	601a      	str	r2, [r3, #0]
20000ea4:	bf00      	nop
20000ea6:	370c      	adds	r7, #12
20000ea8:	46bd      	mov	sp, r7
20000eaa:	f85d 7b04 	ldr.w	r7, [sp], #4
20000eae:	4770      	bx	lr

20000eb0 <vListInitialiseItem>:
20000eb0:	b480      	push	{r7}
20000eb2:	b083      	sub	sp, #12
20000eb4:	af00      	add	r7, sp, #0
20000eb6:	6078      	str	r0, [r7, #4]
20000eb8:	687b      	ldr	r3, [r7, #4]
20000eba:	2200      	movs	r2, #0
20000ebc:	611a      	str	r2, [r3, #16]
20000ebe:	bf00      	nop
20000ec0:	370c      	adds	r7, #12
20000ec2:	46bd      	mov	sp, r7
20000ec4:	f85d 7b04 	ldr.w	r7, [sp], #4
20000ec8:	4770      	bx	lr

20000eca <vListInsertEnd>:
20000eca:	b480      	push	{r7}
20000ecc:	b085      	sub	sp, #20
20000ece:	af00      	add	r7, sp, #0
20000ed0:	6078      	str	r0, [r7, #4]
20000ed2:	6039      	str	r1, [r7, #0]
20000ed4:	687b      	ldr	r3, [r7, #4]
20000ed6:	685b      	ldr	r3, [r3, #4]
20000ed8:	60fb      	str	r3, [r7, #12]
20000eda:	683b      	ldr	r3, [r7, #0]
20000edc:	68fa      	ldr	r2, [r7, #12]
20000ede:	605a      	str	r2, [r3, #4]
20000ee0:	68fb      	ldr	r3, [r7, #12]
20000ee2:	689a      	ldr	r2, [r3, #8]
20000ee4:	683b      	ldr	r3, [r7, #0]
20000ee6:	609a      	str	r2, [r3, #8]
20000ee8:	68fb      	ldr	r3, [r7, #12]
20000eea:	689b      	ldr	r3, [r3, #8]
20000eec:	683a      	ldr	r2, [r7, #0]
20000eee:	605a      	str	r2, [r3, #4]
20000ef0:	68fb      	ldr	r3, [r7, #12]
20000ef2:	683a      	ldr	r2, [r7, #0]
20000ef4:	609a      	str	r2, [r3, #8]
20000ef6:	683b      	ldr	r3, [r7, #0]
20000ef8:	687a      	ldr	r2, [r7, #4]
20000efa:	611a      	str	r2, [r3, #16]
20000efc:	687b      	ldr	r3, [r7, #4]
20000efe:	681b      	ldr	r3, [r3, #0]
20000f00:	1c5a      	adds	r2, r3, #1
20000f02:	687b      	ldr	r3, [r7, #4]
20000f04:	601a      	str	r2, [r3, #0]
20000f06:	bf00      	nop
20000f08:	3714      	adds	r7, #20
20000f0a:	46bd      	mov	sp, r7
20000f0c:	f85d 7b04 	ldr.w	r7, [sp], #4
20000f10:	4770      	bx	lr

20000f12 <vListInsert>:
20000f12:	b480      	push	{r7}
20000f14:	b085      	sub	sp, #20
20000f16:	af00      	add	r7, sp, #0
20000f18:	6078      	str	r0, [r7, #4]
20000f1a:	6039      	str	r1, [r7, #0]
20000f1c:	683b      	ldr	r3, [r7, #0]
20000f1e:	681b      	ldr	r3, [r3, #0]
20000f20:	60bb      	str	r3, [r7, #8]
20000f22:	68bb      	ldr	r3, [r7, #8]
20000f24:	f1b3 3fff 	cmp.w	r3, #4294967295
20000f28:	d103      	bne.n	20000f32 <vListInsert+0x20>
20000f2a:	687b      	ldr	r3, [r7, #4]
20000f2c:	691b      	ldr	r3, [r3, #16]
20000f2e:	60fb      	str	r3, [r7, #12]
20000f30:	e00c      	b.n	20000f4c <vListInsert+0x3a>
20000f32:	687b      	ldr	r3, [r7, #4]
20000f34:	3308      	adds	r3, #8
20000f36:	60fb      	str	r3, [r7, #12]
20000f38:	e002      	b.n	20000f40 <vListInsert+0x2e>
20000f3a:	68fb      	ldr	r3, [r7, #12]
20000f3c:	685b      	ldr	r3, [r3, #4]
20000f3e:	60fb      	str	r3, [r7, #12]
20000f40:	68fb      	ldr	r3, [r7, #12]
20000f42:	685b      	ldr	r3, [r3, #4]
20000f44:	681b      	ldr	r3, [r3, #0]
20000f46:	68ba      	ldr	r2, [r7, #8]
20000f48:	429a      	cmp	r2, r3
20000f4a:	d2f6      	bcs.n	20000f3a <vListInsert+0x28>
20000f4c:	68fb      	ldr	r3, [r7, #12]
20000f4e:	685a      	ldr	r2, [r3, #4]
20000f50:	683b      	ldr	r3, [r7, #0]
20000f52:	605a      	str	r2, [r3, #4]
20000f54:	683b      	ldr	r3, [r7, #0]
20000f56:	685b      	ldr	r3, [r3, #4]
20000f58:	683a      	ldr	r2, [r7, #0]
20000f5a:	609a      	str	r2, [r3, #8]
20000f5c:	683b      	ldr	r3, [r7, #0]
20000f5e:	68fa      	ldr	r2, [r7, #12]
20000f60:	609a      	str	r2, [r3, #8]
20000f62:	68fb      	ldr	r3, [r7, #12]
20000f64:	683a      	ldr	r2, [r7, #0]
20000f66:	605a      	str	r2, [r3, #4]
20000f68:	683b      	ldr	r3, [r7, #0]
20000f6a:	687a      	ldr	r2, [r7, #4]
20000f6c:	611a      	str	r2, [r3, #16]
20000f6e:	687b      	ldr	r3, [r7, #4]
20000f70:	681b      	ldr	r3, [r3, #0]
20000f72:	1c5a      	adds	r2, r3, #1
20000f74:	687b      	ldr	r3, [r7, #4]
20000f76:	601a      	str	r2, [r3, #0]
20000f78:	bf00      	nop
20000f7a:	3714      	adds	r7, #20
20000f7c:	46bd      	mov	sp, r7
20000f7e:	f85d 7b04 	ldr.w	r7, [sp], #4
20000f82:	4770      	bx	lr

20000f84 <uxListRemove>:
20000f84:	b480      	push	{r7}
20000f86:	b085      	sub	sp, #20
20000f88:	af00      	add	r7, sp, #0
20000f8a:	6078      	str	r0, [r7, #4]
20000f8c:	687b      	ldr	r3, [r7, #4]
20000f8e:	691b      	ldr	r3, [r3, #16]
20000f90:	60fb      	str	r3, [r7, #12]
20000f92:	687b      	ldr	r3, [r7, #4]
20000f94:	685b      	ldr	r3, [r3, #4]
20000f96:	687a      	ldr	r2, [r7, #4]
20000f98:	6892      	ldr	r2, [r2, #8]
20000f9a:	609a      	str	r2, [r3, #8]
20000f9c:	687b      	ldr	r3, [r7, #4]
20000f9e:	689b      	ldr	r3, [r3, #8]
20000fa0:	687a      	ldr	r2, [r7, #4]
20000fa2:	6852      	ldr	r2, [r2, #4]
20000fa4:	605a      	str	r2, [r3, #4]
20000fa6:	68fb      	ldr	r3, [r7, #12]
20000fa8:	685b      	ldr	r3, [r3, #4]
20000faa:	687a      	ldr	r2, [r7, #4]
20000fac:	429a      	cmp	r2, r3
20000fae:	d103      	bne.n	20000fb8 <uxListRemove+0x34>
20000fb0:	687b      	ldr	r3, [r7, #4]
20000fb2:	689a      	ldr	r2, [r3, #8]
20000fb4:	68fb      	ldr	r3, [r7, #12]
20000fb6:	605a      	str	r2, [r3, #4]
20000fb8:	687b      	ldr	r3, [r7, #4]
20000fba:	2200      	movs	r2, #0
20000fbc:	611a      	str	r2, [r3, #16]
20000fbe:	68fb      	ldr	r3, [r7, #12]
20000fc0:	681b      	ldr	r3, [r3, #0]
20000fc2:	1e5a      	subs	r2, r3, #1
20000fc4:	68fb      	ldr	r3, [r7, #12]
20000fc6:	601a      	str	r2, [r3, #0]
20000fc8:	68fb      	ldr	r3, [r7, #12]
20000fca:	681b      	ldr	r3, [r3, #0]
20000fcc:	4618      	mov	r0, r3
20000fce:	3714      	adds	r7, #20
20000fd0:	46bd      	mov	sp, r7
20000fd2:	f85d 7b04 	ldr.w	r7, [sp], #4
20000fd6:	4770      	bx	lr

20000fd8 <xQueueGenericReset>:
20000fd8:	b580      	push	{r7, lr}
20000fda:	b084      	sub	sp, #16
20000fdc:	af00      	add	r7, sp, #0
20000fde:	6078      	str	r0, [r7, #4]
20000fe0:	6039      	str	r1, [r7, #0]
20000fe2:	687b      	ldr	r3, [r7, #4]
20000fe4:	60fb      	str	r3, [r7, #12]
20000fe6:	68fb      	ldr	r3, [r7, #12]
20000fe8:	2b00      	cmp	r3, #0
20000fea:	d10a      	bne.n	20001002 <xQueueGenericReset+0x2a>
20000fec:	f04f 0350 	mov.w	r3, #80	; 0x50
20000ff0:	f383 8811 	msr	BASEPRI, r3
20000ff4:	f3bf 8f6f 	isb	sy
20000ff8:	f3bf 8f4f 	dsb	sy
20000ffc:	60bb      	str	r3, [r7, #8]
20000ffe:	bf00      	nop
20001000:	e7fe      	b.n	20001000 <xQueueGenericReset+0x28>
20001002:	f002 f967 	bl	200032d4 <vPortEnterCritical>
20001006:	68fb      	ldr	r3, [r7, #12]
20001008:	681a      	ldr	r2, [r3, #0]
2000100a:	68fb      	ldr	r3, [r7, #12]
2000100c:	6bdb      	ldr	r3, [r3, #60]	; 0x3c
2000100e:	68f9      	ldr	r1, [r7, #12]
20001010:	6c09      	ldr	r1, [r1, #64]	; 0x40
20001012:	fb01 f303 	mul.w	r3, r1, r3
20001016:	441a      	add	r2, r3
20001018:	68fb      	ldr	r3, [r7, #12]
2000101a:	609a      	str	r2, [r3, #8]
2000101c:	68fb      	ldr	r3, [r7, #12]
2000101e:	2200      	movs	r2, #0
20001020:	639a      	str	r2, [r3, #56]	; 0x38
20001022:	68fb      	ldr	r3, [r7, #12]
20001024:	681a      	ldr	r2, [r3, #0]
20001026:	68fb      	ldr	r3, [r7, #12]
20001028:	605a      	str	r2, [r3, #4]
2000102a:	68fb      	ldr	r3, [r7, #12]
2000102c:	681a      	ldr	r2, [r3, #0]
2000102e:	68fb      	ldr	r3, [r7, #12]
20001030:	6bdb      	ldr	r3, [r3, #60]	; 0x3c
20001032:	3b01      	subs	r3, #1
20001034:	68f9      	ldr	r1, [r7, #12]
20001036:	6c09      	ldr	r1, [r1, #64]	; 0x40
20001038:	fb01 f303 	mul.w	r3, r1, r3
2000103c:	441a      	add	r2, r3
2000103e:	68fb      	ldr	r3, [r7, #12]
20001040:	60da      	str	r2, [r3, #12]
20001042:	68fb      	ldr	r3, [r7, #12]
20001044:	22ff      	movs	r2, #255	; 0xff
20001046:	f883 2044 	strb.w	r2, [r3, #68]	; 0x44
2000104a:	68fb      	ldr	r3, [r7, #12]
2000104c:	22ff      	movs	r2, #255	; 0xff
2000104e:	f883 2045 	strb.w	r2, [r3, #69]	; 0x45
20001052:	683b      	ldr	r3, [r7, #0]
20001054:	2b00      	cmp	r3, #0
20001056:	d114      	bne.n	20001082 <xQueueGenericReset+0xaa>
20001058:	68fb      	ldr	r3, [r7, #12]
2000105a:	691b      	ldr	r3, [r3, #16]
2000105c:	2b00      	cmp	r3, #0
2000105e:	d01a      	beq.n	20001096 <xQueueGenericReset+0xbe>
20001060:	68fb      	ldr	r3, [r7, #12]
20001062:	3310      	adds	r3, #16
20001064:	4618      	mov	r0, r3
20001066:	f001 fa1b 	bl	200024a0 <xTaskRemoveFromEventList>
2000106a:	4603      	mov	r3, r0
2000106c:	2b00      	cmp	r3, #0
2000106e:	d012      	beq.n	20001096 <xQueueGenericReset+0xbe>
20001070:	4b0c      	ldr	r3, [pc, #48]	; (200010a4 <xQueueGenericReset+0xcc>)
20001072:	f04f 5280 	mov.w	r2, #268435456	; 0x10000000
20001076:	601a      	str	r2, [r3, #0]
20001078:	f3bf 8f4f 	dsb	sy
2000107c:	f3bf 8f6f 	isb	sy
20001080:	e009      	b.n	20001096 <xQueueGenericReset+0xbe>
20001082:	68fb      	ldr	r3, [r7, #12]
20001084:	3310      	adds	r3, #16
20001086:	4618      	mov	r0, r3
20001088:	f7ff fef2 	bl	20000e70 <vListInitialise>
2000108c:	68fb      	ldr	r3, [r7, #12]
2000108e:	3324      	adds	r3, #36	; 0x24
20001090:	4618      	mov	r0, r3
20001092:	f7ff feed 	bl	20000e70 <vListInitialise>
20001096:	f002 f94d 	bl	20003334 <vPortExitCritical>
2000109a:	2301      	movs	r3, #1
2000109c:	4618      	mov	r0, r3
2000109e:	3710      	adds	r7, #16
200010a0:	46bd      	mov	sp, r7
200010a2:	bd80      	pop	{r7, pc}
200010a4:	e000ed04 	.word	0xe000ed04

200010a8 <xQueueGenericCreateStatic>:
200010a8:	b580      	push	{r7, lr}
200010aa:	b08e      	sub	sp, #56	; 0x38
200010ac:	af02      	add	r7, sp, #8
200010ae:	60f8      	str	r0, [r7, #12]
200010b0:	60b9      	str	r1, [r7, #8]
200010b2:	607a      	str	r2, [r7, #4]
200010b4:	603b      	str	r3, [r7, #0]
200010b6:	68fb      	ldr	r3, [r7, #12]
200010b8:	2b00      	cmp	r3, #0
200010ba:	d10a      	bne.n	200010d2 <xQueueGenericCreateStatic+0x2a>
200010bc:	f04f 0350 	mov.w	r3, #80	; 0x50
200010c0:	f383 8811 	msr	BASEPRI, r3
200010c4:	f3bf 8f6f 	isb	sy
200010c8:	f3bf 8f4f 	dsb	sy
200010cc:	62bb      	str	r3, [r7, #40]	; 0x28
200010ce:	bf00      	nop
200010d0:	e7fe      	b.n	200010d0 <xQueueGenericCreateStatic+0x28>
200010d2:	683b      	ldr	r3, [r7, #0]
200010d4:	2b00      	cmp	r3, #0
200010d6:	d10a      	bne.n	200010ee <xQueueGenericCreateStatic+0x46>
200010d8:	f04f 0350 	mov.w	r3, #80	; 0x50
200010dc:	f383 8811 	msr	BASEPRI, r3
200010e0:	f3bf 8f6f 	isb	sy
200010e4:	f3bf 8f4f 	dsb	sy
200010e8:	627b      	str	r3, [r7, #36]	; 0x24
200010ea:	bf00      	nop
200010ec:	e7fe      	b.n	200010ec <xQueueGenericCreateStatic+0x44>
200010ee:	687b      	ldr	r3, [r7, #4]
200010f0:	2b00      	cmp	r3, #0
200010f2:	d002      	beq.n	200010fa <xQueueGenericCreateStatic+0x52>
200010f4:	68bb      	ldr	r3, [r7, #8]
200010f6:	2b00      	cmp	r3, #0
200010f8:	d001      	beq.n	200010fe <xQueueGenericCreateStatic+0x56>
200010fa:	2301      	movs	r3, #1
200010fc:	e000      	b.n	20001100 <xQueueGenericCreateStatic+0x58>
200010fe:	2300      	movs	r3, #0
20001100:	2b00      	cmp	r3, #0
20001102:	d10a      	bne.n	2000111a <xQueueGenericCreateStatic+0x72>
20001104:	f04f 0350 	mov.w	r3, #80	; 0x50
20001108:	f383 8811 	msr	BASEPRI, r3
2000110c:	f3bf 8f6f 	isb	sy
20001110:	f3bf 8f4f 	dsb	sy
20001114:	623b      	str	r3, [r7, #32]
20001116:	bf00      	nop
20001118:	e7fe      	b.n	20001118 <xQueueGenericCreateStatic+0x70>
2000111a:	687b      	ldr	r3, [r7, #4]
2000111c:	2b00      	cmp	r3, #0
2000111e:	d102      	bne.n	20001126 <xQueueGenericCreateStatic+0x7e>
20001120:	68bb      	ldr	r3, [r7, #8]
20001122:	2b00      	cmp	r3, #0
20001124:	d101      	bne.n	2000112a <xQueueGenericCreateStatic+0x82>
20001126:	2301      	movs	r3, #1
20001128:	e000      	b.n	2000112c <xQueueGenericCreateStatic+0x84>
2000112a:	2300      	movs	r3, #0
2000112c:	2b00      	cmp	r3, #0
2000112e:	d10a      	bne.n	20001146 <xQueueGenericCreateStatic+0x9e>
20001130:	f04f 0350 	mov.w	r3, #80	; 0x50
20001134:	f383 8811 	msr	BASEPRI, r3
20001138:	f3bf 8f6f 	isb	sy
2000113c:	f3bf 8f4f 	dsb	sy
20001140:	61fb      	str	r3, [r7, #28]
20001142:	bf00      	nop
20001144:	e7fe      	b.n	20001144 <xQueueGenericCreateStatic+0x9c>
20001146:	2350      	movs	r3, #80	; 0x50
20001148:	617b      	str	r3, [r7, #20]
2000114a:	697b      	ldr	r3, [r7, #20]
2000114c:	2b50      	cmp	r3, #80	; 0x50
2000114e:	d00a      	beq.n	20001166 <xQueueGenericCreateStatic+0xbe>
20001150:	f04f 0350 	mov.w	r3, #80	; 0x50
20001154:	f383 8811 	msr	BASEPRI, r3
20001158:	f3bf 8f6f 	isb	sy
2000115c:	f3bf 8f4f 	dsb	sy
20001160:	61bb      	str	r3, [r7, #24]
20001162:	bf00      	nop
20001164:	e7fe      	b.n	20001164 <xQueueGenericCreateStatic+0xbc>
20001166:	697b      	ldr	r3, [r7, #20]
20001168:	683b      	ldr	r3, [r7, #0]
2000116a:	62fb      	str	r3, [r7, #44]	; 0x2c
2000116c:	6afb      	ldr	r3, [r7, #44]	; 0x2c
2000116e:	2b00      	cmp	r3, #0
20001170:	d00d      	beq.n	2000118e <xQueueGenericCreateStatic+0xe6>
20001172:	6afb      	ldr	r3, [r7, #44]	; 0x2c
20001174:	2201      	movs	r2, #1
20001176:	f883 2046 	strb.w	r2, [r3, #70]	; 0x46
2000117a:	f897 2038 	ldrb.w	r2, [r7, #56]	; 0x38
2000117e:	6afb      	ldr	r3, [r7, #44]	; 0x2c
20001180:	9300      	str	r3, [sp, #0]
20001182:	4613      	mov	r3, r2
20001184:	687a      	ldr	r2, [r7, #4]
20001186:	68b9      	ldr	r1, [r7, #8]
20001188:	68f8      	ldr	r0, [r7, #12]
2000118a:	f000 f83f 	bl	2000120c <prvInitialiseNewQueue>
2000118e:	6afb      	ldr	r3, [r7, #44]	; 0x2c
20001190:	4618      	mov	r0, r3
20001192:	3730      	adds	r7, #48	; 0x30
20001194:	46bd      	mov	sp, r7
20001196:	bd80      	pop	{r7, pc}

20001198 <xQueueGenericCreate>:
20001198:	b580      	push	{r7, lr}
2000119a:	b08a      	sub	sp, #40	; 0x28
2000119c:	af02      	add	r7, sp, #8
2000119e:	60f8      	str	r0, [r7, #12]
200011a0:	60b9      	str	r1, [r7, #8]
200011a2:	4613      	mov	r3, r2
200011a4:	71fb      	strb	r3, [r7, #7]
200011a6:	68fb      	ldr	r3, [r7, #12]
200011a8:	2b00      	cmp	r3, #0
200011aa:	d10a      	bne.n	200011c2 <xQueueGenericCreate+0x2a>
200011ac:	f04f 0350 	mov.w	r3, #80	; 0x50
200011b0:	f383 8811 	msr	BASEPRI, r3
200011b4:	f3bf 8f6f 	isb	sy
200011b8:	f3bf 8f4f 	dsb	sy
200011bc:	613b      	str	r3, [r7, #16]
200011be:	bf00      	nop
200011c0:	e7fe      	b.n	200011c0 <xQueueGenericCreate+0x28>
200011c2:	68fb      	ldr	r3, [r7, #12]
200011c4:	68ba      	ldr	r2, [r7, #8]
200011c6:	fb02 f303 	mul.w	r3, r2, r3
200011ca:	61fb      	str	r3, [r7, #28]
200011cc:	69fb      	ldr	r3, [r7, #28]
200011ce:	3350      	adds	r3, #80	; 0x50
200011d0:	4618      	mov	r0, r3
200011d2:	f002 f9a1 	bl	20003518 <pvPortMalloc>
200011d6:	61b8      	str	r0, [r7, #24]
200011d8:	69bb      	ldr	r3, [r7, #24]
200011da:	2b00      	cmp	r3, #0
200011dc:	d011      	beq.n	20001202 <xQueueGenericCreate+0x6a>
200011de:	69bb      	ldr	r3, [r7, #24]
200011e0:	617b      	str	r3, [r7, #20]
200011e2:	697b      	ldr	r3, [r7, #20]
200011e4:	3350      	adds	r3, #80	; 0x50
200011e6:	617b      	str	r3, [r7, #20]
200011e8:	69bb      	ldr	r3, [r7, #24]
200011ea:	2200      	movs	r2, #0
200011ec:	f883 2046 	strb.w	r2, [r3, #70]	; 0x46
200011f0:	79fa      	ldrb	r2, [r7, #7]
200011f2:	69bb      	ldr	r3, [r7, #24]
200011f4:	9300      	str	r3, [sp, #0]
200011f6:	4613      	mov	r3, r2
200011f8:	697a      	ldr	r2, [r7, #20]
200011fa:	68b9      	ldr	r1, [r7, #8]
200011fc:	68f8      	ldr	r0, [r7, #12]
200011fe:	f000 f805 	bl	2000120c <prvInitialiseNewQueue>
20001202:	69bb      	ldr	r3, [r7, #24]
20001204:	4618      	mov	r0, r3
20001206:	3720      	adds	r7, #32
20001208:	46bd      	mov	sp, r7
2000120a:	bd80      	pop	{r7, pc}

2000120c <prvInitialiseNewQueue>:
2000120c:	b580      	push	{r7, lr}
2000120e:	b084      	sub	sp, #16
20001210:	af00      	add	r7, sp, #0
20001212:	60f8      	str	r0, [r7, #12]
20001214:	60b9      	str	r1, [r7, #8]
20001216:	607a      	str	r2, [r7, #4]
20001218:	70fb      	strb	r3, [r7, #3]
2000121a:	68bb      	ldr	r3, [r7, #8]
2000121c:	2b00      	cmp	r3, #0
2000121e:	d103      	bne.n	20001228 <prvInitialiseNewQueue+0x1c>
20001220:	69bb      	ldr	r3, [r7, #24]
20001222:	69ba      	ldr	r2, [r7, #24]
20001224:	601a      	str	r2, [r3, #0]
20001226:	e002      	b.n	2000122e <prvInitialiseNewQueue+0x22>
20001228:	69bb      	ldr	r3, [r7, #24]
2000122a:	687a      	ldr	r2, [r7, #4]
2000122c:	601a      	str	r2, [r3, #0]
2000122e:	69bb      	ldr	r3, [r7, #24]
20001230:	68fa      	ldr	r2, [r7, #12]
20001232:	63da      	str	r2, [r3, #60]	; 0x3c
20001234:	69bb      	ldr	r3, [r7, #24]
20001236:	68ba      	ldr	r2, [r7, #8]
20001238:	641a      	str	r2, [r3, #64]	; 0x40
2000123a:	2101      	movs	r1, #1
2000123c:	69b8      	ldr	r0, [r7, #24]
2000123e:	f7ff fecb 	bl	20000fd8 <xQueueGenericReset>
20001242:	69bb      	ldr	r3, [r7, #24]
20001244:	78fa      	ldrb	r2, [r7, #3]
20001246:	f883 204c 	strb.w	r2, [r3, #76]	; 0x4c
2000124a:	bf00      	nop
2000124c:	3710      	adds	r7, #16
2000124e:	46bd      	mov	sp, r7
20001250:	bd80      	pop	{r7, pc}

20001252 <xQueueCreateCountingSemaphoreStatic>:
20001252:	b580      	push	{r7, lr}
20001254:	b08a      	sub	sp, #40	; 0x28
20001256:	af02      	add	r7, sp, #8
20001258:	60f8      	str	r0, [r7, #12]
2000125a:	60b9      	str	r1, [r7, #8]
2000125c:	607a      	str	r2, [r7, #4]
2000125e:	68fb      	ldr	r3, [r7, #12]
20001260:	2b00      	cmp	r3, #0
20001262:	d10a      	bne.n	2000127a <xQueueCreateCountingSemaphoreStatic+0x28>
20001264:	f04f 0350 	mov.w	r3, #80	; 0x50
20001268:	f383 8811 	msr	BASEPRI, r3
2000126c:	f3bf 8f6f 	isb	sy
20001270:	f3bf 8f4f 	dsb	sy
20001274:	61bb      	str	r3, [r7, #24]
20001276:	bf00      	nop
20001278:	e7fe      	b.n	20001278 <xQueueCreateCountingSemaphoreStatic+0x26>
2000127a:	68ba      	ldr	r2, [r7, #8]
2000127c:	68fb      	ldr	r3, [r7, #12]
2000127e:	429a      	cmp	r2, r3
20001280:	d90a      	bls.n	20001298 <xQueueCreateCountingSemaphoreStatic+0x46>
20001282:	f04f 0350 	mov.w	r3, #80	; 0x50
20001286:	f383 8811 	msr	BASEPRI, r3
2000128a:	f3bf 8f6f 	isb	sy
2000128e:	f3bf 8f4f 	dsb	sy
20001292:	617b      	str	r3, [r7, #20]
20001294:	bf00      	nop
20001296:	e7fe      	b.n	20001296 <xQueueCreateCountingSemaphoreStatic+0x44>
20001298:	2302      	movs	r3, #2
2000129a:	9300      	str	r3, [sp, #0]
2000129c:	687b      	ldr	r3, [r7, #4]
2000129e:	2200      	movs	r2, #0
200012a0:	2100      	movs	r1, #0
200012a2:	68f8      	ldr	r0, [r7, #12]
200012a4:	f7ff ff00 	bl	200010a8 <xQueueGenericCreateStatic>
200012a8:	61f8      	str	r0, [r7, #28]
200012aa:	69fb      	ldr	r3, [r7, #28]
200012ac:	2b00      	cmp	r3, #0
200012ae:	d002      	beq.n	200012b6 <xQueueCreateCountingSemaphoreStatic+0x64>
200012b0:	69fb      	ldr	r3, [r7, #28]
200012b2:	68ba      	ldr	r2, [r7, #8]
200012b4:	639a      	str	r2, [r3, #56]	; 0x38
200012b6:	69fb      	ldr	r3, [r7, #28]
200012b8:	4618      	mov	r0, r3
200012ba:	3720      	adds	r7, #32
200012bc:	46bd      	mov	sp, r7
200012be:	bd80      	pop	{r7, pc}

200012c0 <xQueueCreateCountingSemaphore>:
200012c0:	b580      	push	{r7, lr}
200012c2:	b086      	sub	sp, #24
200012c4:	af00      	add	r7, sp, #0
200012c6:	6078      	str	r0, [r7, #4]
200012c8:	6039      	str	r1, [r7, #0]
200012ca:	687b      	ldr	r3, [r7, #4]
200012cc:	2b00      	cmp	r3, #0
200012ce:	d10a      	bne.n	200012e6 <xQueueCreateCountingSemaphore+0x26>
200012d0:	f04f 0350 	mov.w	r3, #80	; 0x50
200012d4:	f383 8811 	msr	BASEPRI, r3
200012d8:	f3bf 8f6f 	isb	sy
200012dc:	f3bf 8f4f 	dsb	sy
200012e0:	613b      	str	r3, [r7, #16]
200012e2:	bf00      	nop
200012e4:	e7fe      	b.n	200012e4 <xQueueCreateCountingSemaphore+0x24>
200012e6:	683a      	ldr	r2, [r7, #0]
200012e8:	687b      	ldr	r3, [r7, #4]
200012ea:	429a      	cmp	r2, r3
200012ec:	d90a      	bls.n	20001304 <xQueueCreateCountingSemaphore+0x44>
200012ee:	f04f 0350 	mov.w	r3, #80	; 0x50
200012f2:	f383 8811 	msr	BASEPRI, r3
200012f6:	f3bf 8f6f 	isb	sy
200012fa:	f3bf 8f4f 	dsb	sy
200012fe:	60fb      	str	r3, [r7, #12]
20001300:	bf00      	nop
20001302:	e7fe      	b.n	20001302 <xQueueCreateCountingSemaphore+0x42>
20001304:	2202      	movs	r2, #2
20001306:	2100      	movs	r1, #0
20001308:	6878      	ldr	r0, [r7, #4]
2000130a:	f7ff ff45 	bl	20001198 <xQueueGenericCreate>
2000130e:	6178      	str	r0, [r7, #20]
20001310:	697b      	ldr	r3, [r7, #20]
20001312:	2b00      	cmp	r3, #0
20001314:	d002      	beq.n	2000131c <xQueueCreateCountingSemaphore+0x5c>
20001316:	697b      	ldr	r3, [r7, #20]
20001318:	683a      	ldr	r2, [r7, #0]
2000131a:	639a      	str	r2, [r3, #56]	; 0x38
2000131c:	697b      	ldr	r3, [r7, #20]
2000131e:	4618      	mov	r0, r3
20001320:	3718      	adds	r7, #24
20001322:	46bd      	mov	sp, r7
20001324:	bd80      	pop	{r7, pc}
	...

20001328 <xQueueGenericSend>:
20001328:	b580      	push	{r7, lr}
2000132a:	b08e      	sub	sp, #56	; 0x38
2000132c:	af00      	add	r7, sp, #0
2000132e:	60f8      	str	r0, [r7, #12]
20001330:	60b9      	str	r1, [r7, #8]
20001332:	607a      	str	r2, [r7, #4]
20001334:	603b      	str	r3, [r7, #0]
20001336:	2300      	movs	r3, #0
20001338:	637b      	str	r3, [r7, #52]	; 0x34
2000133a:	68fb      	ldr	r3, [r7, #12]
2000133c:	633b      	str	r3, [r7, #48]	; 0x30
2000133e:	6b3b      	ldr	r3, [r7, #48]	; 0x30
20001340:	2b00      	cmp	r3, #0
20001342:	d10a      	bne.n	2000135a <xQueueGenericSend+0x32>
20001344:	f04f 0350 	mov.w	r3, #80	; 0x50
20001348:	f383 8811 	msr	BASEPRI, r3
2000134c:	f3bf 8f6f 	isb	sy
20001350:	f3bf 8f4f 	dsb	sy
20001354:	62bb      	str	r3, [r7, #40]	; 0x28
20001356:	bf00      	nop
20001358:	e7fe      	b.n	20001358 <xQueueGenericSend+0x30>
2000135a:	68bb      	ldr	r3, [r7, #8]
2000135c:	2b00      	cmp	r3, #0
2000135e:	d103      	bne.n	20001368 <xQueueGenericSend+0x40>
20001360:	6b3b      	ldr	r3, [r7, #48]	; 0x30
20001362:	6c1b      	ldr	r3, [r3, #64]	; 0x40
20001364:	2b00      	cmp	r3, #0
20001366:	d101      	bne.n	2000136c <xQueueGenericSend+0x44>
20001368:	2301      	movs	r3, #1
2000136a:	e000      	b.n	2000136e <xQueueGenericSend+0x46>
2000136c:	2300      	movs	r3, #0
2000136e:	2b00      	cmp	r3, #0
20001370:	d10a      	bne.n	20001388 <xQueueGenericSend+0x60>
20001372:	f04f 0350 	mov.w	r3, #80	; 0x50
20001376:	f383 8811 	msr	BASEPRI, r3
2000137a:	f3bf 8f6f 	isb	sy
2000137e:	f3bf 8f4f 	dsb	sy
20001382:	627b      	str	r3, [r7, #36]	; 0x24
20001384:	bf00      	nop
20001386:	e7fe      	b.n	20001386 <xQueueGenericSend+0x5e>
20001388:	683b      	ldr	r3, [r7, #0]
2000138a:	2b02      	cmp	r3, #2
2000138c:	d103      	bne.n	20001396 <xQueueGenericSend+0x6e>
2000138e:	6b3b      	ldr	r3, [r7, #48]	; 0x30
20001390:	6bdb      	ldr	r3, [r3, #60]	; 0x3c
20001392:	2b01      	cmp	r3, #1
20001394:	d101      	bne.n	2000139a <xQueueGenericSend+0x72>
20001396:	2301      	movs	r3, #1
20001398:	e000      	b.n	2000139c <xQueueGenericSend+0x74>
2000139a:	2300      	movs	r3, #0
2000139c:	2b00      	cmp	r3, #0
2000139e:	d10a      	bne.n	200013b6 <xQueueGenericSend+0x8e>
200013a0:	f04f 0350 	mov.w	r3, #80	; 0x50
200013a4:	f383 8811 	msr	BASEPRI, r3
200013a8:	f3bf 8f6f 	isb	sy
200013ac:	f3bf 8f4f 	dsb	sy
200013b0:	623b      	str	r3, [r7, #32]
200013b2:	bf00      	nop
200013b4:	e7fe      	b.n	200013b4 <xQueueGenericSend+0x8c>
200013b6:	f001 fa35 	bl	20002824 <xTaskGetSchedulerState>
200013ba:	4603      	mov	r3, r0
200013bc:	2b00      	cmp	r3, #0
200013be:	d102      	bne.n	200013c6 <xQueueGenericSend+0x9e>
200013c0:	687b      	ldr	r3, [r7, #4]
200013c2:	2b00      	cmp	r3, #0
200013c4:	d101      	bne.n	200013ca <xQueueGenericSend+0xa2>
200013c6:	2301      	movs	r3, #1
200013c8:	e000      	b.n	200013cc <xQueueGenericSend+0xa4>
200013ca:	2300      	movs	r3, #0
200013cc:	2b00      	cmp	r3, #0
200013ce:	d10a      	bne.n	200013e6 <xQueueGenericSend+0xbe>
200013d0:	f04f 0350 	mov.w	r3, #80	; 0x50
200013d4:	f383 8811 	msr	BASEPRI, r3
200013d8:	f3bf 8f6f 	isb	sy
200013dc:	f3bf 8f4f 	dsb	sy
200013e0:	61fb      	str	r3, [r7, #28]
200013e2:	bf00      	nop
200013e4:	e7fe      	b.n	200013e4 <xQueueGenericSend+0xbc>
200013e6:	f001 ff75 	bl	200032d4 <vPortEnterCritical>
200013ea:	6b3b      	ldr	r3, [r7, #48]	; 0x30
200013ec:	6b9a      	ldr	r2, [r3, #56]	; 0x38
200013ee:	6b3b      	ldr	r3, [r7, #48]	; 0x30
200013f0:	6bdb      	ldr	r3, [r3, #60]	; 0x3c
200013f2:	429a      	cmp	r2, r3
200013f4:	d302      	bcc.n	200013fc <xQueueGenericSend+0xd4>
200013f6:	683b      	ldr	r3, [r7, #0]
200013f8:	2b02      	cmp	r3, #2
200013fa:	d129      	bne.n	20001450 <xQueueGenericSend+0x128>
200013fc:	683a      	ldr	r2, [r7, #0]
200013fe:	68b9      	ldr	r1, [r7, #8]
20001400:	6b38      	ldr	r0, [r7, #48]	; 0x30
20001402:	f000 fa2e 	bl	20001862 <prvCopyDataToQueue>
20001406:	62f8      	str	r0, [r7, #44]	; 0x2c
20001408:	6b3b      	ldr	r3, [r7, #48]	; 0x30
2000140a:	6a5b      	ldr	r3, [r3, #36]	; 0x24
2000140c:	2b00      	cmp	r3, #0
2000140e:	d010      	beq.n	20001432 <xQueueGenericSend+0x10a>
20001410:	6b3b      	ldr	r3, [r7, #48]	; 0x30
20001412:	3324      	adds	r3, #36	; 0x24
20001414:	4618      	mov	r0, r3
20001416:	f001 f843 	bl	200024a0 <xTaskRemoveFromEventList>
2000141a:	4603      	mov	r3, r0
2000141c:	2b00      	cmp	r3, #0
2000141e:	d013      	beq.n	20001448 <xQueueGenericSend+0x120>
20001420:	4b3f      	ldr	r3, [pc, #252]	; (20001520 <xQueueGenericSend+0x1f8>)
20001422:	f04f 5280 	mov.w	r2, #268435456	; 0x10000000
20001426:	601a      	str	r2, [r3, #0]
20001428:	f3bf 8f4f 	dsb	sy
2000142c:	f3bf 8f6f 	isb	sy
20001430:	e00a      	b.n	20001448 <xQueueGenericSend+0x120>
20001432:	6afb      	ldr	r3, [r7, #44]	; 0x2c
20001434:	2b00      	cmp	r3, #0
20001436:	d007      	beq.n	20001448 <xQueueGenericSend+0x120>
20001438:	4b39      	ldr	r3, [pc, #228]	; (20001520 <xQueueGenericSend+0x1f8>)
2000143a:	f04f 5280 	mov.w	r2, #268435456	; 0x10000000
2000143e:	601a      	str	r2, [r3, #0]
20001440:	f3bf 8f4f 	dsb	sy
20001444:	f3bf 8f6f 	isb	sy
20001448:	f001 ff74 	bl	20003334 <vPortExitCritical>
2000144c:	2301      	movs	r3, #1
2000144e:	e063      	b.n	20001518 <xQueueGenericSend+0x1f0>
20001450:	687b      	ldr	r3, [r7, #4]
20001452:	2b00      	cmp	r3, #0
20001454:	d103      	bne.n	2000145e <xQueueGenericSend+0x136>
20001456:	f001 ff6d 	bl	20003334 <vPortExitCritical>
2000145a:	2300      	movs	r3, #0
2000145c:	e05c      	b.n	20001518 <xQueueGenericSend+0x1f0>
2000145e:	6b7b      	ldr	r3, [r7, #52]	; 0x34
20001460:	2b00      	cmp	r3, #0
20001462:	d106      	bne.n	20001472 <xQueueGenericSend+0x14a>
20001464:	f107 0314 	add.w	r3, r7, #20
20001468:	4618      	mov	r0, r3
2000146a:	f001 f87d 	bl	20002568 <vTaskInternalSetTimeOutState>
2000146e:	2301      	movs	r3, #1
20001470:	637b      	str	r3, [r7, #52]	; 0x34
20001472:	f001 ff5f 	bl	20003334 <vPortExitCritical>
20001476:	f000 fde9 	bl	2000204c <vTaskSuspendAll>
2000147a:	f001 ff2b 	bl	200032d4 <vPortEnterCritical>
2000147e:	6b3b      	ldr	r3, [r7, #48]	; 0x30
20001480:	f893 3044 	ldrb.w	r3, [r3, #68]	; 0x44
20001484:	b25b      	sxtb	r3, r3
20001486:	f1b3 3fff 	cmp.w	r3, #4294967295
2000148a:	d103      	bne.n	20001494 <xQueueGenericSend+0x16c>
2000148c:	6b3b      	ldr	r3, [r7, #48]	; 0x30
2000148e:	2200      	movs	r2, #0
20001490:	f883 2044 	strb.w	r2, [r3, #68]	; 0x44
20001494:	6b3b      	ldr	r3, [r7, #48]	; 0x30
20001496:	f893 3045 	ldrb.w	r3, [r3, #69]	; 0x45
2000149a:	b25b      	sxtb	r3, r3
2000149c:	f1b3 3fff 	cmp.w	r3, #4294967295
200014a0:	d103      	bne.n	200014aa <xQueueGenericSend+0x182>
200014a2:	6b3b      	ldr	r3, [r7, #48]	; 0x30
200014a4:	2200      	movs	r2, #0
200014a6:	f883 2045 	strb.w	r2, [r3, #69]	; 0x45
200014aa:	f001 ff43 	bl	20003334 <vPortExitCritical>
200014ae:	1d3a      	adds	r2, r7, #4
200014b0:	f107 0314 	add.w	r3, r7, #20
200014b4:	4611      	mov	r1, r2
200014b6:	4618      	mov	r0, r3
200014b8:	f001 f86c 	bl	20002594 <xTaskCheckForTimeOut>
200014bc:	4603      	mov	r3, r0
200014be:	2b00      	cmp	r3, #0
200014c0:	d124      	bne.n	2000150c <xQueueGenericSend+0x1e4>
200014c2:	6b38      	ldr	r0, [r7, #48]	; 0x30
200014c4:	f000 fac5 	bl	20001a52 <prvIsQueueFull>
200014c8:	4603      	mov	r3, r0
200014ca:	2b00      	cmp	r3, #0
200014cc:	d018      	beq.n	20001500 <xQueueGenericSend+0x1d8>
200014ce:	6b3b      	ldr	r3, [r7, #48]	; 0x30
200014d0:	3310      	adds	r3, #16
200014d2:	687a      	ldr	r2, [r7, #4]
200014d4:	4611      	mov	r1, r2
200014d6:	4618      	mov	r0, r3
200014d8:	f000 ff92 	bl	20002400 <vTaskPlaceOnEventList>
200014dc:	6b38      	ldr	r0, [r7, #48]	; 0x30
200014de:	f000 fa50 	bl	20001982 <prvUnlockQueue>
200014e2:	f000 fdc1 	bl	20002068 <xTaskResumeAll>
200014e6:	4603      	mov	r3, r0
200014e8:	2b00      	cmp	r3, #0
200014ea:	f47f af7c 	bne.w	200013e6 <xQueueGenericSend+0xbe>
200014ee:	4b0c      	ldr	r3, [pc, #48]	; (20001520 <xQueueGenericSend+0x1f8>)
200014f0:	f04f 5280 	mov.w	r2, #268435456	; 0x10000000
200014f4:	601a      	str	r2, [r3, #0]
200014f6:	f3bf 8f4f 	dsb	sy
200014fa:	f3bf 8f6f 	isb	sy
200014fe:	e772      	b.n	200013e6 <xQueueGenericSend+0xbe>
20001500:	6b38      	ldr	r0, [r7, #48]	; 0x30
20001502:	f000 fa3e 	bl	20001982 <prvUnlockQueue>
20001506:	f000 fdaf 	bl	20002068 <xTaskResumeAll>
2000150a:	e76c      	b.n	200013e6 <xQueueGenericSend+0xbe>
2000150c:	6b38      	ldr	r0, [r7, #48]	; 0x30
2000150e:	f000 fa38 	bl	20001982 <prvUnlockQueue>
20001512:	f000 fda9 	bl	20002068 <xTaskResumeAll>
20001516:	2300      	movs	r3, #0
20001518:	4618      	mov	r0, r3
2000151a:	3738      	adds	r7, #56	; 0x38
2000151c:	46bd      	mov	sp, r7
2000151e:	bd80      	pop	{r7, pc}
20001520:	e000ed04 	.word	0xe000ed04

20001524 <xQueueGenericSendFromISR>:
20001524:	b580      	push	{r7, lr}
20001526:	b090      	sub	sp, #64	; 0x40
20001528:	af00      	add	r7, sp, #0
2000152a:	60f8      	str	r0, [r7, #12]
2000152c:	60b9      	str	r1, [r7, #8]
2000152e:	607a      	str	r2, [r7, #4]
20001530:	603b      	str	r3, [r7, #0]
20001532:	68fb      	ldr	r3, [r7, #12]
20001534:	63bb      	str	r3, [r7, #56]	; 0x38
20001536:	6bbb      	ldr	r3, [r7, #56]	; 0x38
20001538:	2b00      	cmp	r3, #0
2000153a:	d10a      	bne.n	20001552 <xQueueGenericSendFromISR+0x2e>
2000153c:	f04f 0350 	mov.w	r3, #80	; 0x50
20001540:	f383 8811 	msr	BASEPRI, r3
20001544:	f3bf 8f6f 	isb	sy
20001548:	f3bf 8f4f 	dsb	sy
2000154c:	62bb      	str	r3, [r7, #40]	; 0x28
2000154e:	bf00      	nop
20001550:	e7fe      	b.n	20001550 <xQueueGenericSendFromISR+0x2c>
20001552:	68bb      	ldr	r3, [r7, #8]
20001554:	2b00      	cmp	r3, #0
20001556:	d103      	bne.n	20001560 <xQueueGenericSendFromISR+0x3c>
20001558:	6bbb      	ldr	r3, [r7, #56]	; 0x38
2000155a:	6c1b      	ldr	r3, [r3, #64]	; 0x40
2000155c:	2b00      	cmp	r3, #0
2000155e:	d101      	bne.n	20001564 <xQueueGenericSendFromISR+0x40>
20001560:	2301      	movs	r3, #1
20001562:	e000      	b.n	20001566 <xQueueGenericSendFromISR+0x42>
20001564:	2300      	movs	r3, #0
20001566:	2b00      	cmp	r3, #0
20001568:	d10a      	bne.n	20001580 <xQueueGenericSendFromISR+0x5c>
2000156a:	f04f 0350 	mov.w	r3, #80	; 0x50
2000156e:	f383 8811 	msr	BASEPRI, r3
20001572:	f3bf 8f6f 	isb	sy
20001576:	f3bf 8f4f 	dsb	sy
2000157a:	627b      	str	r3, [r7, #36]	; 0x24
2000157c:	bf00      	nop
2000157e:	e7fe      	b.n	2000157e <xQueueGenericSendFromISR+0x5a>
20001580:	683b      	ldr	r3, [r7, #0]
20001582:	2b02      	cmp	r3, #2
20001584:	d103      	bne.n	2000158e <xQueueGenericSendFromISR+0x6a>
20001586:	6bbb      	ldr	r3, [r7, #56]	; 0x38
20001588:	6bdb      	ldr	r3, [r3, #60]	; 0x3c
2000158a:	2b01      	cmp	r3, #1
2000158c:	d101      	bne.n	20001592 <xQueueGenericSendFromISR+0x6e>
2000158e:	2301      	movs	r3, #1
20001590:	e000      	b.n	20001594 <xQueueGenericSendFromISR+0x70>
20001592:	2300      	movs	r3, #0
20001594:	2b00      	cmp	r3, #0
20001596:	d10a      	bne.n	200015ae <xQueueGenericSendFromISR+0x8a>
20001598:	f04f 0350 	mov.w	r3, #80	; 0x50
2000159c:	f383 8811 	msr	BASEPRI, r3
200015a0:	f3bf 8f6f 	isb	sy
200015a4:	f3bf 8f4f 	dsb	sy
200015a8:	623b      	str	r3, [r7, #32]
200015aa:	bf00      	nop
200015ac:	e7fe      	b.n	200015ac <xQueueGenericSendFromISR+0x88>
200015ae:	f001 ff73 	bl	20003498 <vPortValidateInterruptPriority>
200015b2:	f3ef 8211 	mrs	r2, BASEPRI
200015b6:	f04f 0350 	mov.w	r3, #80	; 0x50
200015ba:	f383 8811 	msr	BASEPRI, r3
200015be:	f3bf 8f6f 	isb	sy
200015c2:	f3bf 8f4f 	dsb	sy
200015c6:	61fa      	str	r2, [r7, #28]
200015c8:	61bb      	str	r3, [r7, #24]
200015ca:	69fb      	ldr	r3, [r7, #28]
200015cc:	637b      	str	r3, [r7, #52]	; 0x34
200015ce:	6bbb      	ldr	r3, [r7, #56]	; 0x38
200015d0:	6b9a      	ldr	r2, [r3, #56]	; 0x38
200015d2:	6bbb      	ldr	r3, [r7, #56]	; 0x38
200015d4:	6bdb      	ldr	r3, [r3, #60]	; 0x3c
200015d6:	429a      	cmp	r2, r3
200015d8:	d302      	bcc.n	200015e0 <xQueueGenericSendFromISR+0xbc>
200015da:	683b      	ldr	r3, [r7, #0]
200015dc:	2b02      	cmp	r3, #2
200015de:	d12f      	bne.n	20001640 <xQueueGenericSendFromISR+0x11c>
200015e0:	6bbb      	ldr	r3, [r7, #56]	; 0x38
200015e2:	f893 3045 	ldrb.w	r3, [r3, #69]	; 0x45
200015e6:	f887 3033 	strb.w	r3, [r7, #51]	; 0x33
200015ea:	6bbb      	ldr	r3, [r7, #56]	; 0x38
200015ec:	6b9b      	ldr	r3, [r3, #56]	; 0x38
200015ee:	62fb      	str	r3, [r7, #44]	; 0x2c
200015f0:	683a      	ldr	r2, [r7, #0]
200015f2:	68b9      	ldr	r1, [r7, #8]
200015f4:	6bb8      	ldr	r0, [r7, #56]	; 0x38
200015f6:	f000 f934 	bl	20001862 <prvCopyDataToQueue>
200015fa:	f997 3033 	ldrsb.w	r3, [r7, #51]	; 0x33
200015fe:	f1b3 3fff 	cmp.w	r3, #4294967295
20001602:	d112      	bne.n	2000162a <xQueueGenericSendFromISR+0x106>
20001604:	6bbb      	ldr	r3, [r7, #56]	; 0x38
20001606:	6a5b      	ldr	r3, [r3, #36]	; 0x24
20001608:	2b00      	cmp	r3, #0
2000160a:	d016      	beq.n	2000163a <xQueueGenericSendFromISR+0x116>
2000160c:	6bbb      	ldr	r3, [r7, #56]	; 0x38
2000160e:	3324      	adds	r3, #36	; 0x24
20001610:	4618      	mov	r0, r3
20001612:	f000 ff45 	bl	200024a0 <xTaskRemoveFromEventList>
20001616:	4603      	mov	r3, r0
20001618:	2b00      	cmp	r3, #0
2000161a:	d00e      	beq.n	2000163a <xQueueGenericSendFromISR+0x116>
2000161c:	687b      	ldr	r3, [r7, #4]
2000161e:	2b00      	cmp	r3, #0
20001620:	d00b      	beq.n	2000163a <xQueueGenericSendFromISR+0x116>
20001622:	687b      	ldr	r3, [r7, #4]
20001624:	2201      	movs	r2, #1
20001626:	601a      	str	r2, [r3, #0]
20001628:	e007      	b.n	2000163a <xQueueGenericSendFromISR+0x116>
2000162a:	f897 3033 	ldrb.w	r3, [r7, #51]	; 0x33
2000162e:	3301      	adds	r3, #1
20001630:	b2db      	uxtb	r3, r3
20001632:	b25a      	sxtb	r2, r3
20001634:	6bbb      	ldr	r3, [r7, #56]	; 0x38
20001636:	f883 2045 	strb.w	r2, [r3, #69]	; 0x45
2000163a:	2301      	movs	r3, #1
2000163c:	63fb      	str	r3, [r7, #60]	; 0x3c
2000163e:	e001      	b.n	20001644 <xQueueGenericSendFromISR+0x120>
20001640:	2300      	movs	r3, #0
20001642:	63fb      	str	r3, [r7, #60]	; 0x3c
20001644:	6b7b      	ldr	r3, [r7, #52]	; 0x34
20001646:	617b      	str	r3, [r7, #20]
20001648:	697b      	ldr	r3, [r7, #20]
2000164a:	f383 8811 	msr	BASEPRI, r3
2000164e:	bf00      	nop
20001650:	6bfb      	ldr	r3, [r7, #60]	; 0x3c
20001652:	4618      	mov	r0, r3
20001654:	3740      	adds	r7, #64	; 0x40
20001656:	46bd      	mov	sp, r7
20001658:	bd80      	pop	{r7, pc}
	...

2000165c <xQueueReceive>:
2000165c:	b580      	push	{r7, lr}
2000165e:	b08c      	sub	sp, #48	; 0x30
20001660:	af00      	add	r7, sp, #0
20001662:	60f8      	str	r0, [r7, #12]
20001664:	60b9      	str	r1, [r7, #8]
20001666:	607a      	str	r2, [r7, #4]
20001668:	2300      	movs	r3, #0
2000166a:	62fb      	str	r3, [r7, #44]	; 0x2c
2000166c:	68fb      	ldr	r3, [r7, #12]
2000166e:	62bb      	str	r3, [r7, #40]	; 0x28
20001670:	6abb      	ldr	r3, [r7, #40]	; 0x28
20001672:	2b00      	cmp	r3, #0
20001674:	d10a      	bne.n	2000168c <xQueueReceive+0x30>
20001676:	f04f 0350 	mov.w	r3, #80	; 0x50
2000167a:	f383 8811 	msr	BASEPRI, r3
2000167e:	f3bf 8f6f 	isb	sy
20001682:	f3bf 8f4f 	dsb	sy
20001686:	623b      	str	r3, [r7, #32]
20001688:	bf00      	nop
2000168a:	e7fe      	b.n	2000168a <xQueueReceive+0x2e>
2000168c:	68bb      	ldr	r3, [r7, #8]
2000168e:	2b00      	cmp	r3, #0
20001690:	d103      	bne.n	2000169a <xQueueReceive+0x3e>
20001692:	6abb      	ldr	r3, [r7, #40]	; 0x28
20001694:	6c1b      	ldr	r3, [r3, #64]	; 0x40
20001696:	2b00      	cmp	r3, #0
20001698:	d101      	bne.n	2000169e <xQueueReceive+0x42>
2000169a:	2301      	movs	r3, #1
2000169c:	e000      	b.n	200016a0 <xQueueReceive+0x44>
2000169e:	2300      	movs	r3, #0
200016a0:	2b00      	cmp	r3, #0
200016a2:	d10a      	bne.n	200016ba <xQueueReceive+0x5e>
200016a4:	f04f 0350 	mov.w	r3, #80	; 0x50
200016a8:	f383 8811 	msr	BASEPRI, r3
200016ac:	f3bf 8f6f 	isb	sy
200016b0:	f3bf 8f4f 	dsb	sy
200016b4:	61fb      	str	r3, [r7, #28]
200016b6:	bf00      	nop
200016b8:	e7fe      	b.n	200016b8 <xQueueReceive+0x5c>
200016ba:	f001 f8b3 	bl	20002824 <xTaskGetSchedulerState>
200016be:	4603      	mov	r3, r0
200016c0:	2b00      	cmp	r3, #0
200016c2:	d102      	bne.n	200016ca <xQueueReceive+0x6e>
200016c4:	687b      	ldr	r3, [r7, #4]
200016c6:	2b00      	cmp	r3, #0
200016c8:	d101      	bne.n	200016ce <xQueueReceive+0x72>
200016ca:	2301      	movs	r3, #1
200016cc:	e000      	b.n	200016d0 <xQueueReceive+0x74>
200016ce:	2300      	movs	r3, #0
200016d0:	2b00      	cmp	r3, #0
200016d2:	d10a      	bne.n	200016ea <xQueueReceive+0x8e>
200016d4:	f04f 0350 	mov.w	r3, #80	; 0x50
200016d8:	f383 8811 	msr	BASEPRI, r3
200016dc:	f3bf 8f6f 	isb	sy
200016e0:	f3bf 8f4f 	dsb	sy
200016e4:	61bb      	str	r3, [r7, #24]
200016e6:	bf00      	nop
200016e8:	e7fe      	b.n	200016e8 <xQueueReceive+0x8c>
200016ea:	f001 fdf3 	bl	200032d4 <vPortEnterCritical>
200016ee:	6abb      	ldr	r3, [r7, #40]	; 0x28
200016f0:	6b9b      	ldr	r3, [r3, #56]	; 0x38
200016f2:	627b      	str	r3, [r7, #36]	; 0x24
200016f4:	6a7b      	ldr	r3, [r7, #36]	; 0x24
200016f6:	2b00      	cmp	r3, #0
200016f8:	d01f      	beq.n	2000173a <xQueueReceive+0xde>
200016fa:	68b9      	ldr	r1, [r7, #8]
200016fc:	6ab8      	ldr	r0, [r7, #40]	; 0x28
200016fe:	f000 f91a 	bl	20001936 <prvCopyDataFromQueue>
20001702:	6a7b      	ldr	r3, [r7, #36]	; 0x24
20001704:	1e5a      	subs	r2, r3, #1
20001706:	6abb      	ldr	r3, [r7, #40]	; 0x28
20001708:	639a      	str	r2, [r3, #56]	; 0x38
2000170a:	6abb      	ldr	r3, [r7, #40]	; 0x28
2000170c:	691b      	ldr	r3, [r3, #16]
2000170e:	2b00      	cmp	r3, #0
20001710:	d00f      	beq.n	20001732 <xQueueReceive+0xd6>
20001712:	6abb      	ldr	r3, [r7, #40]	; 0x28
20001714:	3310      	adds	r3, #16
20001716:	4618      	mov	r0, r3
20001718:	f000 fec2 	bl	200024a0 <xTaskRemoveFromEventList>
2000171c:	4603      	mov	r3, r0
2000171e:	2b00      	cmp	r3, #0
20001720:	d007      	beq.n	20001732 <xQueueReceive+0xd6>
20001722:	4b3d      	ldr	r3, [pc, #244]	; (20001818 <xQueueReceive+0x1bc>)
20001724:	f04f 5280 	mov.w	r2, #268435456	; 0x10000000
20001728:	601a      	str	r2, [r3, #0]
2000172a:	f3bf 8f4f 	dsb	sy
2000172e:	f3bf 8f6f 	isb	sy
20001732:	f001 fdff 	bl	20003334 <vPortExitCritical>
20001736:	2301      	movs	r3, #1
20001738:	e069      	b.n	2000180e <xQueueReceive+0x1b2>
2000173a:	687b      	ldr	r3, [r7, #4]
2000173c:	2b00      	cmp	r3, #0
2000173e:	d103      	bne.n	20001748 <xQueueReceive+0xec>
20001740:	f001 fdf8 	bl	20003334 <vPortExitCritical>
20001744:	2300      	movs	r3, #0
20001746:	e062      	b.n	2000180e <xQueueReceive+0x1b2>
20001748:	6afb      	ldr	r3, [r7, #44]	; 0x2c
2000174a:	2b00      	cmp	r3, #0
2000174c:	d106      	bne.n	2000175c <xQueueReceive+0x100>
2000174e:	f107 0310 	add.w	r3, r7, #16
20001752:	4618      	mov	r0, r3
20001754:	f000 ff08 	bl	20002568 <vTaskInternalSetTimeOutState>
20001758:	2301      	movs	r3, #1
2000175a:	62fb      	str	r3, [r7, #44]	; 0x2c
2000175c:	f001 fdea 	bl	20003334 <vPortExitCritical>
20001760:	f000 fc74 	bl	2000204c <vTaskSuspendAll>
20001764:	f001 fdb6 	bl	200032d4 <vPortEnterCritical>
20001768:	6abb      	ldr	r3, [r7, #40]	; 0x28
2000176a:	f893 3044 	ldrb.w	r3, [r3, #68]	; 0x44
2000176e:	b25b      	sxtb	r3, r3
20001770:	f1b3 3fff 	cmp.w	r3, #4294967295
20001774:	d103      	bne.n	2000177e <xQueueReceive+0x122>
20001776:	6abb      	ldr	r3, [r7, #40]	; 0x28
20001778:	2200      	movs	r2, #0
2000177a:	f883 2044 	strb.w	r2, [r3, #68]	; 0x44
2000177e:	6abb      	ldr	r3, [r7, #40]	; 0x28
20001780:	f893 3045 	ldrb.w	r3, [r3, #69]	; 0x45
20001784:	b25b      	sxtb	r3, r3
20001786:	f1b3 3fff 	cmp.w	r3, #4294967295
2000178a:	d103      	bne.n	20001794 <xQueueReceive+0x138>
2000178c:	6abb      	ldr	r3, [r7, #40]	; 0x28
2000178e:	2200      	movs	r2, #0
20001790:	f883 2045 	strb.w	r2, [r3, #69]	; 0x45
20001794:	f001 fdce 	bl	20003334 <vPortExitCritical>
20001798:	1d3a      	adds	r2, r7, #4
2000179a:	f107 0310 	add.w	r3, r7, #16
2000179e:	4611      	mov	r1, r2
200017a0:	4618      	mov	r0, r3
200017a2:	f000 fef7 	bl	20002594 <xTaskCheckForTimeOut>
200017a6:	4603      	mov	r3, r0
200017a8:	2b00      	cmp	r3, #0
200017aa:	d123      	bne.n	200017f4 <xQueueReceive+0x198>
200017ac:	6ab8      	ldr	r0, [r7, #40]	; 0x28
200017ae:	f000 f93a 	bl	20001a26 <prvIsQueueEmpty>
200017b2:	4603      	mov	r3, r0
200017b4:	2b00      	cmp	r3, #0
200017b6:	d017      	beq.n	200017e8 <xQueueReceive+0x18c>
200017b8:	6abb      	ldr	r3, [r7, #40]	; 0x28
200017ba:	3324      	adds	r3, #36	; 0x24
200017bc:	687a      	ldr	r2, [r7, #4]
200017be:	4611      	mov	r1, r2
200017c0:	4618      	mov	r0, r3
200017c2:	f000 fe1d 	bl	20002400 <vTaskPlaceOnEventList>
200017c6:	6ab8      	ldr	r0, [r7, #40]	; 0x28
200017c8:	f000 f8db 	bl	20001982 <prvUnlockQueue>
200017cc:	f000 fc4c 	bl	20002068 <xTaskResumeAll>
200017d0:	4603      	mov	r3, r0
200017d2:	2b00      	cmp	r3, #0
200017d4:	d189      	bne.n	200016ea <xQueueReceive+0x8e>
200017d6:	4b10      	ldr	r3, [pc, #64]	; (20001818 <xQueueReceive+0x1bc>)
200017d8:	f04f 5280 	mov.w	r2, #268435456	; 0x10000000
200017dc:	601a      	str	r2, [r3, #0]
200017de:	f3bf 8f4f 	dsb	sy
200017e2:	f3bf 8f6f 	isb	sy
200017e6:	e780      	b.n	200016ea <xQueueReceive+0x8e>
200017e8:	6ab8      	ldr	r0, [r7, #40]	; 0x28
200017ea:	f000 f8ca 	bl	20001982 <prvUnlockQueue>
200017ee:	f000 fc3b 	bl	20002068 <xTaskResumeAll>
200017f2:	e77a      	b.n	200016ea <xQueueReceive+0x8e>
200017f4:	6ab8      	ldr	r0, [r7, #40]	; 0x28
200017f6:	f000 f8c4 	bl	20001982 <prvUnlockQueue>
200017fa:	f000 fc35 	bl	20002068 <xTaskResumeAll>
200017fe:	6ab8      	ldr	r0, [r7, #40]	; 0x28
20001800:	f000 f911 	bl	20001a26 <prvIsQueueEmpty>
20001804:	4603      	mov	r3, r0
20001806:	2b00      	cmp	r3, #0
20001808:	f43f af6f 	beq.w	200016ea <xQueueReceive+0x8e>
2000180c:	2300      	movs	r3, #0
2000180e:	4618      	mov	r0, r3
20001810:	3730      	adds	r7, #48	; 0x30
20001812:	46bd      	mov	sp, r7
20001814:	bd80      	pop	{r7, pc}
20001816:	bf00      	nop
20001818:	e000ed04 	.word	0xe000ed04

2000181c <vQueueDelete>:
2000181c:	b580      	push	{r7, lr}
2000181e:	b084      	sub	sp, #16
20001820:	af00      	add	r7, sp, #0
20001822:	6078      	str	r0, [r7, #4]
20001824:	687b      	ldr	r3, [r7, #4]
20001826:	60fb      	str	r3, [r7, #12]
20001828:	68fb      	ldr	r3, [r7, #12]
2000182a:	2b00      	cmp	r3, #0
2000182c:	d10a      	bne.n	20001844 <vQueueDelete+0x28>
2000182e:	f04f 0350 	mov.w	r3, #80	; 0x50
20001832:	f383 8811 	msr	BASEPRI, r3
20001836:	f3bf 8f6f 	isb	sy
2000183a:	f3bf 8f4f 	dsb	sy
2000183e:	60bb      	str	r3, [r7, #8]
20001840:	bf00      	nop
20001842:	e7fe      	b.n	20001842 <vQueueDelete+0x26>
20001844:	68f8      	ldr	r0, [r7, #12]
20001846:	f000 f947 	bl	20001ad8 <vQueueUnregisterQueue>
2000184a:	68fb      	ldr	r3, [r7, #12]
2000184c:	f893 3046 	ldrb.w	r3, [r3, #70]	; 0x46
20001850:	2b00      	cmp	r3, #0
20001852:	d102      	bne.n	2000185a <vQueueDelete+0x3e>
20001854:	68f8      	ldr	r0, [r7, #12]
20001856:	f001 ff2b 	bl	200036b0 <vPortFree>
2000185a:	bf00      	nop
2000185c:	3710      	adds	r7, #16
2000185e:	46bd      	mov	sp, r7
20001860:	bd80      	pop	{r7, pc}

20001862 <prvCopyDataToQueue>:
20001862:	b580      	push	{r7, lr}
20001864:	b086      	sub	sp, #24
20001866:	af00      	add	r7, sp, #0
20001868:	60f8      	str	r0, [r7, #12]
2000186a:	60b9      	str	r1, [r7, #8]
2000186c:	607a      	str	r2, [r7, #4]
2000186e:	2300      	movs	r3, #0
20001870:	617b      	str	r3, [r7, #20]
20001872:	68fb      	ldr	r3, [r7, #12]
20001874:	6b9b      	ldr	r3, [r3, #56]	; 0x38
20001876:	613b      	str	r3, [r7, #16]
20001878:	68fb      	ldr	r3, [r7, #12]
2000187a:	6c1b      	ldr	r3, [r3, #64]	; 0x40
2000187c:	2b00      	cmp	r3, #0
2000187e:	d10d      	bne.n	2000189c <prvCopyDataToQueue+0x3a>
20001880:	68fb      	ldr	r3, [r7, #12]
20001882:	681b      	ldr	r3, [r3, #0]
20001884:	2b00      	cmp	r3, #0
20001886:	d14d      	bne.n	20001924 <prvCopyDataToQueue+0xc2>
20001888:	68fb      	ldr	r3, [r7, #12]
2000188a:	689b      	ldr	r3, [r3, #8]
2000188c:	4618      	mov	r0, r3
2000188e:	f000 ffe7 	bl	20002860 <xTaskPriorityDisinherit>
20001892:	6178      	str	r0, [r7, #20]
20001894:	68fb      	ldr	r3, [r7, #12]
20001896:	2200      	movs	r2, #0
20001898:	609a      	str	r2, [r3, #8]
2000189a:	e043      	b.n	20001924 <prvCopyDataToQueue+0xc2>
2000189c:	687b      	ldr	r3, [r7, #4]
2000189e:	2b00      	cmp	r3, #0
200018a0:	d119      	bne.n	200018d6 <prvCopyDataToQueue+0x74>
200018a2:	68fb      	ldr	r3, [r7, #12]
200018a4:	6858      	ldr	r0, [r3, #4]
200018a6:	68fb      	ldr	r3, [r7, #12]
200018a8:	6c1b      	ldr	r3, [r3, #64]	; 0x40
200018aa:	461a      	mov	r2, r3
200018ac:	68b9      	ldr	r1, [r7, #8]
200018ae:	f004 fd29 	bl	20006304 <memcpy>
200018b2:	68fb      	ldr	r3, [r7, #12]
200018b4:	685a      	ldr	r2, [r3, #4]
200018b6:	68fb      	ldr	r3, [r7, #12]
200018b8:	6c1b      	ldr	r3, [r3, #64]	; 0x40
200018ba:	441a      	add	r2, r3
200018bc:	68fb      	ldr	r3, [r7, #12]
200018be:	605a      	str	r2, [r3, #4]
200018c0:	68fb      	ldr	r3, [r7, #12]
200018c2:	685a      	ldr	r2, [r3, #4]
200018c4:	68fb      	ldr	r3, [r7, #12]
200018c6:	689b      	ldr	r3, [r3, #8]
200018c8:	429a      	cmp	r2, r3
200018ca:	d32b      	bcc.n	20001924 <prvCopyDataToQueue+0xc2>
200018cc:	68fb      	ldr	r3, [r7, #12]
200018ce:	681a      	ldr	r2, [r3, #0]
200018d0:	68fb      	ldr	r3, [r7, #12]
200018d2:	605a      	str	r2, [r3, #4]
200018d4:	e026      	b.n	20001924 <prvCopyDataToQueue+0xc2>
200018d6:	68fb      	ldr	r3, [r7, #12]
200018d8:	68d8      	ldr	r0, [r3, #12]
200018da:	68fb      	ldr	r3, [r7, #12]
200018dc:	6c1b      	ldr	r3, [r3, #64]	; 0x40
200018de:	461a      	mov	r2, r3
200018e0:	68b9      	ldr	r1, [r7, #8]
200018e2:	f004 fd0f 	bl	20006304 <memcpy>
200018e6:	68fb      	ldr	r3, [r7, #12]
200018e8:	68da      	ldr	r2, [r3, #12]
200018ea:	68fb      	ldr	r3, [r7, #12]
200018ec:	6c1b      	ldr	r3, [r3, #64]	; 0x40
200018ee:	425b      	negs	r3, r3
200018f0:	441a      	add	r2, r3
200018f2:	68fb      	ldr	r3, [r7, #12]
200018f4:	60da      	str	r2, [r3, #12]
200018f6:	68fb      	ldr	r3, [r7, #12]
200018f8:	68da      	ldr	r2, [r3, #12]
200018fa:	68fb      	ldr	r3, [r7, #12]
200018fc:	681b      	ldr	r3, [r3, #0]
200018fe:	429a      	cmp	r2, r3
20001900:	d207      	bcs.n	20001912 <prvCopyDataToQueue+0xb0>
20001902:	68fb      	ldr	r3, [r7, #12]
20001904:	689a      	ldr	r2, [r3, #8]
20001906:	68fb      	ldr	r3, [r7, #12]
20001908:	6c1b      	ldr	r3, [r3, #64]	; 0x40
2000190a:	425b      	negs	r3, r3
2000190c:	441a      	add	r2, r3
2000190e:	68fb      	ldr	r3, [r7, #12]
20001910:	60da      	str	r2, [r3, #12]
20001912:	687b      	ldr	r3, [r7, #4]
20001914:	2b02      	cmp	r3, #2
20001916:	d105      	bne.n	20001924 <prvCopyDataToQueue+0xc2>
20001918:	693b      	ldr	r3, [r7, #16]
2000191a:	2b00      	cmp	r3, #0
2000191c:	d002      	beq.n	20001924 <prvCopyDataToQueue+0xc2>
2000191e:	693b      	ldr	r3, [r7, #16]
20001920:	3b01      	subs	r3, #1
20001922:	613b      	str	r3, [r7, #16]
20001924:	693b      	ldr	r3, [r7, #16]
20001926:	1c5a      	adds	r2, r3, #1
20001928:	68fb      	ldr	r3, [r7, #12]
2000192a:	639a      	str	r2, [r3, #56]	; 0x38
2000192c:	697b      	ldr	r3, [r7, #20]
2000192e:	4618      	mov	r0, r3
20001930:	3718      	adds	r7, #24
20001932:	46bd      	mov	sp, r7
20001934:	bd80      	pop	{r7, pc}

20001936 <prvCopyDataFromQueue>:
20001936:	b580      	push	{r7, lr}
20001938:	b082      	sub	sp, #8
2000193a:	af00      	add	r7, sp, #0
2000193c:	6078      	str	r0, [r7, #4]
2000193e:	6039      	str	r1, [r7, #0]
20001940:	687b      	ldr	r3, [r7, #4]
20001942:	6c1b      	ldr	r3, [r3, #64]	; 0x40
20001944:	2b00      	cmp	r3, #0
20001946:	d018      	beq.n	2000197a <prvCopyDataFromQueue+0x44>
20001948:	687b      	ldr	r3, [r7, #4]
2000194a:	68da      	ldr	r2, [r3, #12]
2000194c:	687b      	ldr	r3, [r7, #4]
2000194e:	6c1b      	ldr	r3, [r3, #64]	; 0x40
20001950:	441a      	add	r2, r3
20001952:	687b      	ldr	r3, [r7, #4]
20001954:	60da      	str	r2, [r3, #12]
20001956:	687b      	ldr	r3, [r7, #4]
20001958:	68da      	ldr	r2, [r3, #12]
2000195a:	687b      	ldr	r3, [r7, #4]
2000195c:	689b      	ldr	r3, [r3, #8]
2000195e:	429a      	cmp	r2, r3
20001960:	d303      	bcc.n	2000196a <prvCopyDataFromQueue+0x34>
20001962:	687b      	ldr	r3, [r7, #4]
20001964:	681a      	ldr	r2, [r3, #0]
20001966:	687b      	ldr	r3, [r7, #4]
20001968:	60da      	str	r2, [r3, #12]
2000196a:	687b      	ldr	r3, [r7, #4]
2000196c:	68d9      	ldr	r1, [r3, #12]
2000196e:	687b      	ldr	r3, [r7, #4]
20001970:	6c1b      	ldr	r3, [r3, #64]	; 0x40
20001972:	461a      	mov	r2, r3
20001974:	6838      	ldr	r0, [r7, #0]
20001976:	f004 fcc5 	bl	20006304 <memcpy>
2000197a:	bf00      	nop
2000197c:	3708      	adds	r7, #8
2000197e:	46bd      	mov	sp, r7
20001980:	bd80      	pop	{r7, pc}

20001982 <prvUnlockQueue>:
20001982:	b580      	push	{r7, lr}
20001984:	b084      	sub	sp, #16
20001986:	af00      	add	r7, sp, #0
20001988:	6078      	str	r0, [r7, #4]
2000198a:	f001 fca3 	bl	200032d4 <vPortEnterCritical>
2000198e:	687b      	ldr	r3, [r7, #4]
20001990:	f893 3045 	ldrb.w	r3, [r3, #69]	; 0x45
20001994:	73fb      	strb	r3, [r7, #15]
20001996:	e011      	b.n	200019bc <prvUnlockQueue+0x3a>
20001998:	687b      	ldr	r3, [r7, #4]
2000199a:	6a5b      	ldr	r3, [r3, #36]	; 0x24
2000199c:	2b00      	cmp	r3, #0
2000199e:	d012      	beq.n	200019c6 <prvUnlockQueue+0x44>
200019a0:	687b      	ldr	r3, [r7, #4]
200019a2:	3324      	adds	r3, #36	; 0x24
200019a4:	4618      	mov	r0, r3
200019a6:	f000 fd7b 	bl	200024a0 <xTaskRemoveFromEventList>
200019aa:	4603      	mov	r3, r0
200019ac:	2b00      	cmp	r3, #0
200019ae:	d001      	beq.n	200019b4 <prvUnlockQueue+0x32>
200019b0:	f000 fe52 	bl	20002658 <vTaskMissedYield>
200019b4:	7bfb      	ldrb	r3, [r7, #15]
200019b6:	3b01      	subs	r3, #1
200019b8:	b2db      	uxtb	r3, r3
200019ba:	73fb      	strb	r3, [r7, #15]
200019bc:	f997 300f 	ldrsb.w	r3, [r7, #15]
200019c0:	2b00      	cmp	r3, #0
200019c2:	dce9      	bgt.n	20001998 <prvUnlockQueue+0x16>
200019c4:	e000      	b.n	200019c8 <prvUnlockQueue+0x46>
200019c6:	bf00      	nop
200019c8:	687b      	ldr	r3, [r7, #4]
200019ca:	22ff      	movs	r2, #255	; 0xff
200019cc:	f883 2045 	strb.w	r2, [r3, #69]	; 0x45
200019d0:	f001 fcb0 	bl	20003334 <vPortExitCritical>
200019d4:	f001 fc7e 	bl	200032d4 <vPortEnterCritical>
200019d8:	687b      	ldr	r3, [r7, #4]
200019da:	f893 3044 	ldrb.w	r3, [r3, #68]	; 0x44
200019de:	73bb      	strb	r3, [r7, #14]
200019e0:	e011      	b.n	20001a06 <prvUnlockQueue+0x84>
200019e2:	687b      	ldr	r3, [r7, #4]
200019e4:	691b      	ldr	r3, [r3, #16]
200019e6:	2b00      	cmp	r3, #0
200019e8:	d012      	beq.n	20001a10 <prvUnlockQueue+0x8e>
200019ea:	687b      	ldr	r3, [r7, #4]
200019ec:	3310      	adds	r3, #16
200019ee:	4618      	mov	r0, r3
200019f0:	f000 fd56 	bl	200024a0 <xTaskRemoveFromEventList>
200019f4:	4603      	mov	r3, r0
200019f6:	2b00      	cmp	r3, #0
200019f8:	d001      	beq.n	200019fe <prvUnlockQueue+0x7c>
200019fa:	f000 fe2d 	bl	20002658 <vTaskMissedYield>
200019fe:	7bbb      	ldrb	r3, [r7, #14]
20001a00:	3b01      	subs	r3, #1
20001a02:	b2db      	uxtb	r3, r3
20001a04:	73bb      	strb	r3, [r7, #14]
20001a06:	f997 300e 	ldrsb.w	r3, [r7, #14]
20001a0a:	2b00      	cmp	r3, #0
20001a0c:	dce9      	bgt.n	200019e2 <prvUnlockQueue+0x60>
20001a0e:	e000      	b.n	20001a12 <prvUnlockQueue+0x90>
20001a10:	bf00      	nop
20001a12:	687b      	ldr	r3, [r7, #4]
20001a14:	22ff      	movs	r2, #255	; 0xff
20001a16:	f883 2044 	strb.w	r2, [r3, #68]	; 0x44
20001a1a:	f001 fc8b 	bl	20003334 <vPortExitCritical>
20001a1e:	bf00      	nop
20001a20:	3710      	adds	r7, #16
20001a22:	46bd      	mov	sp, r7
20001a24:	bd80      	pop	{r7, pc}

20001a26 <prvIsQueueEmpty>:
20001a26:	b580      	push	{r7, lr}
20001a28:	b084      	sub	sp, #16
20001a2a:	af00      	add	r7, sp, #0
20001a2c:	6078      	str	r0, [r7, #4]
20001a2e:	f001 fc51 	bl	200032d4 <vPortEnterCritical>
20001a32:	687b      	ldr	r3, [r7, #4]
20001a34:	6b9b      	ldr	r3, [r3, #56]	; 0x38
20001a36:	2b00      	cmp	r3, #0
20001a38:	d102      	bne.n	20001a40 <prvIsQueueEmpty+0x1a>
20001a3a:	2301      	movs	r3, #1
20001a3c:	60fb      	str	r3, [r7, #12]
20001a3e:	e001      	b.n	20001a44 <prvIsQueueEmpty+0x1e>
20001a40:	2300      	movs	r3, #0
20001a42:	60fb      	str	r3, [r7, #12]
20001a44:	f001 fc76 	bl	20003334 <vPortExitCritical>
20001a48:	68fb      	ldr	r3, [r7, #12]
20001a4a:	4618      	mov	r0, r3
20001a4c:	3710      	adds	r7, #16
20001a4e:	46bd      	mov	sp, r7
20001a50:	bd80      	pop	{r7, pc}

20001a52 <prvIsQueueFull>:
20001a52:	b580      	push	{r7, lr}
20001a54:	b084      	sub	sp, #16
20001a56:	af00      	add	r7, sp, #0
20001a58:	6078      	str	r0, [r7, #4]
20001a5a:	f001 fc3b 	bl	200032d4 <vPortEnterCritical>
20001a5e:	687b      	ldr	r3, [r7, #4]
20001a60:	6b9a      	ldr	r2, [r3, #56]	; 0x38
20001a62:	687b      	ldr	r3, [r7, #4]
20001a64:	6bdb      	ldr	r3, [r3, #60]	; 0x3c
20001a66:	429a      	cmp	r2, r3
20001a68:	d102      	bne.n	20001a70 <prvIsQueueFull+0x1e>
20001a6a:	2301      	movs	r3, #1
20001a6c:	60fb      	str	r3, [r7, #12]
20001a6e:	e001      	b.n	20001a74 <prvIsQueueFull+0x22>
20001a70:	2300      	movs	r3, #0
20001a72:	60fb      	str	r3, [r7, #12]
20001a74:	f001 fc5e 	bl	20003334 <vPortExitCritical>
20001a78:	68fb      	ldr	r3, [r7, #12]
20001a7a:	4618      	mov	r0, r3
20001a7c:	3710      	adds	r7, #16
20001a7e:	46bd      	mov	sp, r7
20001a80:	bd80      	pop	{r7, pc}
	...

20001a84 <vQueueAddToRegistry>:
20001a84:	b480      	push	{r7}
20001a86:	b085      	sub	sp, #20
20001a88:	af00      	add	r7, sp, #0
20001a8a:	6078      	str	r0, [r7, #4]
20001a8c:	6039      	str	r1, [r7, #0]
20001a8e:	2300      	movs	r3, #0
20001a90:	60fb      	str	r3, [r7, #12]
20001a92:	e014      	b.n	20001abe <vQueueAddToRegistry+0x3a>
20001a94:	4a0f      	ldr	r2, [pc, #60]	; (20001ad4 <vQueueAddToRegistry+0x50>)
20001a96:	68fb      	ldr	r3, [r7, #12]
20001a98:	f852 3033 	ldr.w	r3, [r2, r3, lsl #3]
20001a9c:	2b00      	cmp	r3, #0
20001a9e:	d10b      	bne.n	20001ab8 <vQueueAddToRegistry+0x34>
20001aa0:	490c      	ldr	r1, [pc, #48]	; (20001ad4 <vQueueAddToRegistry+0x50>)
20001aa2:	68fb      	ldr	r3, [r7, #12]
20001aa4:	683a      	ldr	r2, [r7, #0]
20001aa6:	f841 2033 	str.w	r2, [r1, r3, lsl #3]
20001aaa:	4a0a      	ldr	r2, [pc, #40]	; (20001ad4 <vQueueAddToRegistry+0x50>)
20001aac:	68fb      	ldr	r3, [r7, #12]
20001aae:	00db      	lsls	r3, r3, #3
20001ab0:	4413      	add	r3, r2
20001ab2:	687a      	ldr	r2, [r7, #4]
20001ab4:	605a      	str	r2, [r3, #4]
20001ab6:	e006      	b.n	20001ac6 <vQueueAddToRegistry+0x42>
20001ab8:	68fb      	ldr	r3, [r7, #12]
20001aba:	3301      	adds	r3, #1
20001abc:	60fb      	str	r3, [r7, #12]
20001abe:	68fb      	ldr	r3, [r7, #12]
20001ac0:	2b07      	cmp	r3, #7
20001ac2:	d9e7      	bls.n	20001a94 <vQueueAddToRegistry+0x10>
20001ac4:	bf00      	nop
20001ac6:	bf00      	nop
20001ac8:	3714      	adds	r7, #20
20001aca:	46bd      	mov	sp, r7
20001acc:	f85d 7b04 	ldr.w	r7, [sp], #4
20001ad0:	4770      	bx	lr
20001ad2:	bf00      	nop
20001ad4:	2000ab88 	.word	0x2000ab88

20001ad8 <vQueueUnregisterQueue>:
20001ad8:	b480      	push	{r7}
20001ada:	b085      	sub	sp, #20
20001adc:	af00      	add	r7, sp, #0
20001ade:	6078      	str	r0, [r7, #4]
20001ae0:	2300      	movs	r3, #0
20001ae2:	60fb      	str	r3, [r7, #12]
20001ae4:	e016      	b.n	20001b14 <vQueueUnregisterQueue+0x3c>
20001ae6:	4a10      	ldr	r2, [pc, #64]	; (20001b28 <vQueueUnregisterQueue+0x50>)
20001ae8:	68fb      	ldr	r3, [r7, #12]
20001aea:	00db      	lsls	r3, r3, #3
20001aec:	4413      	add	r3, r2
20001aee:	685b      	ldr	r3, [r3, #4]
20001af0:	687a      	ldr	r2, [r7, #4]
20001af2:	429a      	cmp	r2, r3
20001af4:	d10b      	bne.n	20001b0e <vQueueUnregisterQueue+0x36>
20001af6:	4a0c      	ldr	r2, [pc, #48]	; (20001b28 <vQueueUnregisterQueue+0x50>)
20001af8:	68fb      	ldr	r3, [r7, #12]
20001afa:	2100      	movs	r1, #0
20001afc:	f842 1033 	str.w	r1, [r2, r3, lsl #3]
20001b00:	4a09      	ldr	r2, [pc, #36]	; (20001b28 <vQueueUnregisterQueue+0x50>)
20001b02:	68fb      	ldr	r3, [r7, #12]
20001b04:	00db      	lsls	r3, r3, #3
20001b06:	4413      	add	r3, r2
20001b08:	2200      	movs	r2, #0
20001b0a:	605a      	str	r2, [r3, #4]
20001b0c:	e006      	b.n	20001b1c <vQueueUnregisterQueue+0x44>
20001b0e:	68fb      	ldr	r3, [r7, #12]
20001b10:	3301      	adds	r3, #1
20001b12:	60fb      	str	r3, [r7, #12]
20001b14:	68fb      	ldr	r3, [r7, #12]
20001b16:	2b07      	cmp	r3, #7
20001b18:	d9e5      	bls.n	20001ae6 <vQueueUnregisterQueue+0xe>
20001b1a:	bf00      	nop
20001b1c:	bf00      	nop
20001b1e:	3714      	adds	r7, #20
20001b20:	46bd      	mov	sp, r7
20001b22:	f85d 7b04 	ldr.w	r7, [sp], #4
20001b26:	4770      	bx	lr
20001b28:	2000ab88 	.word	0x2000ab88

20001b2c <vQueueWaitForMessageRestricted>:
20001b2c:	b580      	push	{r7, lr}
20001b2e:	b086      	sub	sp, #24
20001b30:	af00      	add	r7, sp, #0
20001b32:	60f8      	str	r0, [r7, #12]
20001b34:	60b9      	str	r1, [r7, #8]
20001b36:	607a      	str	r2, [r7, #4]
20001b38:	68fb      	ldr	r3, [r7, #12]
20001b3a:	617b      	str	r3, [r7, #20]
20001b3c:	f001 fbca 	bl	200032d4 <vPortEnterCritical>
20001b40:	697b      	ldr	r3, [r7, #20]
20001b42:	f893 3044 	ldrb.w	r3, [r3, #68]	; 0x44
20001b46:	b25b      	sxtb	r3, r3
20001b48:	f1b3 3fff 	cmp.w	r3, #4294967295
20001b4c:	d103      	bne.n	20001b56 <vQueueWaitForMessageRestricted+0x2a>
20001b4e:	697b      	ldr	r3, [r7, #20]
20001b50:	2200      	movs	r2, #0
20001b52:	f883 2044 	strb.w	r2, [r3, #68]	; 0x44
20001b56:	697b      	ldr	r3, [r7, #20]
20001b58:	f893 3045 	ldrb.w	r3, [r3, #69]	; 0x45
20001b5c:	b25b      	sxtb	r3, r3
20001b5e:	f1b3 3fff 	cmp.w	r3, #4294967295
20001b62:	d103      	bne.n	20001b6c <vQueueWaitForMessageRestricted+0x40>
20001b64:	697b      	ldr	r3, [r7, #20]
20001b66:	2200      	movs	r2, #0
20001b68:	f883 2045 	strb.w	r2, [r3, #69]	; 0x45
20001b6c:	f001 fbe2 	bl	20003334 <vPortExitCritical>
20001b70:	697b      	ldr	r3, [r7, #20]
20001b72:	6b9b      	ldr	r3, [r3, #56]	; 0x38
20001b74:	2b00      	cmp	r3, #0
20001b76:	d106      	bne.n	20001b86 <vQueueWaitForMessageRestricted+0x5a>
20001b78:	697b      	ldr	r3, [r7, #20]
20001b7a:	3324      	adds	r3, #36	; 0x24
20001b7c:	687a      	ldr	r2, [r7, #4]
20001b7e:	68b9      	ldr	r1, [r7, #8]
20001b80:	4618      	mov	r0, r3
20001b82:	f000 fc61 	bl	20002448 <vTaskPlaceOnEventListRestricted>
20001b86:	6978      	ldr	r0, [r7, #20]
20001b88:	f7ff fefb 	bl	20001982 <prvUnlockQueue>
20001b8c:	bf00      	nop
20001b8e:	3718      	adds	r7, #24
20001b90:	46bd      	mov	sp, r7
20001b92:	bd80      	pop	{r7, pc}

20001b94 <xTaskCreateStatic>:
20001b94:	b580      	push	{r7, lr}
20001b96:	b08e      	sub	sp, #56	; 0x38
20001b98:	af04      	add	r7, sp, #16
20001b9a:	60f8      	str	r0, [r7, #12]
20001b9c:	60b9      	str	r1, [r7, #8]
20001b9e:	607a      	str	r2, [r7, #4]
20001ba0:	603b      	str	r3, [r7, #0]
20001ba2:	6b7b      	ldr	r3, [r7, #52]	; 0x34
20001ba4:	2b00      	cmp	r3, #0
20001ba6:	d10a      	bne.n	20001bbe <xTaskCreateStatic+0x2a>
20001ba8:	f04f 0350 	mov.w	r3, #80	; 0x50
20001bac:	f383 8811 	msr	BASEPRI, r3
20001bb0:	f3bf 8f6f 	isb	sy
20001bb4:	f3bf 8f4f 	dsb	sy
20001bb8:	623b      	str	r3, [r7, #32]
20001bba:	bf00      	nop
20001bbc:	e7fe      	b.n	20001bbc <xTaskCreateStatic+0x28>
20001bbe:	6bbb      	ldr	r3, [r7, #56]	; 0x38
20001bc0:	2b00      	cmp	r3, #0
20001bc2:	d10a      	bne.n	20001bda <xTaskCreateStatic+0x46>
20001bc4:	f04f 0350 	mov.w	r3, #80	; 0x50
20001bc8:	f383 8811 	msr	BASEPRI, r3
20001bcc:	f3bf 8f6f 	isb	sy
20001bd0:	f3bf 8f4f 	dsb	sy
20001bd4:	61fb      	str	r3, [r7, #28]
20001bd6:	bf00      	nop
20001bd8:	e7fe      	b.n	20001bd8 <xTaskCreateStatic+0x44>
20001bda:	23bc      	movs	r3, #188	; 0xbc
20001bdc:	613b      	str	r3, [r7, #16]
20001bde:	693b      	ldr	r3, [r7, #16]
20001be0:	2bbc      	cmp	r3, #188	; 0xbc
20001be2:	d00a      	beq.n	20001bfa <xTaskCreateStatic+0x66>
20001be4:	f04f 0350 	mov.w	r3, #80	; 0x50
20001be8:	f383 8811 	msr	BASEPRI, r3
20001bec:	f3bf 8f6f 	isb	sy
20001bf0:	f3bf 8f4f 	dsb	sy
20001bf4:	61bb      	str	r3, [r7, #24]
20001bf6:	bf00      	nop
20001bf8:	e7fe      	b.n	20001bf8 <xTaskCreateStatic+0x64>
20001bfa:	693b      	ldr	r3, [r7, #16]
20001bfc:	6bbb      	ldr	r3, [r7, #56]	; 0x38
20001bfe:	2b00      	cmp	r3, #0
20001c00:	d01e      	beq.n	20001c40 <xTaskCreateStatic+0xac>
20001c02:	6b7b      	ldr	r3, [r7, #52]	; 0x34
20001c04:	2b00      	cmp	r3, #0
20001c06:	d01b      	beq.n	20001c40 <xTaskCreateStatic+0xac>
20001c08:	6bbb      	ldr	r3, [r7, #56]	; 0x38
20001c0a:	627b      	str	r3, [r7, #36]	; 0x24
20001c0c:	6a7b      	ldr	r3, [r7, #36]	; 0x24
20001c0e:	6b7a      	ldr	r2, [r7, #52]	; 0x34
20001c10:	631a      	str	r2, [r3, #48]	; 0x30
20001c12:	6a7b      	ldr	r3, [r7, #36]	; 0x24
20001c14:	2202      	movs	r2, #2
20001c16:	f883 20b9 	strb.w	r2, [r3, #185]	; 0xb9
20001c1a:	2300      	movs	r3, #0
20001c1c:	9303      	str	r3, [sp, #12]
20001c1e:	6a7b      	ldr	r3, [r7, #36]	; 0x24
20001c20:	9302      	str	r3, [sp, #8]
20001c22:	f107 0314 	add.w	r3, r7, #20
20001c26:	9301      	str	r3, [sp, #4]
20001c28:	6b3b      	ldr	r3, [r7, #48]	; 0x30
20001c2a:	9300      	str	r3, [sp, #0]
20001c2c:	683b      	ldr	r3, [r7, #0]
20001c2e:	687a      	ldr	r2, [r7, #4]
20001c30:	68b9      	ldr	r1, [r7, #8]
20001c32:	68f8      	ldr	r0, [r7, #12]
20001c34:	f000 f850 	bl	20001cd8 <prvInitialiseNewTask>
20001c38:	6a78      	ldr	r0, [r7, #36]	; 0x24
20001c3a:	f000 f8f3 	bl	20001e24 <prvAddNewTaskToReadyList>
20001c3e:	e001      	b.n	20001c44 <xTaskCreateStatic+0xb0>
20001c40:	2300      	movs	r3, #0
20001c42:	617b      	str	r3, [r7, #20]
20001c44:	697b      	ldr	r3, [r7, #20]
20001c46:	4618      	mov	r0, r3
20001c48:	3728      	adds	r7, #40	; 0x28
20001c4a:	46bd      	mov	sp, r7
20001c4c:	bd80      	pop	{r7, pc}

20001c4e <xTaskCreate>:
20001c4e:	b580      	push	{r7, lr}
20001c50:	b08c      	sub	sp, #48	; 0x30
20001c52:	af04      	add	r7, sp, #16
20001c54:	60f8      	str	r0, [r7, #12]
20001c56:	60b9      	str	r1, [r7, #8]
20001c58:	603b      	str	r3, [r7, #0]
20001c5a:	4613      	mov	r3, r2
20001c5c:	80fb      	strh	r3, [r7, #6]
20001c5e:	88fb      	ldrh	r3, [r7, #6]
20001c60:	009b      	lsls	r3, r3, #2
20001c62:	4618      	mov	r0, r3
20001c64:	f001 fc58 	bl	20003518 <pvPortMalloc>
20001c68:	6178      	str	r0, [r7, #20]
20001c6a:	697b      	ldr	r3, [r7, #20]
20001c6c:	2b00      	cmp	r3, #0
20001c6e:	d00e      	beq.n	20001c8e <xTaskCreate+0x40>
20001c70:	20bc      	movs	r0, #188	; 0xbc
20001c72:	f001 fc51 	bl	20003518 <pvPortMalloc>
20001c76:	61f8      	str	r0, [r7, #28]
20001c78:	69fb      	ldr	r3, [r7, #28]
20001c7a:	2b00      	cmp	r3, #0
20001c7c:	d003      	beq.n	20001c86 <xTaskCreate+0x38>
20001c7e:	69fb      	ldr	r3, [r7, #28]
20001c80:	697a      	ldr	r2, [r7, #20]
20001c82:	631a      	str	r2, [r3, #48]	; 0x30
20001c84:	e005      	b.n	20001c92 <xTaskCreate+0x44>
20001c86:	6978      	ldr	r0, [r7, #20]
20001c88:	f001 fd12 	bl	200036b0 <vPortFree>
20001c8c:	e001      	b.n	20001c92 <xTaskCreate+0x44>
20001c8e:	2300      	movs	r3, #0
20001c90:	61fb      	str	r3, [r7, #28]
20001c92:	69fb      	ldr	r3, [r7, #28]
20001c94:	2b00      	cmp	r3, #0
20001c96:	d017      	beq.n	20001cc8 <xTaskCreate+0x7a>
20001c98:	69fb      	ldr	r3, [r7, #28]
20001c9a:	2200      	movs	r2, #0
20001c9c:	f883 20b9 	strb.w	r2, [r3, #185]	; 0xb9
20001ca0:	88fa      	ldrh	r2, [r7, #6]
20001ca2:	2300      	movs	r3, #0
20001ca4:	9303      	str	r3, [sp, #12]
20001ca6:	69fb      	ldr	r3, [r7, #28]
20001ca8:	9302      	str	r3, [sp, #8]
20001caa:	6afb      	ldr	r3, [r7, #44]	; 0x2c
20001cac:	9301      	str	r3, [sp, #4]
20001cae:	6abb      	ldr	r3, [r7, #40]	; 0x28
20001cb0:	9300      	str	r3, [sp, #0]
20001cb2:	683b      	ldr	r3, [r7, #0]
20001cb4:	68b9      	ldr	r1, [r7, #8]
20001cb6:	68f8      	ldr	r0, [r7, #12]
20001cb8:	f000 f80e 	bl	20001cd8 <prvInitialiseNewTask>
20001cbc:	69f8      	ldr	r0, [r7, #28]
20001cbe:	f000 f8b1 	bl	20001e24 <prvAddNewTaskToReadyList>
20001cc2:	2301      	movs	r3, #1
20001cc4:	61bb      	str	r3, [r7, #24]
20001cc6:	e002      	b.n	20001cce <xTaskCreate+0x80>
20001cc8:	f04f 33ff 	mov.w	r3, #4294967295
20001ccc:	61bb      	str	r3, [r7, #24]
20001cce:	69bb      	ldr	r3, [r7, #24]
20001cd0:	4618      	mov	r0, r3
20001cd2:	3720      	adds	r7, #32
20001cd4:	46bd      	mov	sp, r7
20001cd6:	bd80      	pop	{r7, pc}

20001cd8 <prvInitialiseNewTask>:
20001cd8:	b580      	push	{r7, lr}
20001cda:	b088      	sub	sp, #32
20001cdc:	af00      	add	r7, sp, #0
20001cde:	60f8      	str	r0, [r7, #12]
20001ce0:	60b9      	str	r1, [r7, #8]
20001ce2:	607a      	str	r2, [r7, #4]
20001ce4:	603b      	str	r3, [r7, #0]
20001ce6:	6b3b      	ldr	r3, [r7, #48]	; 0x30
20001ce8:	6b18      	ldr	r0, [r3, #48]	; 0x30
20001cea:	687b      	ldr	r3, [r7, #4]
20001cec:	009b      	lsls	r3, r3, #2
20001cee:	461a      	mov	r2, r3
20001cf0:	21a5      	movs	r1, #165	; 0xa5
20001cf2:	f004 fb15 	bl	20006320 <memset>
20001cf6:	6b3b      	ldr	r3, [r7, #48]	; 0x30
20001cf8:	6b1a      	ldr	r2, [r3, #48]	; 0x30
20001cfa:	687b      	ldr	r3, [r7, #4]
20001cfc:	f103 4380 	add.w	r3, r3, #1073741824	; 0x40000000
20001d00:	3b01      	subs	r3, #1
20001d02:	009b      	lsls	r3, r3, #2
20001d04:	4413      	add	r3, r2
20001d06:	61bb      	str	r3, [r7, #24]
20001d08:	69bb      	ldr	r3, [r7, #24]
20001d0a:	f023 0307 	bic.w	r3, r3, #7
20001d0e:	61bb      	str	r3, [r7, #24]
20001d10:	69bb      	ldr	r3, [r7, #24]
20001d12:	f003 0307 	and.w	r3, r3, #7
20001d16:	2b00      	cmp	r3, #0
20001d18:	d00a      	beq.n	20001d30 <prvInitialiseNewTask+0x58>
20001d1a:	f04f 0350 	mov.w	r3, #80	; 0x50
20001d1e:	f383 8811 	msr	BASEPRI, r3
20001d22:	f3bf 8f6f 	isb	sy
20001d26:	f3bf 8f4f 	dsb	sy
20001d2a:	617b      	str	r3, [r7, #20]
20001d2c:	bf00      	nop
20001d2e:	e7fe      	b.n	20001d2e <prvInitialiseNewTask+0x56>
20001d30:	68bb      	ldr	r3, [r7, #8]
20001d32:	2b00      	cmp	r3, #0
20001d34:	d01f      	beq.n	20001d76 <prvInitialiseNewTask+0x9e>
20001d36:	2300      	movs	r3, #0
20001d38:	61fb      	str	r3, [r7, #28]
20001d3a:	e012      	b.n	20001d62 <prvInitialiseNewTask+0x8a>
20001d3c:	68ba      	ldr	r2, [r7, #8]
20001d3e:	69fb      	ldr	r3, [r7, #28]
20001d40:	4413      	add	r3, r2
20001d42:	7819      	ldrb	r1, [r3, #0]
20001d44:	6b3a      	ldr	r2, [r7, #48]	; 0x30
20001d46:	69fb      	ldr	r3, [r7, #28]
20001d48:	4413      	add	r3, r2
20001d4a:	3334      	adds	r3, #52	; 0x34
20001d4c:	460a      	mov	r2, r1
20001d4e:	701a      	strb	r2, [r3, #0]
20001d50:	68ba      	ldr	r2, [r7, #8]
20001d52:	69fb      	ldr	r3, [r7, #28]
20001d54:	4413      	add	r3, r2
20001d56:	781b      	ldrb	r3, [r3, #0]
20001d58:	2b00      	cmp	r3, #0
20001d5a:	d006      	beq.n	20001d6a <prvInitialiseNewTask+0x92>
20001d5c:	69fb      	ldr	r3, [r7, #28]
20001d5e:	3301      	adds	r3, #1
20001d60:	61fb      	str	r3, [r7, #28]
20001d62:	69fb      	ldr	r3, [r7, #28]
20001d64:	2b0f      	cmp	r3, #15
20001d66:	d9e9      	bls.n	20001d3c <prvInitialiseNewTask+0x64>
20001d68:	e000      	b.n	20001d6c <prvInitialiseNewTask+0x94>
20001d6a:	bf00      	nop
20001d6c:	6b3b      	ldr	r3, [r7, #48]	; 0x30
20001d6e:	2200      	movs	r2, #0
20001d70:	f883 2043 	strb.w	r2, [r3, #67]	; 0x43
20001d74:	e003      	b.n	20001d7e <prvInitialiseNewTask+0xa6>
20001d76:	6b3b      	ldr	r3, [r7, #48]	; 0x30
20001d78:	2200      	movs	r2, #0
20001d7a:	f883 2034 	strb.w	r2, [r3, #52]	; 0x34
20001d7e:	6abb      	ldr	r3, [r7, #40]	; 0x28
20001d80:	2b37      	cmp	r3, #55	; 0x37
20001d82:	d901      	bls.n	20001d88 <prvInitialiseNewTask+0xb0>
20001d84:	2337      	movs	r3, #55	; 0x37
20001d86:	62bb      	str	r3, [r7, #40]	; 0x28
20001d88:	6b3b      	ldr	r3, [r7, #48]	; 0x30
20001d8a:	6aba      	ldr	r2, [r7, #40]	; 0x28
20001d8c:	62da      	str	r2, [r3, #44]	; 0x2c
20001d8e:	6b3b      	ldr	r3, [r7, #48]	; 0x30
20001d90:	6aba      	ldr	r2, [r7, #40]	; 0x28
20001d92:	64da      	str	r2, [r3, #76]	; 0x4c
20001d94:	6b3b      	ldr	r3, [r7, #48]	; 0x30
20001d96:	2200      	movs	r2, #0
20001d98:	651a      	str	r2, [r3, #80]	; 0x50
20001d9a:	6b3b      	ldr	r3, [r7, #48]	; 0x30
20001d9c:	3304      	adds	r3, #4
20001d9e:	4618      	mov	r0, r3
20001da0:	f7ff f886 	bl	20000eb0 <vListInitialiseItem>
20001da4:	6b3b      	ldr	r3, [r7, #48]	; 0x30
20001da6:	3318      	adds	r3, #24
20001da8:	4618      	mov	r0, r3
20001daa:	f7ff f881 	bl	20000eb0 <vListInitialiseItem>
20001dae:	6b3b      	ldr	r3, [r7, #48]	; 0x30
20001db0:	6b3a      	ldr	r2, [r7, #48]	; 0x30
20001db2:	611a      	str	r2, [r3, #16]
20001db4:	6abb      	ldr	r3, [r7, #40]	; 0x28
20001db6:	f1c3 0238 	rsb	r2, r3, #56	; 0x38
20001dba:	6b3b      	ldr	r3, [r7, #48]	; 0x30
20001dbc:	619a      	str	r2, [r3, #24]
20001dbe:	6b3b      	ldr	r3, [r7, #48]	; 0x30
20001dc0:	6b3a      	ldr	r2, [r7, #48]	; 0x30
20001dc2:	625a      	str	r2, [r3, #36]	; 0x24
20001dc4:	6b3b      	ldr	r3, [r7, #48]	; 0x30
20001dc6:	2200      	movs	r2, #0
20001dc8:	f8c3 20b4 	str.w	r2, [r3, #180]	; 0xb4
20001dcc:	6b3b      	ldr	r3, [r7, #48]	; 0x30
20001dce:	2200      	movs	r2, #0
20001dd0:	f883 20b8 	strb.w	r2, [r3, #184]	; 0xb8
20001dd4:	6b3b      	ldr	r3, [r7, #48]	; 0x30
20001dd6:	3354      	adds	r3, #84	; 0x54
20001dd8:	2260      	movs	r2, #96	; 0x60
20001dda:	2100      	movs	r1, #0
20001ddc:	4618      	mov	r0, r3
20001dde:	f004 fa9f 	bl	20006320 <memset>
20001de2:	6b3b      	ldr	r3, [r7, #48]	; 0x30
20001de4:	4a0c      	ldr	r2, [pc, #48]	; (20001e18 <prvInitialiseNewTask+0x140>)
20001de6:	659a      	str	r2, [r3, #88]	; 0x58
20001de8:	6b3b      	ldr	r3, [r7, #48]	; 0x30
20001dea:	4a0c      	ldr	r2, [pc, #48]	; (20001e1c <prvInitialiseNewTask+0x144>)
20001dec:	65da      	str	r2, [r3, #92]	; 0x5c
20001dee:	6b3b      	ldr	r3, [r7, #48]	; 0x30
20001df0:	4a0b      	ldr	r2, [pc, #44]	; (20001e20 <prvInitialiseNewTask+0x148>)
20001df2:	661a      	str	r2, [r3, #96]	; 0x60
20001df4:	683a      	ldr	r2, [r7, #0]
20001df6:	68f9      	ldr	r1, [r7, #12]
20001df8:	69b8      	ldr	r0, [r7, #24]
20001dfa:	f001 f941 	bl	20003080 <pxPortInitialiseStack>
20001dfe:	4602      	mov	r2, r0
20001e00:	6b3b      	ldr	r3, [r7, #48]	; 0x30
20001e02:	601a      	str	r2, [r3, #0]
20001e04:	6afb      	ldr	r3, [r7, #44]	; 0x2c
20001e06:	2b00      	cmp	r3, #0
20001e08:	d002      	beq.n	20001e10 <prvInitialiseNewTask+0x138>
20001e0a:	6afb      	ldr	r3, [r7, #44]	; 0x2c
20001e0c:	6b3a      	ldr	r2, [r7, #48]	; 0x30
20001e0e:	601a      	str	r2, [r3, #0]
20001e10:	bf00      	nop
20001e12:	3720      	adds	r7, #32
20001e14:	46bd      	mov	sp, r7
20001e16:	bd80      	pop	{r7, pc}
20001e18:	2000a2f0 	.word	0x2000a2f0
20001e1c:	2000a310 	.word	0x2000a310
20001e20:	2000a2d0 	.word	0x2000a2d0

20001e24 <prvAddNewTaskToReadyList>:
20001e24:	b580      	push	{r7, lr}
20001e26:	b082      	sub	sp, #8
20001e28:	af00      	add	r7, sp, #0
20001e2a:	6078      	str	r0, [r7, #4]
20001e2c:	f001 fa52 	bl	200032d4 <vPortEnterCritical>
20001e30:	4b2d      	ldr	r3, [pc, #180]	; (20001ee8 <prvAddNewTaskToReadyList+0xc4>)
20001e32:	681b      	ldr	r3, [r3, #0]
20001e34:	3301      	adds	r3, #1
20001e36:	4a2c      	ldr	r2, [pc, #176]	; (20001ee8 <prvAddNewTaskToReadyList+0xc4>)
20001e38:	6013      	str	r3, [r2, #0]
20001e3a:	4b2c      	ldr	r3, [pc, #176]	; (20001eec <prvAddNewTaskToReadyList+0xc8>)
20001e3c:	681b      	ldr	r3, [r3, #0]
20001e3e:	2b00      	cmp	r3, #0
20001e40:	d109      	bne.n	20001e56 <prvAddNewTaskToReadyList+0x32>
20001e42:	4a2a      	ldr	r2, [pc, #168]	; (20001eec <prvAddNewTaskToReadyList+0xc8>)
20001e44:	687b      	ldr	r3, [r7, #4]
20001e46:	6013      	str	r3, [r2, #0]
20001e48:	4b27      	ldr	r3, [pc, #156]	; (20001ee8 <prvAddNewTaskToReadyList+0xc4>)
20001e4a:	681b      	ldr	r3, [r3, #0]
20001e4c:	2b01      	cmp	r3, #1
20001e4e:	d110      	bne.n	20001e72 <prvAddNewTaskToReadyList+0x4e>
20001e50:	f000 fc26 	bl	200026a0 <prvInitialiseTaskLists>
20001e54:	e00d      	b.n	20001e72 <prvAddNewTaskToReadyList+0x4e>
20001e56:	4b26      	ldr	r3, [pc, #152]	; (20001ef0 <prvAddNewTaskToReadyList+0xcc>)
20001e58:	681b      	ldr	r3, [r3, #0]
20001e5a:	2b00      	cmp	r3, #0
20001e5c:	d109      	bne.n	20001e72 <prvAddNewTaskToReadyList+0x4e>
20001e5e:	4b23      	ldr	r3, [pc, #140]	; (20001eec <prvAddNewTaskToReadyList+0xc8>)
20001e60:	681b      	ldr	r3, [r3, #0]
20001e62:	6ada      	ldr	r2, [r3, #44]	; 0x2c
20001e64:	687b      	ldr	r3, [r7, #4]
20001e66:	6adb      	ldr	r3, [r3, #44]	; 0x2c
20001e68:	429a      	cmp	r2, r3
20001e6a:	d802      	bhi.n	20001e72 <prvAddNewTaskToReadyList+0x4e>
20001e6c:	4a1f      	ldr	r2, [pc, #124]	; (20001eec <prvAddNewTaskToReadyList+0xc8>)
20001e6e:	687b      	ldr	r3, [r7, #4]
20001e70:	6013      	str	r3, [r2, #0]
20001e72:	4b20      	ldr	r3, [pc, #128]	; (20001ef4 <prvAddNewTaskToReadyList+0xd0>)
20001e74:	681b      	ldr	r3, [r3, #0]
20001e76:	3301      	adds	r3, #1
20001e78:	4a1e      	ldr	r2, [pc, #120]	; (20001ef4 <prvAddNewTaskToReadyList+0xd0>)
20001e7a:	6013      	str	r3, [r2, #0]
20001e7c:	4b1d      	ldr	r3, [pc, #116]	; (20001ef4 <prvAddNewTaskToReadyList+0xd0>)
20001e7e:	681a      	ldr	r2, [r3, #0]
20001e80:	687b      	ldr	r3, [r7, #4]
20001e82:	645a      	str	r2, [r3, #68]	; 0x44
20001e84:	687b      	ldr	r3, [r7, #4]
20001e86:	6ada      	ldr	r2, [r3, #44]	; 0x2c
20001e88:	4b1b      	ldr	r3, [pc, #108]	; (20001ef8 <prvAddNewTaskToReadyList+0xd4>)
20001e8a:	681b      	ldr	r3, [r3, #0]
20001e8c:	429a      	cmp	r2, r3
20001e8e:	d903      	bls.n	20001e98 <prvAddNewTaskToReadyList+0x74>
20001e90:	687b      	ldr	r3, [r7, #4]
20001e92:	6adb      	ldr	r3, [r3, #44]	; 0x2c
20001e94:	4a18      	ldr	r2, [pc, #96]	; (20001ef8 <prvAddNewTaskToReadyList+0xd4>)
20001e96:	6013      	str	r3, [r2, #0]
20001e98:	687b      	ldr	r3, [r7, #4]
20001e9a:	6ada      	ldr	r2, [r3, #44]	; 0x2c
20001e9c:	4613      	mov	r3, r2
20001e9e:	009b      	lsls	r3, r3, #2
20001ea0:	4413      	add	r3, r2
20001ea2:	009b      	lsls	r3, r3, #2
20001ea4:	4a15      	ldr	r2, [pc, #84]	; (20001efc <prvAddNewTaskToReadyList+0xd8>)
20001ea6:	441a      	add	r2, r3
20001ea8:	687b      	ldr	r3, [r7, #4]
20001eaa:	3304      	adds	r3, #4
20001eac:	4619      	mov	r1, r3
20001eae:	4610      	mov	r0, r2
20001eb0:	f7ff f80b 	bl	20000eca <vListInsertEnd>
20001eb4:	f001 fa3e 	bl	20003334 <vPortExitCritical>
20001eb8:	4b0d      	ldr	r3, [pc, #52]	; (20001ef0 <prvAddNewTaskToReadyList+0xcc>)
20001eba:	681b      	ldr	r3, [r3, #0]
20001ebc:	2b00      	cmp	r3, #0
20001ebe:	d00e      	beq.n	20001ede <prvAddNewTaskToReadyList+0xba>
20001ec0:	4b0a      	ldr	r3, [pc, #40]	; (20001eec <prvAddNewTaskToReadyList+0xc8>)
20001ec2:	681b      	ldr	r3, [r3, #0]
20001ec4:	6ada      	ldr	r2, [r3, #44]	; 0x2c
20001ec6:	687b      	ldr	r3, [r7, #4]
20001ec8:	6adb      	ldr	r3, [r3, #44]	; 0x2c
20001eca:	429a      	cmp	r2, r3
20001ecc:	d207      	bcs.n	20001ede <prvAddNewTaskToReadyList+0xba>
20001ece:	4b0c      	ldr	r3, [pc, #48]	; (20001f00 <prvAddNewTaskToReadyList+0xdc>)
20001ed0:	f04f 5280 	mov.w	r2, #268435456	; 0x10000000
20001ed4:	601a      	str	r2, [r3, #0]
20001ed6:	f3bf 8f4f 	dsb	sy
20001eda:	f3bf 8f6f 	isb	sy
20001ede:	bf00      	nop
20001ee0:	3708      	adds	r7, #8
20001ee2:	46bd      	mov	sp, r7
20001ee4:	bd80      	pop	{r7, pc}
20001ee6:	bf00      	nop
20001ee8:	2000b09c 	.word	0x2000b09c
20001eec:	2000abc8 	.word	0x2000abc8
20001ef0:	2000b0a8 	.word	0x2000b0a8
20001ef4:	2000b0b8 	.word	0x2000b0b8
20001ef8:	2000b0a4 	.word	0x2000b0a4
20001efc:	2000abcc 	.word	0x2000abcc
20001f00:	e000ed04 	.word	0xe000ed04

20001f04 <vTaskDelay>:
20001f04:	b580      	push	{r7, lr}
20001f06:	b084      	sub	sp, #16
20001f08:	af00      	add	r7, sp, #0
20001f0a:	6078      	str	r0, [r7, #4]
20001f0c:	2300      	movs	r3, #0
20001f0e:	60fb      	str	r3, [r7, #12]
20001f10:	687b      	ldr	r3, [r7, #4]
20001f12:	2b00      	cmp	r3, #0
20001f14:	d017      	beq.n	20001f46 <vTaskDelay+0x42>
20001f16:	4b13      	ldr	r3, [pc, #76]	; (20001f64 <vTaskDelay+0x60>)
20001f18:	681b      	ldr	r3, [r3, #0]
20001f1a:	2b00      	cmp	r3, #0
20001f1c:	d00a      	beq.n	20001f34 <vTaskDelay+0x30>
20001f1e:	f04f 0350 	mov.w	r3, #80	; 0x50
20001f22:	f383 8811 	msr	BASEPRI, r3
20001f26:	f3bf 8f6f 	isb	sy
20001f2a:	f3bf 8f4f 	dsb	sy
20001f2e:	60bb      	str	r3, [r7, #8]
20001f30:	bf00      	nop
20001f32:	e7fe      	b.n	20001f32 <vTaskDelay+0x2e>
20001f34:	f000 f88a 	bl	2000204c <vTaskSuspendAll>
20001f38:	2100      	movs	r1, #0
20001f3a:	6878      	ldr	r0, [r7, #4]
20001f3c:	f000 fcfe 	bl	2000293c <prvAddCurrentTaskToDelayedList>
20001f40:	f000 f892 	bl	20002068 <xTaskResumeAll>
20001f44:	60f8      	str	r0, [r7, #12]
20001f46:	68fb      	ldr	r3, [r7, #12]
20001f48:	2b00      	cmp	r3, #0
20001f4a:	d107      	bne.n	20001f5c <vTaskDelay+0x58>
20001f4c:	4b06      	ldr	r3, [pc, #24]	; (20001f68 <vTaskDelay+0x64>)
20001f4e:	f04f 5280 	mov.w	r2, #268435456	; 0x10000000
20001f52:	601a      	str	r2, [r3, #0]
20001f54:	f3bf 8f4f 	dsb	sy
20001f58:	f3bf 8f6f 	isb	sy
20001f5c:	bf00      	nop
20001f5e:	3710      	adds	r7, #16
20001f60:	46bd      	mov	sp, r7
20001f62:	bd80      	pop	{r7, pc}
20001f64:	2000b0c4 	.word	0x2000b0c4
20001f68:	e000ed04 	.word	0xe000ed04

20001f6c <vTaskStartScheduler>:
20001f6c:	b580      	push	{r7, lr}
20001f6e:	b08a      	sub	sp, #40	; 0x28
20001f70:	af04      	add	r7, sp, #16
20001f72:	2300      	movs	r3, #0
20001f74:	60bb      	str	r3, [r7, #8]
20001f76:	2300      	movs	r3, #0
20001f78:	607b      	str	r3, [r7, #4]
20001f7a:	463a      	mov	r2, r7
20001f7c:	1d39      	adds	r1, r7, #4
20001f7e:	f107 0308 	add.w	r3, r7, #8
20001f82:	4618      	mov	r0, r3
20001f84:	f7fe ff40 	bl	20000e08 <vApplicationGetIdleTaskMemory>
20001f88:	6839      	ldr	r1, [r7, #0]
20001f8a:	687b      	ldr	r3, [r7, #4]
20001f8c:	68ba      	ldr	r2, [r7, #8]
20001f8e:	9202      	str	r2, [sp, #8]
20001f90:	9301      	str	r3, [sp, #4]
20001f92:	2300      	movs	r3, #0
20001f94:	9300      	str	r3, [sp, #0]
20001f96:	2300      	movs	r3, #0
20001f98:	460a      	mov	r2, r1
20001f9a:	4924      	ldr	r1, [pc, #144]	; (2000202c <vTaskStartScheduler+0xc0>)
20001f9c:	4824      	ldr	r0, [pc, #144]	; (20002030 <vTaskStartScheduler+0xc4>)
20001f9e:	f7ff fdf9 	bl	20001b94 <xTaskCreateStatic>
20001fa2:	4603      	mov	r3, r0
20001fa4:	4a23      	ldr	r2, [pc, #140]	; (20002034 <vTaskStartScheduler+0xc8>)
20001fa6:	6013      	str	r3, [r2, #0]
20001fa8:	4b22      	ldr	r3, [pc, #136]	; (20002034 <vTaskStartScheduler+0xc8>)
20001faa:	681b      	ldr	r3, [r3, #0]
20001fac:	2b00      	cmp	r3, #0
20001fae:	d002      	beq.n	20001fb6 <vTaskStartScheduler+0x4a>
20001fb0:	2301      	movs	r3, #1
20001fb2:	617b      	str	r3, [r7, #20]
20001fb4:	e001      	b.n	20001fba <vTaskStartScheduler+0x4e>
20001fb6:	2300      	movs	r3, #0
20001fb8:	617b      	str	r3, [r7, #20]
20001fba:	697b      	ldr	r3, [r7, #20]
20001fbc:	2b01      	cmp	r3, #1
20001fbe:	d102      	bne.n	20001fc6 <vTaskStartScheduler+0x5a>
20001fc0:	f000 fd10 	bl	200029e4 <xTimerCreateTimerTask>
20001fc4:	6178      	str	r0, [r7, #20]
20001fc6:	697b      	ldr	r3, [r7, #20]
20001fc8:	2b01      	cmp	r3, #1
20001fca:	d11b      	bne.n	20002004 <vTaskStartScheduler+0x98>
20001fcc:	f04f 0350 	mov.w	r3, #80	; 0x50
20001fd0:	f383 8811 	msr	BASEPRI, r3
20001fd4:	f3bf 8f6f 	isb	sy
20001fd8:	f3bf 8f4f 	dsb	sy
20001fdc:	613b      	str	r3, [r7, #16]
20001fde:	bf00      	nop
20001fe0:	4b15      	ldr	r3, [pc, #84]	; (20002038 <vTaskStartScheduler+0xcc>)
20001fe2:	681b      	ldr	r3, [r3, #0]
20001fe4:	3354      	adds	r3, #84	; 0x54
20001fe6:	4a15      	ldr	r2, [pc, #84]	; (2000203c <vTaskStartScheduler+0xd0>)
20001fe8:	6013      	str	r3, [r2, #0]
20001fea:	4b15      	ldr	r3, [pc, #84]	; (20002040 <vTaskStartScheduler+0xd4>)
20001fec:	f04f 32ff 	mov.w	r2, #4294967295
20001ff0:	601a      	str	r2, [r3, #0]
20001ff2:	4b14      	ldr	r3, [pc, #80]	; (20002044 <vTaskStartScheduler+0xd8>)
20001ff4:	2201      	movs	r2, #1
20001ff6:	601a      	str	r2, [r3, #0]
20001ff8:	4b13      	ldr	r3, [pc, #76]	; (20002048 <vTaskStartScheduler+0xdc>)
20001ffa:	2200      	movs	r2, #0
20001ffc:	601a      	str	r2, [r3, #0]
20001ffe:	f001 f8c7 	bl	20003190 <xPortStartScheduler>
20002002:	e00e      	b.n	20002022 <vTaskStartScheduler+0xb6>
20002004:	697b      	ldr	r3, [r7, #20]
20002006:	f1b3 3fff 	cmp.w	r3, #4294967295
2000200a:	d10a      	bne.n	20002022 <vTaskStartScheduler+0xb6>
2000200c:	f04f 0350 	mov.w	r3, #80	; 0x50
20002010:	f383 8811 	msr	BASEPRI, r3
20002014:	f3bf 8f6f 	isb	sy
20002018:	f3bf 8f4f 	dsb	sy
2000201c:	60fb      	str	r3, [r7, #12]
2000201e:	bf00      	nop
20002020:	e7fe      	b.n	20002020 <vTaskStartScheduler+0xb4>
20002022:	bf00      	nop
20002024:	3718      	adds	r7, #24
20002026:	46bd      	mov	sp, r7
20002028:	bd80      	pop	{r7, pc}
2000202a:	bf00      	nop
2000202c:	200064cc 	.word	0x200064cc
20002030:	20002671 	.word	0x20002671
20002034:	2000b0c0 	.word	0x2000b0c0
20002038:	2000abc8 	.word	0x2000abc8
2000203c:	2000a38c 	.word	0x2000a38c
20002040:	2000b0bc 	.word	0x2000b0bc
20002044:	2000b0a8 	.word	0x2000b0a8
20002048:	2000b0a0 	.word	0x2000b0a0

2000204c <vTaskSuspendAll>:
2000204c:	b480      	push	{r7}
2000204e:	af00      	add	r7, sp, #0
20002050:	4b04      	ldr	r3, [pc, #16]	; (20002064 <vTaskSuspendAll+0x18>)
20002052:	681b      	ldr	r3, [r3, #0]
20002054:	3301      	adds	r3, #1
20002056:	4a03      	ldr	r2, [pc, #12]	; (20002064 <vTaskSuspendAll+0x18>)
20002058:	6013      	str	r3, [r2, #0]
2000205a:	bf00      	nop
2000205c:	46bd      	mov	sp, r7
2000205e:	f85d 7b04 	ldr.w	r7, [sp], #4
20002062:	4770      	bx	lr
20002064:	2000b0c4 	.word	0x2000b0c4

20002068 <xTaskResumeAll>:
20002068:	b580      	push	{r7, lr}
2000206a:	b084      	sub	sp, #16
2000206c:	af00      	add	r7, sp, #0
2000206e:	2300      	movs	r3, #0
20002070:	60fb      	str	r3, [r7, #12]
20002072:	2300      	movs	r3, #0
20002074:	60bb      	str	r3, [r7, #8]
20002076:	4b42      	ldr	r3, [pc, #264]	; (20002180 <xTaskResumeAll+0x118>)
20002078:	681b      	ldr	r3, [r3, #0]
2000207a:	2b00      	cmp	r3, #0
2000207c:	d10a      	bne.n	20002094 <xTaskResumeAll+0x2c>
2000207e:	f04f 0350 	mov.w	r3, #80	; 0x50
20002082:	f383 8811 	msr	BASEPRI, r3
20002086:	f3bf 8f6f 	isb	sy
2000208a:	f3bf 8f4f 	dsb	sy
2000208e:	603b      	str	r3, [r7, #0]
20002090:	bf00      	nop
20002092:	e7fe      	b.n	20002092 <xTaskResumeAll+0x2a>
20002094:	f001 f91e 	bl	200032d4 <vPortEnterCritical>
20002098:	4b39      	ldr	r3, [pc, #228]	; (20002180 <xTaskResumeAll+0x118>)
2000209a:	681b      	ldr	r3, [r3, #0]
2000209c:	3b01      	subs	r3, #1
2000209e:	4a38      	ldr	r2, [pc, #224]	; (20002180 <xTaskResumeAll+0x118>)
200020a0:	6013      	str	r3, [r2, #0]
200020a2:	4b37      	ldr	r3, [pc, #220]	; (20002180 <xTaskResumeAll+0x118>)
200020a4:	681b      	ldr	r3, [r3, #0]
200020a6:	2b00      	cmp	r3, #0
200020a8:	d162      	bne.n	20002170 <xTaskResumeAll+0x108>
200020aa:	4b36      	ldr	r3, [pc, #216]	; (20002184 <xTaskResumeAll+0x11c>)
200020ac:	681b      	ldr	r3, [r3, #0]
200020ae:	2b00      	cmp	r3, #0
200020b0:	d05e      	beq.n	20002170 <xTaskResumeAll+0x108>
200020b2:	e02f      	b.n	20002114 <xTaskResumeAll+0xac>
200020b4:	4b34      	ldr	r3, [pc, #208]	; (20002188 <xTaskResumeAll+0x120>)
200020b6:	68db      	ldr	r3, [r3, #12]
200020b8:	68db      	ldr	r3, [r3, #12]
200020ba:	60fb      	str	r3, [r7, #12]
200020bc:	68fb      	ldr	r3, [r7, #12]
200020be:	3318      	adds	r3, #24
200020c0:	4618      	mov	r0, r3
200020c2:	f7fe ff5f 	bl	20000f84 <uxListRemove>
200020c6:	68fb      	ldr	r3, [r7, #12]
200020c8:	3304      	adds	r3, #4
200020ca:	4618      	mov	r0, r3
200020cc:	f7fe ff5a 	bl	20000f84 <uxListRemove>
200020d0:	68fb      	ldr	r3, [r7, #12]
200020d2:	6ada      	ldr	r2, [r3, #44]	; 0x2c
200020d4:	4b2d      	ldr	r3, [pc, #180]	; (2000218c <xTaskResumeAll+0x124>)
200020d6:	681b      	ldr	r3, [r3, #0]
200020d8:	429a      	cmp	r2, r3
200020da:	d903      	bls.n	200020e4 <xTaskResumeAll+0x7c>
200020dc:	68fb      	ldr	r3, [r7, #12]
200020de:	6adb      	ldr	r3, [r3, #44]	; 0x2c
200020e0:	4a2a      	ldr	r2, [pc, #168]	; (2000218c <xTaskResumeAll+0x124>)
200020e2:	6013      	str	r3, [r2, #0]
200020e4:	68fb      	ldr	r3, [r7, #12]
200020e6:	6ada      	ldr	r2, [r3, #44]	; 0x2c
200020e8:	4613      	mov	r3, r2
200020ea:	009b      	lsls	r3, r3, #2
200020ec:	4413      	add	r3, r2
200020ee:	009b      	lsls	r3, r3, #2
200020f0:	4a27      	ldr	r2, [pc, #156]	; (20002190 <xTaskResumeAll+0x128>)
200020f2:	441a      	add	r2, r3
200020f4:	68fb      	ldr	r3, [r7, #12]
200020f6:	3304      	adds	r3, #4
200020f8:	4619      	mov	r1, r3
200020fa:	4610      	mov	r0, r2
200020fc:	f7fe fee5 	bl	20000eca <vListInsertEnd>
20002100:	68fb      	ldr	r3, [r7, #12]
20002102:	6ada      	ldr	r2, [r3, #44]	; 0x2c
20002104:	4b23      	ldr	r3, [pc, #140]	; (20002194 <xTaskResumeAll+0x12c>)
20002106:	681b      	ldr	r3, [r3, #0]
20002108:	6adb      	ldr	r3, [r3, #44]	; 0x2c
2000210a:	429a      	cmp	r2, r3
2000210c:	d302      	bcc.n	20002114 <xTaskResumeAll+0xac>
2000210e:	4b22      	ldr	r3, [pc, #136]	; (20002198 <xTaskResumeAll+0x130>)
20002110:	2201      	movs	r2, #1
20002112:	601a      	str	r2, [r3, #0]
20002114:	4b1c      	ldr	r3, [pc, #112]	; (20002188 <xTaskResumeAll+0x120>)
20002116:	681b      	ldr	r3, [r3, #0]
20002118:	2b00      	cmp	r3, #0
2000211a:	d1cb      	bne.n	200020b4 <xTaskResumeAll+0x4c>
2000211c:	68fb      	ldr	r3, [r7, #12]
2000211e:	2b00      	cmp	r3, #0
20002120:	d001      	beq.n	20002126 <xTaskResumeAll+0xbe>
20002122:	f000 fb5f 	bl	200027e4 <prvResetNextTaskUnblockTime>
20002126:	4b1d      	ldr	r3, [pc, #116]	; (2000219c <xTaskResumeAll+0x134>)
20002128:	681b      	ldr	r3, [r3, #0]
2000212a:	607b      	str	r3, [r7, #4]
2000212c:	687b      	ldr	r3, [r7, #4]
2000212e:	2b00      	cmp	r3, #0
20002130:	d010      	beq.n	20002154 <xTaskResumeAll+0xec>
20002132:	f000 f847 	bl	200021c4 <xTaskIncrementTick>
20002136:	4603      	mov	r3, r0
20002138:	2b00      	cmp	r3, #0
2000213a:	d002      	beq.n	20002142 <xTaskResumeAll+0xda>
2000213c:	4b16      	ldr	r3, [pc, #88]	; (20002198 <xTaskResumeAll+0x130>)
2000213e:	2201      	movs	r2, #1
20002140:	601a      	str	r2, [r3, #0]
20002142:	687b      	ldr	r3, [r7, #4]
20002144:	3b01      	subs	r3, #1
20002146:	607b      	str	r3, [r7, #4]
20002148:	687b      	ldr	r3, [r7, #4]
2000214a:	2b00      	cmp	r3, #0
2000214c:	d1f1      	bne.n	20002132 <xTaskResumeAll+0xca>
2000214e:	4b13      	ldr	r3, [pc, #76]	; (2000219c <xTaskResumeAll+0x134>)
20002150:	2200      	movs	r2, #0
20002152:	601a      	str	r2, [r3, #0]
20002154:	4b10      	ldr	r3, [pc, #64]	; (20002198 <xTaskResumeAll+0x130>)
20002156:	681b      	ldr	r3, [r3, #0]
20002158:	2b00      	cmp	r3, #0
2000215a:	d009      	beq.n	20002170 <xTaskResumeAll+0x108>
2000215c:	2301      	movs	r3, #1
2000215e:	60bb      	str	r3, [r7, #8]
20002160:	4b0f      	ldr	r3, [pc, #60]	; (200021a0 <xTaskResumeAll+0x138>)
20002162:	f04f 5280 	mov.w	r2, #268435456	; 0x10000000
20002166:	601a      	str	r2, [r3, #0]
20002168:	f3bf 8f4f 	dsb	sy
2000216c:	f3bf 8f6f 	isb	sy
20002170:	f001 f8e0 	bl	20003334 <vPortExitCritical>
20002174:	68bb      	ldr	r3, [r7, #8]
20002176:	4618      	mov	r0, r3
20002178:	3710      	adds	r7, #16
2000217a:	46bd      	mov	sp, r7
2000217c:	bd80      	pop	{r7, pc}
2000217e:	bf00      	nop
20002180:	2000b0c4 	.word	0x2000b0c4
20002184:	2000b09c 	.word	0x2000b09c
20002188:	2000b05c 	.word	0x2000b05c
2000218c:	2000b0a4 	.word	0x2000b0a4
20002190:	2000abcc 	.word	0x2000abcc
20002194:	2000abc8 	.word	0x2000abc8
20002198:	2000b0b0 	.word	0x2000b0b0
2000219c:	2000b0ac 	.word	0x2000b0ac
200021a0:	e000ed04 	.word	0xe000ed04

200021a4 <xTaskGetTickCount>:
200021a4:	b480      	push	{r7}
200021a6:	b083      	sub	sp, #12
200021a8:	af00      	add	r7, sp, #0
200021aa:	4b05      	ldr	r3, [pc, #20]	; (200021c0 <xTaskGetTickCount+0x1c>)
200021ac:	681b      	ldr	r3, [r3, #0]
200021ae:	607b      	str	r3, [r7, #4]
200021b0:	687b      	ldr	r3, [r7, #4]
200021b2:	4618      	mov	r0, r3
200021b4:	370c      	adds	r7, #12
200021b6:	46bd      	mov	sp, r7
200021b8:	f85d 7b04 	ldr.w	r7, [sp], #4
200021bc:	4770      	bx	lr
200021be:	bf00      	nop
200021c0:	2000b0a0 	.word	0x2000b0a0

200021c4 <xTaskIncrementTick>:
200021c4:	b580      	push	{r7, lr}
200021c6:	b086      	sub	sp, #24
200021c8:	af00      	add	r7, sp, #0
200021ca:	2300      	movs	r3, #0
200021cc:	617b      	str	r3, [r7, #20]
200021ce:	4b4f      	ldr	r3, [pc, #316]	; (2000230c <xTaskIncrementTick+0x148>)
200021d0:	681b      	ldr	r3, [r3, #0]
200021d2:	2b00      	cmp	r3, #0
200021d4:	f040 808f 	bne.w	200022f6 <xTaskIncrementTick+0x132>
200021d8:	4b4d      	ldr	r3, [pc, #308]	; (20002310 <xTaskIncrementTick+0x14c>)
200021da:	681b      	ldr	r3, [r3, #0]
200021dc:	3301      	adds	r3, #1
200021de:	613b      	str	r3, [r7, #16]
200021e0:	4a4b      	ldr	r2, [pc, #300]	; (20002310 <xTaskIncrementTick+0x14c>)
200021e2:	693b      	ldr	r3, [r7, #16]
200021e4:	6013      	str	r3, [r2, #0]
200021e6:	693b      	ldr	r3, [r7, #16]
200021e8:	2b00      	cmp	r3, #0
200021ea:	d120      	bne.n	2000222e <xTaskIncrementTick+0x6a>
200021ec:	4b49      	ldr	r3, [pc, #292]	; (20002314 <xTaskIncrementTick+0x150>)
200021ee:	681b      	ldr	r3, [r3, #0]
200021f0:	681b      	ldr	r3, [r3, #0]
200021f2:	2b00      	cmp	r3, #0
200021f4:	d00a      	beq.n	2000220c <xTaskIncrementTick+0x48>
200021f6:	f04f 0350 	mov.w	r3, #80	; 0x50
200021fa:	f383 8811 	msr	BASEPRI, r3
200021fe:	f3bf 8f6f 	isb	sy
20002202:	f3bf 8f4f 	dsb	sy
20002206:	603b      	str	r3, [r7, #0]
20002208:	bf00      	nop
2000220a:	e7fe      	b.n	2000220a <xTaskIncrementTick+0x46>
2000220c:	4b41      	ldr	r3, [pc, #260]	; (20002314 <xTaskIncrementTick+0x150>)
2000220e:	681b      	ldr	r3, [r3, #0]
20002210:	60fb      	str	r3, [r7, #12]
20002212:	4b41      	ldr	r3, [pc, #260]	; (20002318 <xTaskIncrementTick+0x154>)
20002214:	681b      	ldr	r3, [r3, #0]
20002216:	4a3f      	ldr	r2, [pc, #252]	; (20002314 <xTaskIncrementTick+0x150>)
20002218:	6013      	str	r3, [r2, #0]
2000221a:	4a3f      	ldr	r2, [pc, #252]	; (20002318 <xTaskIncrementTick+0x154>)
2000221c:	68fb      	ldr	r3, [r7, #12]
2000221e:	6013      	str	r3, [r2, #0]
20002220:	4b3e      	ldr	r3, [pc, #248]	; (2000231c <xTaskIncrementTick+0x158>)
20002222:	681b      	ldr	r3, [r3, #0]
20002224:	3301      	adds	r3, #1
20002226:	4a3d      	ldr	r2, [pc, #244]	; (2000231c <xTaskIncrementTick+0x158>)
20002228:	6013      	str	r3, [r2, #0]
2000222a:	f000 fadb 	bl	200027e4 <prvResetNextTaskUnblockTime>
2000222e:	4b3c      	ldr	r3, [pc, #240]	; (20002320 <xTaskIncrementTick+0x15c>)
20002230:	681b      	ldr	r3, [r3, #0]
20002232:	693a      	ldr	r2, [r7, #16]
20002234:	429a      	cmp	r2, r3
20002236:	d349      	bcc.n	200022cc <xTaskIncrementTick+0x108>
20002238:	4b36      	ldr	r3, [pc, #216]	; (20002314 <xTaskIncrementTick+0x150>)
2000223a:	681b      	ldr	r3, [r3, #0]
2000223c:	681b      	ldr	r3, [r3, #0]
2000223e:	2b00      	cmp	r3, #0
20002240:	d104      	bne.n	2000224c <xTaskIncrementTick+0x88>
20002242:	4b37      	ldr	r3, [pc, #220]	; (20002320 <xTaskIncrementTick+0x15c>)
20002244:	f04f 32ff 	mov.w	r2, #4294967295
20002248:	601a      	str	r2, [r3, #0]
2000224a:	e03f      	b.n	200022cc <xTaskIncrementTick+0x108>
2000224c:	4b31      	ldr	r3, [pc, #196]	; (20002314 <xTaskIncrementTick+0x150>)
2000224e:	681b      	ldr	r3, [r3, #0]
20002250:	68db      	ldr	r3, [r3, #12]
20002252:	68db      	ldr	r3, [r3, #12]
20002254:	60bb      	str	r3, [r7, #8]
20002256:	68bb      	ldr	r3, [r7, #8]
20002258:	685b      	ldr	r3, [r3, #4]
2000225a:	607b      	str	r3, [r7, #4]
2000225c:	693a      	ldr	r2, [r7, #16]
2000225e:	687b      	ldr	r3, [r7, #4]
20002260:	429a      	cmp	r2, r3
20002262:	d203      	bcs.n	2000226c <xTaskIncrementTick+0xa8>
20002264:	4a2e      	ldr	r2, [pc, #184]	; (20002320 <xTaskIncrementTick+0x15c>)
20002266:	687b      	ldr	r3, [r7, #4]
20002268:	6013      	str	r3, [r2, #0]
2000226a:	e02f      	b.n	200022cc <xTaskIncrementTick+0x108>
2000226c:	68bb      	ldr	r3, [r7, #8]
2000226e:	3304      	adds	r3, #4
20002270:	4618      	mov	r0, r3
20002272:	f7fe fe87 	bl	20000f84 <uxListRemove>
20002276:	68bb      	ldr	r3, [r7, #8]
20002278:	6a9b      	ldr	r3, [r3, #40]	; 0x28
2000227a:	2b00      	cmp	r3, #0
2000227c:	d004      	beq.n	20002288 <xTaskIncrementTick+0xc4>
2000227e:	68bb      	ldr	r3, [r7, #8]
20002280:	3318      	adds	r3, #24
20002282:	4618      	mov	r0, r3
20002284:	f7fe fe7e 	bl	20000f84 <uxListRemove>
20002288:	68bb      	ldr	r3, [r7, #8]
2000228a:	6ada      	ldr	r2, [r3, #44]	; 0x2c
2000228c:	4b25      	ldr	r3, [pc, #148]	; (20002324 <xTaskIncrementTick+0x160>)
2000228e:	681b      	ldr	r3, [r3, #0]
20002290:	429a      	cmp	r2, r3
20002292:	d903      	bls.n	2000229c <xTaskIncrementTick+0xd8>
20002294:	68bb      	ldr	r3, [r7, #8]
20002296:	6adb      	ldr	r3, [r3, #44]	; 0x2c
20002298:	4a22      	ldr	r2, [pc, #136]	; (20002324 <xTaskIncrementTick+0x160>)
2000229a:	6013      	str	r3, [r2, #0]
2000229c:	68bb      	ldr	r3, [r7, #8]
2000229e:	6ada      	ldr	r2, [r3, #44]	; 0x2c
200022a0:	4613      	mov	r3, r2
200022a2:	009b      	lsls	r3, r3, #2
200022a4:	4413      	add	r3, r2
200022a6:	009b      	lsls	r3, r3, #2
200022a8:	4a1f      	ldr	r2, [pc, #124]	; (20002328 <xTaskIncrementTick+0x164>)
200022aa:	441a      	add	r2, r3
200022ac:	68bb      	ldr	r3, [r7, #8]
200022ae:	3304      	adds	r3, #4
200022b0:	4619      	mov	r1, r3
200022b2:	4610      	mov	r0, r2
200022b4:	f7fe fe09 	bl	20000eca <vListInsertEnd>
200022b8:	68bb      	ldr	r3, [r7, #8]
200022ba:	6ada      	ldr	r2, [r3, #44]	; 0x2c
200022bc:	4b1b      	ldr	r3, [pc, #108]	; (2000232c <xTaskIncrementTick+0x168>)
200022be:	681b      	ldr	r3, [r3, #0]
200022c0:	6adb      	ldr	r3, [r3, #44]	; 0x2c
200022c2:	429a      	cmp	r2, r3
200022c4:	d3b8      	bcc.n	20002238 <xTaskIncrementTick+0x74>
200022c6:	2301      	movs	r3, #1
200022c8:	617b      	str	r3, [r7, #20]
200022ca:	e7b5      	b.n	20002238 <xTaskIncrementTick+0x74>
200022cc:	4b17      	ldr	r3, [pc, #92]	; (2000232c <xTaskIncrementTick+0x168>)
200022ce:	681b      	ldr	r3, [r3, #0]
200022d0:	6ada      	ldr	r2, [r3, #44]	; 0x2c
200022d2:	4915      	ldr	r1, [pc, #84]	; (20002328 <xTaskIncrementTick+0x164>)
200022d4:	4613      	mov	r3, r2
200022d6:	009b      	lsls	r3, r3, #2
200022d8:	4413      	add	r3, r2
200022da:	009b      	lsls	r3, r3, #2
200022dc:	440b      	add	r3, r1
200022de:	681b      	ldr	r3, [r3, #0]
200022e0:	2b01      	cmp	r3, #1
200022e2:	d901      	bls.n	200022e8 <xTaskIncrementTick+0x124>
200022e4:	2301      	movs	r3, #1
200022e6:	617b      	str	r3, [r7, #20]
200022e8:	4b11      	ldr	r3, [pc, #68]	; (20002330 <xTaskIncrementTick+0x16c>)
200022ea:	681b      	ldr	r3, [r3, #0]
200022ec:	2b00      	cmp	r3, #0
200022ee:	d007      	beq.n	20002300 <xTaskIncrementTick+0x13c>
200022f0:	2301      	movs	r3, #1
200022f2:	617b      	str	r3, [r7, #20]
200022f4:	e004      	b.n	20002300 <xTaskIncrementTick+0x13c>
200022f6:	4b0f      	ldr	r3, [pc, #60]	; (20002334 <xTaskIncrementTick+0x170>)
200022f8:	681b      	ldr	r3, [r3, #0]
200022fa:	3301      	adds	r3, #1
200022fc:	4a0d      	ldr	r2, [pc, #52]	; (20002334 <xTaskIncrementTick+0x170>)
200022fe:	6013      	str	r3, [r2, #0]
20002300:	697b      	ldr	r3, [r7, #20]
20002302:	4618      	mov	r0, r3
20002304:	3718      	adds	r7, #24
20002306:	46bd      	mov	sp, r7
20002308:	bd80      	pop	{r7, pc}
2000230a:	bf00      	nop
2000230c:	2000b0c4 	.word	0x2000b0c4
20002310:	2000b0a0 	.word	0x2000b0a0
20002314:	2000b054 	.word	0x2000b054
20002318:	2000b058 	.word	0x2000b058
2000231c:	2000b0b4 	.word	0x2000b0b4
20002320:	2000b0bc 	.word	0x2000b0bc
20002324:	2000b0a4 	.word	0x2000b0a4
20002328:	2000abcc 	.word	0x2000abcc
2000232c:	2000abc8 	.word	0x2000abc8
20002330:	2000b0b0 	.word	0x2000b0b0
20002334:	2000b0ac 	.word	0x2000b0ac

20002338 <vTaskSwitchContext>:
20002338:	b480      	push	{r7}
2000233a:	b085      	sub	sp, #20
2000233c:	af00      	add	r7, sp, #0
2000233e:	4b2a      	ldr	r3, [pc, #168]	; (200023e8 <vTaskSwitchContext+0xb0>)
20002340:	681b      	ldr	r3, [r3, #0]
20002342:	2b00      	cmp	r3, #0
20002344:	d003      	beq.n	2000234e <vTaskSwitchContext+0x16>
20002346:	4b29      	ldr	r3, [pc, #164]	; (200023ec <vTaskSwitchContext+0xb4>)
20002348:	2201      	movs	r2, #1
2000234a:	601a      	str	r2, [r3, #0]
2000234c:	e046      	b.n	200023dc <vTaskSwitchContext+0xa4>
2000234e:	4b27      	ldr	r3, [pc, #156]	; (200023ec <vTaskSwitchContext+0xb4>)
20002350:	2200      	movs	r2, #0
20002352:	601a      	str	r2, [r3, #0]
20002354:	4b26      	ldr	r3, [pc, #152]	; (200023f0 <vTaskSwitchContext+0xb8>)
20002356:	681b      	ldr	r3, [r3, #0]
20002358:	60fb      	str	r3, [r7, #12]
2000235a:	e010      	b.n	2000237e <vTaskSwitchContext+0x46>
2000235c:	68fb      	ldr	r3, [r7, #12]
2000235e:	2b00      	cmp	r3, #0
20002360:	d10a      	bne.n	20002378 <vTaskSwitchContext+0x40>
20002362:	f04f 0350 	mov.w	r3, #80	; 0x50
20002366:	f383 8811 	msr	BASEPRI, r3
2000236a:	f3bf 8f6f 	isb	sy
2000236e:	f3bf 8f4f 	dsb	sy
20002372:	607b      	str	r3, [r7, #4]
20002374:	bf00      	nop
20002376:	e7fe      	b.n	20002376 <vTaskSwitchContext+0x3e>
20002378:	68fb      	ldr	r3, [r7, #12]
2000237a:	3b01      	subs	r3, #1
2000237c:	60fb      	str	r3, [r7, #12]
2000237e:	491d      	ldr	r1, [pc, #116]	; (200023f4 <vTaskSwitchContext+0xbc>)
20002380:	68fa      	ldr	r2, [r7, #12]
20002382:	4613      	mov	r3, r2
20002384:	009b      	lsls	r3, r3, #2
20002386:	4413      	add	r3, r2
20002388:	009b      	lsls	r3, r3, #2
2000238a:	440b      	add	r3, r1
2000238c:	681b      	ldr	r3, [r3, #0]
2000238e:	2b00      	cmp	r3, #0
20002390:	d0e4      	beq.n	2000235c <vTaskSwitchContext+0x24>
20002392:	68fa      	ldr	r2, [r7, #12]
20002394:	4613      	mov	r3, r2
20002396:	009b      	lsls	r3, r3, #2
20002398:	4413      	add	r3, r2
2000239a:	009b      	lsls	r3, r3, #2
2000239c:	4a15      	ldr	r2, [pc, #84]	; (200023f4 <vTaskSwitchContext+0xbc>)
2000239e:	4413      	add	r3, r2
200023a0:	60bb      	str	r3, [r7, #8]
200023a2:	68bb      	ldr	r3, [r7, #8]
200023a4:	685b      	ldr	r3, [r3, #4]
200023a6:	685a      	ldr	r2, [r3, #4]
200023a8:	68bb      	ldr	r3, [r7, #8]
200023aa:	605a      	str	r2, [r3, #4]
200023ac:	68bb      	ldr	r3, [r7, #8]
200023ae:	685a      	ldr	r2, [r3, #4]
200023b0:	68bb      	ldr	r3, [r7, #8]
200023b2:	3308      	adds	r3, #8
200023b4:	429a      	cmp	r2, r3
200023b6:	d104      	bne.n	200023c2 <vTaskSwitchContext+0x8a>
200023b8:	68bb      	ldr	r3, [r7, #8]
200023ba:	685b      	ldr	r3, [r3, #4]
200023bc:	685a      	ldr	r2, [r3, #4]
200023be:	68bb      	ldr	r3, [r7, #8]
200023c0:	605a      	str	r2, [r3, #4]
200023c2:	68bb      	ldr	r3, [r7, #8]
200023c4:	685b      	ldr	r3, [r3, #4]
200023c6:	68db      	ldr	r3, [r3, #12]
200023c8:	4a0b      	ldr	r2, [pc, #44]	; (200023f8 <vTaskSwitchContext+0xc0>)
200023ca:	6013      	str	r3, [r2, #0]
200023cc:	4a08      	ldr	r2, [pc, #32]	; (200023f0 <vTaskSwitchContext+0xb8>)
200023ce:	68fb      	ldr	r3, [r7, #12]
200023d0:	6013      	str	r3, [r2, #0]
200023d2:	4b09      	ldr	r3, [pc, #36]	; (200023f8 <vTaskSwitchContext+0xc0>)
200023d4:	681b      	ldr	r3, [r3, #0]
200023d6:	3354      	adds	r3, #84	; 0x54
200023d8:	4a08      	ldr	r2, [pc, #32]	; (200023fc <vTaskSwitchContext+0xc4>)
200023da:	6013      	str	r3, [r2, #0]
200023dc:	bf00      	nop
200023de:	3714      	adds	r7, #20
200023e0:	46bd      	mov	sp, r7
200023e2:	f85d 7b04 	ldr.w	r7, [sp], #4
200023e6:	4770      	bx	lr
200023e8:	2000b0c4 	.word	0x2000b0c4
200023ec:	2000b0b0 	.word	0x2000b0b0
200023f0:	2000b0a4 	.word	0x2000b0a4
200023f4:	2000abcc 	.word	0x2000abcc
200023f8:	2000abc8 	.word	0x2000abc8
200023fc:	2000a38c 	.word	0x2000a38c

20002400 <vTaskPlaceOnEventList>:
20002400:	b580      	push	{r7, lr}
20002402:	b084      	sub	sp, #16
20002404:	af00      	add	r7, sp, #0
20002406:	6078      	str	r0, [r7, #4]
20002408:	6039      	str	r1, [r7, #0]
2000240a:	687b      	ldr	r3, [r7, #4]
2000240c:	2b00      	cmp	r3, #0
2000240e:	d10a      	bne.n	20002426 <vTaskPlaceOnEventList+0x26>
20002410:	f04f 0350 	mov.w	r3, #80	; 0x50
20002414:	f383 8811 	msr	BASEPRI, r3
20002418:	f3bf 8f6f 	isb	sy
2000241c:	f3bf 8f4f 	dsb	sy
20002420:	60fb      	str	r3, [r7, #12]
20002422:	bf00      	nop
20002424:	e7fe      	b.n	20002424 <vTaskPlaceOnEventList+0x24>
20002426:	4b07      	ldr	r3, [pc, #28]	; (20002444 <vTaskPlaceOnEventList+0x44>)
20002428:	681b      	ldr	r3, [r3, #0]
2000242a:	3318      	adds	r3, #24
2000242c:	4619      	mov	r1, r3
2000242e:	6878      	ldr	r0, [r7, #4]
20002430:	f7fe fd6f 	bl	20000f12 <vListInsert>
20002434:	2101      	movs	r1, #1
20002436:	6838      	ldr	r0, [r7, #0]
20002438:	f000 fa80 	bl	2000293c <prvAddCurrentTaskToDelayedList>
2000243c:	bf00      	nop
2000243e:	3710      	adds	r7, #16
20002440:	46bd      	mov	sp, r7
20002442:	bd80      	pop	{r7, pc}
20002444:	2000abc8 	.word	0x2000abc8

20002448 <vTaskPlaceOnEventListRestricted>:
20002448:	b580      	push	{r7, lr}
2000244a:	b086      	sub	sp, #24
2000244c:	af00      	add	r7, sp, #0
2000244e:	60f8      	str	r0, [r7, #12]
20002450:	60b9      	str	r1, [r7, #8]
20002452:	607a      	str	r2, [r7, #4]
20002454:	68fb      	ldr	r3, [r7, #12]
20002456:	2b00      	cmp	r3, #0
20002458:	d10a      	bne.n	20002470 <vTaskPlaceOnEventListRestricted+0x28>
2000245a:	f04f 0350 	mov.w	r3, #80	; 0x50
2000245e:	f383 8811 	msr	BASEPRI, r3
20002462:	f3bf 8f6f 	isb	sy
20002466:	f3bf 8f4f 	dsb	sy
2000246a:	617b      	str	r3, [r7, #20]
2000246c:	bf00      	nop
2000246e:	e7fe      	b.n	2000246e <vTaskPlaceOnEventListRestricted+0x26>
20002470:	4b0a      	ldr	r3, [pc, #40]	; (2000249c <vTaskPlaceOnEventListRestricted+0x54>)
20002472:	681b      	ldr	r3, [r3, #0]
20002474:	3318      	adds	r3, #24
20002476:	4619      	mov	r1, r3
20002478:	68f8      	ldr	r0, [r7, #12]
2000247a:	f7fe fd26 	bl	20000eca <vListInsertEnd>
2000247e:	687b      	ldr	r3, [r7, #4]
20002480:	2b00      	cmp	r3, #0
20002482:	d002      	beq.n	2000248a <vTaskPlaceOnEventListRestricted+0x42>
20002484:	f04f 33ff 	mov.w	r3, #4294967295
20002488:	60bb      	str	r3, [r7, #8]
2000248a:	6879      	ldr	r1, [r7, #4]
2000248c:	68b8      	ldr	r0, [r7, #8]
2000248e:	f000 fa55 	bl	2000293c <prvAddCurrentTaskToDelayedList>
20002492:	bf00      	nop
20002494:	3718      	adds	r7, #24
20002496:	46bd      	mov	sp, r7
20002498:	bd80      	pop	{r7, pc}
2000249a:	bf00      	nop
2000249c:	2000abc8 	.word	0x2000abc8

200024a0 <xTaskRemoveFromEventList>:
200024a0:	b580      	push	{r7, lr}
200024a2:	b086      	sub	sp, #24
200024a4:	af00      	add	r7, sp, #0
200024a6:	6078      	str	r0, [r7, #4]
200024a8:	687b      	ldr	r3, [r7, #4]
200024aa:	68db      	ldr	r3, [r3, #12]
200024ac:	68db      	ldr	r3, [r3, #12]
200024ae:	613b      	str	r3, [r7, #16]
200024b0:	693b      	ldr	r3, [r7, #16]
200024b2:	2b00      	cmp	r3, #0
200024b4:	d10a      	bne.n	200024cc <xTaskRemoveFromEventList+0x2c>
200024b6:	f04f 0350 	mov.w	r3, #80	; 0x50
200024ba:	f383 8811 	msr	BASEPRI, r3
200024be:	f3bf 8f6f 	isb	sy
200024c2:	f3bf 8f4f 	dsb	sy
200024c6:	60fb      	str	r3, [r7, #12]
200024c8:	bf00      	nop
200024ca:	e7fe      	b.n	200024ca <xTaskRemoveFromEventList+0x2a>
200024cc:	693b      	ldr	r3, [r7, #16]
200024ce:	3318      	adds	r3, #24
200024d0:	4618      	mov	r0, r3
200024d2:	f7fe fd57 	bl	20000f84 <uxListRemove>
200024d6:	4b1e      	ldr	r3, [pc, #120]	; (20002550 <xTaskRemoveFromEventList+0xb0>)
200024d8:	681b      	ldr	r3, [r3, #0]
200024da:	2b00      	cmp	r3, #0
200024dc:	d11d      	bne.n	2000251a <xTaskRemoveFromEventList+0x7a>
200024de:	693b      	ldr	r3, [r7, #16]
200024e0:	3304      	adds	r3, #4
200024e2:	4618      	mov	r0, r3
200024e4:	f7fe fd4e 	bl	20000f84 <uxListRemove>
200024e8:	693b      	ldr	r3, [r7, #16]
200024ea:	6ada      	ldr	r2, [r3, #44]	; 0x2c
200024ec:	4b19      	ldr	r3, [pc, #100]	; (20002554 <xTaskRemoveFromEventList+0xb4>)
200024ee:	681b      	ldr	r3, [r3, #0]
200024f0:	429a      	cmp	r2, r3
200024f2:	d903      	bls.n	200024fc <xTaskRemoveFromEventList+0x5c>
200024f4:	693b      	ldr	r3, [r7, #16]
200024f6:	6adb      	ldr	r3, [r3, #44]	; 0x2c
200024f8:	4a16      	ldr	r2, [pc, #88]	; (20002554 <xTaskRemoveFromEventList+0xb4>)
200024fa:	6013      	str	r3, [r2, #0]
200024fc:	693b      	ldr	r3, [r7, #16]
200024fe:	6ada      	ldr	r2, [r3, #44]	; 0x2c
20002500:	4613      	mov	r3, r2
20002502:	009b      	lsls	r3, r3, #2
20002504:	4413      	add	r3, r2
20002506:	009b      	lsls	r3, r3, #2
20002508:	4a13      	ldr	r2, [pc, #76]	; (20002558 <xTaskRemoveFromEventList+0xb8>)
2000250a:	441a      	add	r2, r3
2000250c:	693b      	ldr	r3, [r7, #16]
2000250e:	3304      	adds	r3, #4
20002510:	4619      	mov	r1, r3
20002512:	4610      	mov	r0, r2
20002514:	f7fe fcd9 	bl	20000eca <vListInsertEnd>
20002518:	e005      	b.n	20002526 <xTaskRemoveFromEventList+0x86>
2000251a:	693b      	ldr	r3, [r7, #16]
2000251c:	3318      	adds	r3, #24
2000251e:	4619      	mov	r1, r3
20002520:	480e      	ldr	r0, [pc, #56]	; (2000255c <xTaskRemoveFromEventList+0xbc>)
20002522:	f7fe fcd2 	bl	20000eca <vListInsertEnd>
20002526:	693b      	ldr	r3, [r7, #16]
20002528:	6ada      	ldr	r2, [r3, #44]	; 0x2c
2000252a:	4b0d      	ldr	r3, [pc, #52]	; (20002560 <xTaskRemoveFromEventList+0xc0>)
2000252c:	681b      	ldr	r3, [r3, #0]
2000252e:	6adb      	ldr	r3, [r3, #44]	; 0x2c
20002530:	429a      	cmp	r2, r3
20002532:	d905      	bls.n	20002540 <xTaskRemoveFromEventList+0xa0>
20002534:	2301      	movs	r3, #1
20002536:	617b      	str	r3, [r7, #20]
20002538:	4b0a      	ldr	r3, [pc, #40]	; (20002564 <xTaskRemoveFromEventList+0xc4>)
2000253a:	2201      	movs	r2, #1
2000253c:	601a      	str	r2, [r3, #0]
2000253e:	e001      	b.n	20002544 <xTaskRemoveFromEventList+0xa4>
20002540:	2300      	movs	r3, #0
20002542:	617b      	str	r3, [r7, #20]
20002544:	697b      	ldr	r3, [r7, #20]
20002546:	4618      	mov	r0, r3
20002548:	3718      	adds	r7, #24
2000254a:	46bd      	mov	sp, r7
2000254c:	bd80      	pop	{r7, pc}
2000254e:	bf00      	nop
20002550:	2000b0c4 	.word	0x2000b0c4
20002554:	2000b0a4 	.word	0x2000b0a4
20002558:	2000abcc 	.word	0x2000abcc
2000255c:	2000b05c 	.word	0x2000b05c
20002560:	2000abc8 	.word	0x2000abc8
20002564:	2000b0b0 	.word	0x2000b0b0

20002568 <vTaskInternalSetTimeOutState>:
20002568:	b480      	push	{r7}
2000256a:	b083      	sub	sp, #12
2000256c:	af00      	add	r7, sp, #0
2000256e:	6078      	str	r0, [r7, #4]
20002570:	4b06      	ldr	r3, [pc, #24]	; (2000258c <vTaskInternalSetTimeOutState+0x24>)
20002572:	681a      	ldr	r2, [r3, #0]
20002574:	687b      	ldr	r3, [r7, #4]
20002576:	601a      	str	r2, [r3, #0]
20002578:	4b05      	ldr	r3, [pc, #20]	; (20002590 <vTaskInternalSetTimeOutState+0x28>)
2000257a:	681a      	ldr	r2, [r3, #0]
2000257c:	687b      	ldr	r3, [r7, #4]
2000257e:	605a      	str	r2, [r3, #4]
20002580:	bf00      	nop
20002582:	370c      	adds	r7, #12
20002584:	46bd      	mov	sp, r7
20002586:	f85d 7b04 	ldr.w	r7, [sp], #4
2000258a:	4770      	bx	lr
2000258c:	2000b0b4 	.word	0x2000b0b4
20002590:	2000b0a0 	.word	0x2000b0a0

20002594 <xTaskCheckForTimeOut>:
20002594:	b580      	push	{r7, lr}
20002596:	b088      	sub	sp, #32
20002598:	af00      	add	r7, sp, #0
2000259a:	6078      	str	r0, [r7, #4]
2000259c:	6039      	str	r1, [r7, #0]
2000259e:	687b      	ldr	r3, [r7, #4]
200025a0:	2b00      	cmp	r3, #0
200025a2:	d10a      	bne.n	200025ba <xTaskCheckForTimeOut+0x26>
200025a4:	f04f 0350 	mov.w	r3, #80	; 0x50
200025a8:	f383 8811 	msr	BASEPRI, r3
200025ac:	f3bf 8f6f 	isb	sy
200025b0:	f3bf 8f4f 	dsb	sy
200025b4:	613b      	str	r3, [r7, #16]
200025b6:	bf00      	nop
200025b8:	e7fe      	b.n	200025b8 <xTaskCheckForTimeOut+0x24>
200025ba:	683b      	ldr	r3, [r7, #0]
200025bc:	2b00      	cmp	r3, #0
200025be:	d10a      	bne.n	200025d6 <xTaskCheckForTimeOut+0x42>
200025c0:	f04f 0350 	mov.w	r3, #80	; 0x50
200025c4:	f383 8811 	msr	BASEPRI, r3
200025c8:	f3bf 8f6f 	isb	sy
200025cc:	f3bf 8f4f 	dsb	sy
200025d0:	60fb      	str	r3, [r7, #12]
200025d2:	bf00      	nop
200025d4:	e7fe      	b.n	200025d4 <xTaskCheckForTimeOut+0x40>
200025d6:	f000 fe7d 	bl	200032d4 <vPortEnterCritical>
200025da:	4b1d      	ldr	r3, [pc, #116]	; (20002650 <xTaskCheckForTimeOut+0xbc>)
200025dc:	681b      	ldr	r3, [r3, #0]
200025de:	61bb      	str	r3, [r7, #24]
200025e0:	687b      	ldr	r3, [r7, #4]
200025e2:	685b      	ldr	r3, [r3, #4]
200025e4:	69ba      	ldr	r2, [r7, #24]
200025e6:	1ad3      	subs	r3, r2, r3
200025e8:	617b      	str	r3, [r7, #20]
200025ea:	683b      	ldr	r3, [r7, #0]
200025ec:	681b      	ldr	r3, [r3, #0]
200025ee:	f1b3 3fff 	cmp.w	r3, #4294967295
200025f2:	d102      	bne.n	200025fa <xTaskCheckForTimeOut+0x66>
200025f4:	2300      	movs	r3, #0
200025f6:	61fb      	str	r3, [r7, #28]
200025f8:	e023      	b.n	20002642 <xTaskCheckForTimeOut+0xae>
200025fa:	687b      	ldr	r3, [r7, #4]
200025fc:	681a      	ldr	r2, [r3, #0]
200025fe:	4b15      	ldr	r3, [pc, #84]	; (20002654 <xTaskCheckForTimeOut+0xc0>)
20002600:	681b      	ldr	r3, [r3, #0]
20002602:	429a      	cmp	r2, r3
20002604:	d007      	beq.n	20002616 <xTaskCheckForTimeOut+0x82>
20002606:	687b      	ldr	r3, [r7, #4]
20002608:	685b      	ldr	r3, [r3, #4]
2000260a:	69ba      	ldr	r2, [r7, #24]
2000260c:	429a      	cmp	r2, r3
2000260e:	d302      	bcc.n	20002616 <xTaskCheckForTimeOut+0x82>
20002610:	2301      	movs	r3, #1
20002612:	61fb      	str	r3, [r7, #28]
20002614:	e015      	b.n	20002642 <xTaskCheckForTimeOut+0xae>
20002616:	683b      	ldr	r3, [r7, #0]
20002618:	681b      	ldr	r3, [r3, #0]
2000261a:	697a      	ldr	r2, [r7, #20]
2000261c:	429a      	cmp	r2, r3
2000261e:	d20b      	bcs.n	20002638 <xTaskCheckForTimeOut+0xa4>
20002620:	683b      	ldr	r3, [r7, #0]
20002622:	681a      	ldr	r2, [r3, #0]
20002624:	697b      	ldr	r3, [r7, #20]
20002626:	1ad2      	subs	r2, r2, r3
20002628:	683b      	ldr	r3, [r7, #0]
2000262a:	601a      	str	r2, [r3, #0]
2000262c:	6878      	ldr	r0, [r7, #4]
2000262e:	f7ff ff9b 	bl	20002568 <vTaskInternalSetTimeOutState>
20002632:	2300      	movs	r3, #0
20002634:	61fb      	str	r3, [r7, #28]
20002636:	e004      	b.n	20002642 <xTaskCheckForTimeOut+0xae>
20002638:	683b      	ldr	r3, [r7, #0]
2000263a:	2200      	movs	r2, #0
2000263c:	601a      	str	r2, [r3, #0]
2000263e:	2301      	movs	r3, #1
20002640:	61fb      	str	r3, [r7, #28]
20002642:	f000 fe77 	bl	20003334 <vPortExitCritical>
20002646:	69fb      	ldr	r3, [r7, #28]
20002648:	4618      	mov	r0, r3
2000264a:	3720      	adds	r7, #32
2000264c:	46bd      	mov	sp, r7
2000264e:	bd80      	pop	{r7, pc}
20002650:	2000b0a0 	.word	0x2000b0a0
20002654:	2000b0b4 	.word	0x2000b0b4

20002658 <vTaskMissedYield>:
20002658:	b480      	push	{r7}
2000265a:	af00      	add	r7, sp, #0
2000265c:	4b03      	ldr	r3, [pc, #12]	; (2000266c <vTaskMissedYield+0x14>)
2000265e:	2201      	movs	r2, #1
20002660:	601a      	str	r2, [r3, #0]
20002662:	bf00      	nop
20002664:	46bd      	mov	sp, r7
20002666:	f85d 7b04 	ldr.w	r7, [sp], #4
2000266a:	4770      	bx	lr
2000266c:	2000b0b0 	.word	0x2000b0b0

20002670 <prvIdleTask>:
20002670:	b580      	push	{r7, lr}
20002672:	b082      	sub	sp, #8
20002674:	af00      	add	r7, sp, #0
20002676:	6078      	str	r0, [r7, #4]
20002678:	f000 f852 	bl	20002720 <prvCheckTasksWaitingTermination>
2000267c:	4b06      	ldr	r3, [pc, #24]	; (20002698 <prvIdleTask+0x28>)
2000267e:	681b      	ldr	r3, [r3, #0]
20002680:	2b01      	cmp	r3, #1
20002682:	d9f9      	bls.n	20002678 <prvIdleTask+0x8>
20002684:	4b05      	ldr	r3, [pc, #20]	; (2000269c <prvIdleTask+0x2c>)
20002686:	f04f 5280 	mov.w	r2, #268435456	; 0x10000000
2000268a:	601a      	str	r2, [r3, #0]
2000268c:	f3bf 8f4f 	dsb	sy
20002690:	f3bf 8f6f 	isb	sy
20002694:	e7f0      	b.n	20002678 <prvIdleTask+0x8>
20002696:	bf00      	nop
20002698:	2000abcc 	.word	0x2000abcc
2000269c:	e000ed04 	.word	0xe000ed04

200026a0 <prvInitialiseTaskLists>:
200026a0:	b580      	push	{r7, lr}
200026a2:	b082      	sub	sp, #8
200026a4:	af00      	add	r7, sp, #0
200026a6:	2300      	movs	r3, #0
200026a8:	607b      	str	r3, [r7, #4]
200026aa:	e00c      	b.n	200026c6 <prvInitialiseTaskLists+0x26>
200026ac:	687a      	ldr	r2, [r7, #4]
200026ae:	4613      	mov	r3, r2
200026b0:	009b      	lsls	r3, r3, #2
200026b2:	4413      	add	r3, r2
200026b4:	009b      	lsls	r3, r3, #2
200026b6:	4a12      	ldr	r2, [pc, #72]	; (20002700 <prvInitialiseTaskLists+0x60>)
200026b8:	4413      	add	r3, r2
200026ba:	4618      	mov	r0, r3
200026bc:	f7fe fbd8 	bl	20000e70 <vListInitialise>
200026c0:	687b      	ldr	r3, [r7, #4]
200026c2:	3301      	adds	r3, #1
200026c4:	607b      	str	r3, [r7, #4]
200026c6:	687b      	ldr	r3, [r7, #4]
200026c8:	2b37      	cmp	r3, #55	; 0x37
200026ca:	d9ef      	bls.n	200026ac <prvInitialiseTaskLists+0xc>
200026cc:	480d      	ldr	r0, [pc, #52]	; (20002704 <prvInitialiseTaskLists+0x64>)
200026ce:	f7fe fbcf 	bl	20000e70 <vListInitialise>
200026d2:	480d      	ldr	r0, [pc, #52]	; (20002708 <prvInitialiseTaskLists+0x68>)
200026d4:	f7fe fbcc 	bl	20000e70 <vListInitialise>
200026d8:	480c      	ldr	r0, [pc, #48]	; (2000270c <prvInitialiseTaskLists+0x6c>)
200026da:	f7fe fbc9 	bl	20000e70 <vListInitialise>
200026de:	480c      	ldr	r0, [pc, #48]	; (20002710 <prvInitialiseTaskLists+0x70>)
200026e0:	f7fe fbc6 	bl	20000e70 <vListInitialise>
200026e4:	480b      	ldr	r0, [pc, #44]	; (20002714 <prvInitialiseTaskLists+0x74>)
200026e6:	f7fe fbc3 	bl	20000e70 <vListInitialise>
200026ea:	4b0b      	ldr	r3, [pc, #44]	; (20002718 <prvInitialiseTaskLists+0x78>)
200026ec:	4a05      	ldr	r2, [pc, #20]	; (20002704 <prvInitialiseTaskLists+0x64>)
200026ee:	601a      	str	r2, [r3, #0]
200026f0:	4b0a      	ldr	r3, [pc, #40]	; (2000271c <prvInitialiseTaskLists+0x7c>)
200026f2:	4a05      	ldr	r2, [pc, #20]	; (20002708 <prvInitialiseTaskLists+0x68>)
200026f4:	601a      	str	r2, [r3, #0]
200026f6:	bf00      	nop
200026f8:	3708      	adds	r7, #8
200026fa:	46bd      	mov	sp, r7
200026fc:	bd80      	pop	{r7, pc}
200026fe:	bf00      	nop
20002700:	2000abcc 	.word	0x2000abcc
20002704:	2000b02c 	.word	0x2000b02c
20002708:	2000b040 	.word	0x2000b040
2000270c:	2000b05c 	.word	0x2000b05c
20002710:	2000b070 	.word	0x2000b070
20002714:	2000b088 	.word	0x2000b088
20002718:	2000b054 	.word	0x2000b054
2000271c:	2000b058 	.word	0x2000b058

20002720 <prvCheckTasksWaitingTermination>:
20002720:	b580      	push	{r7, lr}
20002722:	b082      	sub	sp, #8
20002724:	af00      	add	r7, sp, #0
20002726:	e019      	b.n	2000275c <prvCheckTasksWaitingTermination+0x3c>
20002728:	f000 fdd4 	bl	200032d4 <vPortEnterCritical>
2000272c:	4b10      	ldr	r3, [pc, #64]	; (20002770 <prvCheckTasksWaitingTermination+0x50>)
2000272e:	68db      	ldr	r3, [r3, #12]
20002730:	68db      	ldr	r3, [r3, #12]
20002732:	607b      	str	r3, [r7, #4]
20002734:	687b      	ldr	r3, [r7, #4]
20002736:	3304      	adds	r3, #4
20002738:	4618      	mov	r0, r3
2000273a:	f7fe fc23 	bl	20000f84 <uxListRemove>
2000273e:	4b0d      	ldr	r3, [pc, #52]	; (20002774 <prvCheckTasksWaitingTermination+0x54>)
20002740:	681b      	ldr	r3, [r3, #0]
20002742:	3b01      	subs	r3, #1
20002744:	4a0b      	ldr	r2, [pc, #44]	; (20002774 <prvCheckTasksWaitingTermination+0x54>)
20002746:	6013      	str	r3, [r2, #0]
20002748:	4b0b      	ldr	r3, [pc, #44]	; (20002778 <prvCheckTasksWaitingTermination+0x58>)
2000274a:	681b      	ldr	r3, [r3, #0]
2000274c:	3b01      	subs	r3, #1
2000274e:	4a0a      	ldr	r2, [pc, #40]	; (20002778 <prvCheckTasksWaitingTermination+0x58>)
20002750:	6013      	str	r3, [r2, #0]
20002752:	f000 fdef 	bl	20003334 <vPortExitCritical>
20002756:	6878      	ldr	r0, [r7, #4]
20002758:	f000 f810 	bl	2000277c <prvDeleteTCB>
2000275c:	4b06      	ldr	r3, [pc, #24]	; (20002778 <prvCheckTasksWaitingTermination+0x58>)
2000275e:	681b      	ldr	r3, [r3, #0]
20002760:	2b00      	cmp	r3, #0
20002762:	d1e1      	bne.n	20002728 <prvCheckTasksWaitingTermination+0x8>
20002764:	bf00      	nop
20002766:	bf00      	nop
20002768:	3708      	adds	r7, #8
2000276a:	46bd      	mov	sp, r7
2000276c:	bd80      	pop	{r7, pc}
2000276e:	bf00      	nop
20002770:	2000b070 	.word	0x2000b070
20002774:	2000b09c 	.word	0x2000b09c
20002778:	2000b084 	.word	0x2000b084

2000277c <prvDeleteTCB>:
2000277c:	b580      	push	{r7, lr}
2000277e:	b084      	sub	sp, #16
20002780:	af00      	add	r7, sp, #0
20002782:	6078      	str	r0, [r7, #4]
20002784:	687b      	ldr	r3, [r7, #4]
20002786:	3354      	adds	r3, #84	; 0x54
20002788:	4618      	mov	r0, r3
2000278a:	f003 fddf 	bl	2000634c <_reclaim_reent>
2000278e:	687b      	ldr	r3, [r7, #4]
20002790:	f893 30b9 	ldrb.w	r3, [r3, #185]	; 0xb9
20002794:	2b00      	cmp	r3, #0
20002796:	d108      	bne.n	200027aa <prvDeleteTCB+0x2e>
20002798:	687b      	ldr	r3, [r7, #4]
2000279a:	6b1b      	ldr	r3, [r3, #48]	; 0x30
2000279c:	4618      	mov	r0, r3
2000279e:	f000 ff87 	bl	200036b0 <vPortFree>
200027a2:	6878      	ldr	r0, [r7, #4]
200027a4:	f000 ff84 	bl	200036b0 <vPortFree>
200027a8:	e018      	b.n	200027dc <prvDeleteTCB+0x60>
200027aa:	687b      	ldr	r3, [r7, #4]
200027ac:	f893 30b9 	ldrb.w	r3, [r3, #185]	; 0xb9
200027b0:	2b01      	cmp	r3, #1
200027b2:	d103      	bne.n	200027bc <prvDeleteTCB+0x40>
200027b4:	6878      	ldr	r0, [r7, #4]
200027b6:	f000 ff7b 	bl	200036b0 <vPortFree>
200027ba:	e00f      	b.n	200027dc <prvDeleteTCB+0x60>
200027bc:	687b      	ldr	r3, [r7, #4]
200027be:	f893 30b9 	ldrb.w	r3, [r3, #185]	; 0xb9
200027c2:	2b02      	cmp	r3, #2
200027c4:	d00a      	beq.n	200027dc <prvDeleteTCB+0x60>
200027c6:	f04f 0350 	mov.w	r3, #80	; 0x50
200027ca:	f383 8811 	msr	BASEPRI, r3
200027ce:	f3bf 8f6f 	isb	sy
200027d2:	f3bf 8f4f 	dsb	sy
200027d6:	60fb      	str	r3, [r7, #12]
200027d8:	bf00      	nop
200027da:	e7fe      	b.n	200027da <prvDeleteTCB+0x5e>
200027dc:	bf00      	nop
200027de:	3710      	adds	r7, #16
200027e0:	46bd      	mov	sp, r7
200027e2:	bd80      	pop	{r7, pc}

200027e4 <prvResetNextTaskUnblockTime>:
200027e4:	b480      	push	{r7}
200027e6:	b083      	sub	sp, #12
200027e8:	af00      	add	r7, sp, #0
200027ea:	4b0c      	ldr	r3, [pc, #48]	; (2000281c <prvResetNextTaskUnblockTime+0x38>)
200027ec:	681b      	ldr	r3, [r3, #0]
200027ee:	681b      	ldr	r3, [r3, #0]
200027f0:	2b00      	cmp	r3, #0
200027f2:	d104      	bne.n	200027fe <prvResetNextTaskUnblockTime+0x1a>
200027f4:	4b0a      	ldr	r3, [pc, #40]	; (20002820 <prvResetNextTaskUnblockTime+0x3c>)
200027f6:	f04f 32ff 	mov.w	r2, #4294967295
200027fa:	601a      	str	r2, [r3, #0]
200027fc:	e008      	b.n	20002810 <prvResetNextTaskUnblockTime+0x2c>
200027fe:	4b07      	ldr	r3, [pc, #28]	; (2000281c <prvResetNextTaskUnblockTime+0x38>)
20002800:	681b      	ldr	r3, [r3, #0]
20002802:	68db      	ldr	r3, [r3, #12]
20002804:	68db      	ldr	r3, [r3, #12]
20002806:	607b      	str	r3, [r7, #4]
20002808:	687b      	ldr	r3, [r7, #4]
2000280a:	685b      	ldr	r3, [r3, #4]
2000280c:	4a04      	ldr	r2, [pc, #16]	; (20002820 <prvResetNextTaskUnblockTime+0x3c>)
2000280e:	6013      	str	r3, [r2, #0]
20002810:	bf00      	nop
20002812:	370c      	adds	r7, #12
20002814:	46bd      	mov	sp, r7
20002816:	f85d 7b04 	ldr.w	r7, [sp], #4
2000281a:	4770      	bx	lr
2000281c:	2000b054 	.word	0x2000b054
20002820:	2000b0bc 	.word	0x2000b0bc

20002824 <xTaskGetSchedulerState>:
20002824:	b480      	push	{r7}
20002826:	b083      	sub	sp, #12
20002828:	af00      	add	r7, sp, #0
2000282a:	4b0b      	ldr	r3, [pc, #44]	; (20002858 <xTaskGetSchedulerState+0x34>)
2000282c:	681b      	ldr	r3, [r3, #0]
2000282e:	2b00      	cmp	r3, #0
20002830:	d102      	bne.n	20002838 <xTaskGetSchedulerState+0x14>
20002832:	2301      	movs	r3, #1
20002834:	607b      	str	r3, [r7, #4]
20002836:	e008      	b.n	2000284a <xTaskGetSchedulerState+0x26>
20002838:	4b08      	ldr	r3, [pc, #32]	; (2000285c <xTaskGetSchedulerState+0x38>)
2000283a:	681b      	ldr	r3, [r3, #0]
2000283c:	2b00      	cmp	r3, #0
2000283e:	d102      	bne.n	20002846 <xTaskGetSchedulerState+0x22>
20002840:	2302      	movs	r3, #2
20002842:	607b      	str	r3, [r7, #4]
20002844:	e001      	b.n	2000284a <xTaskGetSchedulerState+0x26>
20002846:	2300      	movs	r3, #0
20002848:	607b      	str	r3, [r7, #4]
2000284a:	687b      	ldr	r3, [r7, #4]
2000284c:	4618      	mov	r0, r3
2000284e:	370c      	adds	r7, #12
20002850:	46bd      	mov	sp, r7
20002852:	f85d 7b04 	ldr.w	r7, [sp], #4
20002856:	4770      	bx	lr
20002858:	2000b0a8 	.word	0x2000b0a8
2000285c:	2000b0c4 	.word	0x2000b0c4

20002860 <xTaskPriorityDisinherit>:
20002860:	b580      	push	{r7, lr}
20002862:	b086      	sub	sp, #24
20002864:	af00      	add	r7, sp, #0
20002866:	6078      	str	r0, [r7, #4]
20002868:	687b      	ldr	r3, [r7, #4]
2000286a:	613b      	str	r3, [r7, #16]
2000286c:	2300      	movs	r3, #0
2000286e:	617b      	str	r3, [r7, #20]
20002870:	687b      	ldr	r3, [r7, #4]
20002872:	2b00      	cmp	r3, #0
20002874:	d056      	beq.n	20002924 <xTaskPriorityDisinherit+0xc4>
20002876:	4b2e      	ldr	r3, [pc, #184]	; (20002930 <xTaskPriorityDisinherit+0xd0>)
20002878:	681b      	ldr	r3, [r3, #0]
2000287a:	693a      	ldr	r2, [r7, #16]
2000287c:	429a      	cmp	r2, r3
2000287e:	d00a      	beq.n	20002896 <xTaskPriorityDisinherit+0x36>
20002880:	f04f 0350 	mov.w	r3, #80	; 0x50
20002884:	f383 8811 	msr	BASEPRI, r3
20002888:	f3bf 8f6f 	isb	sy
2000288c:	f3bf 8f4f 	dsb	sy
20002890:	60fb      	str	r3, [r7, #12]
20002892:	bf00      	nop
20002894:	e7fe      	b.n	20002894 <xTaskPriorityDisinherit+0x34>
20002896:	693b      	ldr	r3, [r7, #16]
20002898:	6d1b      	ldr	r3, [r3, #80]	; 0x50
2000289a:	2b00      	cmp	r3, #0
2000289c:	d10a      	bne.n	200028b4 <xTaskPriorityDisinherit+0x54>
2000289e:	f04f 0350 	mov.w	r3, #80	; 0x50
200028a2:	f383 8811 	msr	BASEPRI, r3
200028a6:	f3bf 8f6f 	isb	sy
200028aa:	f3bf 8f4f 	dsb	sy
200028ae:	60bb      	str	r3, [r7, #8]
200028b0:	bf00      	nop
200028b2:	e7fe      	b.n	200028b2 <xTaskPriorityDisinherit+0x52>
200028b4:	693b      	ldr	r3, [r7, #16]
200028b6:	6d1b      	ldr	r3, [r3, #80]	; 0x50
200028b8:	1e5a      	subs	r2, r3, #1
200028ba:	693b      	ldr	r3, [r7, #16]
200028bc:	651a      	str	r2, [r3, #80]	; 0x50
200028be:	693b      	ldr	r3, [r7, #16]
200028c0:	6ada      	ldr	r2, [r3, #44]	; 0x2c
200028c2:	693b      	ldr	r3, [r7, #16]
200028c4:	6cdb      	ldr	r3, [r3, #76]	; 0x4c
200028c6:	429a      	cmp	r2, r3
200028c8:	d02c      	beq.n	20002924 <xTaskPriorityDisinherit+0xc4>
200028ca:	693b      	ldr	r3, [r7, #16]
200028cc:	6d1b      	ldr	r3, [r3, #80]	; 0x50
200028ce:	2b00      	cmp	r3, #0
200028d0:	d128      	bne.n	20002924 <xTaskPriorityDisinherit+0xc4>
200028d2:	693b      	ldr	r3, [r7, #16]
200028d4:	3304      	adds	r3, #4
200028d6:	4618      	mov	r0, r3
200028d8:	f7fe fb54 	bl	20000f84 <uxListRemove>
200028dc:	693b      	ldr	r3, [r7, #16]
200028de:	6cda      	ldr	r2, [r3, #76]	; 0x4c
200028e0:	693b      	ldr	r3, [r7, #16]
200028e2:	62da      	str	r2, [r3, #44]	; 0x2c
200028e4:	693b      	ldr	r3, [r7, #16]
200028e6:	6adb      	ldr	r3, [r3, #44]	; 0x2c
200028e8:	f1c3 0238 	rsb	r2, r3, #56	; 0x38
200028ec:	693b      	ldr	r3, [r7, #16]
200028ee:	619a      	str	r2, [r3, #24]
200028f0:	693b      	ldr	r3, [r7, #16]
200028f2:	6ada      	ldr	r2, [r3, #44]	; 0x2c
200028f4:	4b0f      	ldr	r3, [pc, #60]	; (20002934 <xTaskPriorityDisinherit+0xd4>)
200028f6:	681b      	ldr	r3, [r3, #0]
200028f8:	429a      	cmp	r2, r3
200028fa:	d903      	bls.n	20002904 <xTaskPriorityDisinherit+0xa4>
200028fc:	693b      	ldr	r3, [r7, #16]
200028fe:	6adb      	ldr	r3, [r3, #44]	; 0x2c
20002900:	4a0c      	ldr	r2, [pc, #48]	; (20002934 <xTaskPriorityDisinherit+0xd4>)
20002902:	6013      	str	r3, [r2, #0]
20002904:	693b      	ldr	r3, [r7, #16]
20002906:	6ada      	ldr	r2, [r3, #44]	; 0x2c
20002908:	4613      	mov	r3, r2
2000290a:	009b      	lsls	r3, r3, #2
2000290c:	4413      	add	r3, r2
2000290e:	009b      	lsls	r3, r3, #2
20002910:	4a09      	ldr	r2, [pc, #36]	; (20002938 <xTaskPriorityDisinherit+0xd8>)
20002912:	441a      	add	r2, r3
20002914:	693b      	ldr	r3, [r7, #16]
20002916:	3304      	adds	r3, #4
20002918:	4619      	mov	r1, r3
2000291a:	4610      	mov	r0, r2
2000291c:	f7fe fad5 	bl	20000eca <vListInsertEnd>
20002920:	2301      	movs	r3, #1
20002922:	617b      	str	r3, [r7, #20]
20002924:	697b      	ldr	r3, [r7, #20]
20002926:	4618      	mov	r0, r3
20002928:	3718      	adds	r7, #24
2000292a:	46bd      	mov	sp, r7
2000292c:	bd80      	pop	{r7, pc}
2000292e:	bf00      	nop
20002930:	2000abc8 	.word	0x2000abc8
20002934:	2000b0a4 	.word	0x2000b0a4
20002938:	2000abcc 	.word	0x2000abcc

2000293c <prvAddCurrentTaskToDelayedList>:
2000293c:	b580      	push	{r7, lr}
2000293e:	b084      	sub	sp, #16
20002940:	af00      	add	r7, sp, #0
20002942:	6078      	str	r0, [r7, #4]
20002944:	6039      	str	r1, [r7, #0]
20002946:	4b21      	ldr	r3, [pc, #132]	; (200029cc <prvAddCurrentTaskToDelayedList+0x90>)
20002948:	681b      	ldr	r3, [r3, #0]
2000294a:	60fb      	str	r3, [r7, #12]
2000294c:	4b20      	ldr	r3, [pc, #128]	; (200029d0 <prvAddCurrentTaskToDelayedList+0x94>)
2000294e:	681b      	ldr	r3, [r3, #0]
20002950:	3304      	adds	r3, #4
20002952:	4618      	mov	r0, r3
20002954:	f7fe fb16 	bl	20000f84 <uxListRemove>
20002958:	687b      	ldr	r3, [r7, #4]
2000295a:	f1b3 3fff 	cmp.w	r3, #4294967295
2000295e:	d10a      	bne.n	20002976 <prvAddCurrentTaskToDelayedList+0x3a>
20002960:	683b      	ldr	r3, [r7, #0]
20002962:	2b00      	cmp	r3, #0
20002964:	d007      	beq.n	20002976 <prvAddCurrentTaskToDelayedList+0x3a>
20002966:	4b1a      	ldr	r3, [pc, #104]	; (200029d0 <prvAddCurrentTaskToDelayedList+0x94>)
20002968:	681b      	ldr	r3, [r3, #0]
2000296a:	3304      	adds	r3, #4
2000296c:	4619      	mov	r1, r3
2000296e:	4819      	ldr	r0, [pc, #100]	; (200029d4 <prvAddCurrentTaskToDelayedList+0x98>)
20002970:	f7fe faab 	bl	20000eca <vListInsertEnd>
20002974:	e026      	b.n	200029c4 <prvAddCurrentTaskToDelayedList+0x88>
20002976:	68fa      	ldr	r2, [r7, #12]
20002978:	687b      	ldr	r3, [r7, #4]
2000297a:	4413      	add	r3, r2
2000297c:	60bb      	str	r3, [r7, #8]
2000297e:	4b14      	ldr	r3, [pc, #80]	; (200029d0 <prvAddCurrentTaskToDelayedList+0x94>)
20002980:	681b      	ldr	r3, [r3, #0]
20002982:	68ba      	ldr	r2, [r7, #8]
20002984:	605a      	str	r2, [r3, #4]
20002986:	68ba      	ldr	r2, [r7, #8]
20002988:	68fb      	ldr	r3, [r7, #12]
2000298a:	429a      	cmp	r2, r3
2000298c:	d209      	bcs.n	200029a2 <prvAddCurrentTaskToDelayedList+0x66>
2000298e:	4b12      	ldr	r3, [pc, #72]	; (200029d8 <prvAddCurrentTaskToDelayedList+0x9c>)
20002990:	681a      	ldr	r2, [r3, #0]
20002992:	4b0f      	ldr	r3, [pc, #60]	; (200029d0 <prvAddCurrentTaskToDelayedList+0x94>)
20002994:	681b      	ldr	r3, [r3, #0]
20002996:	3304      	adds	r3, #4
20002998:	4619      	mov	r1, r3
2000299a:	4610      	mov	r0, r2
2000299c:	f7fe fab9 	bl	20000f12 <vListInsert>
200029a0:	e010      	b.n	200029c4 <prvAddCurrentTaskToDelayedList+0x88>
200029a2:	4b0e      	ldr	r3, [pc, #56]	; (200029dc <prvAddCurrentTaskToDelayedList+0xa0>)
200029a4:	681a      	ldr	r2, [r3, #0]
200029a6:	4b0a      	ldr	r3, [pc, #40]	; (200029d0 <prvAddCurrentTaskToDelayedList+0x94>)
200029a8:	681b      	ldr	r3, [r3, #0]
200029aa:	3304      	adds	r3, #4
200029ac:	4619      	mov	r1, r3
200029ae:	4610      	mov	r0, r2
200029b0:	f7fe faaf 	bl	20000f12 <vListInsert>
200029b4:	4b0a      	ldr	r3, [pc, #40]	; (200029e0 <prvAddCurrentTaskToDelayedList+0xa4>)
200029b6:	681b      	ldr	r3, [r3, #0]
200029b8:	68ba      	ldr	r2, [r7, #8]
200029ba:	429a      	cmp	r2, r3
200029bc:	d202      	bcs.n	200029c4 <prvAddCurrentTaskToDelayedList+0x88>
200029be:	4a08      	ldr	r2, [pc, #32]	; (200029e0 <prvAddCurrentTaskToDelayedList+0xa4>)
200029c0:	68bb      	ldr	r3, [r7, #8]
200029c2:	6013      	str	r3, [r2, #0]
200029c4:	bf00      	nop
200029c6:	3710      	adds	r7, #16
200029c8:	46bd      	mov	sp, r7
200029ca:	bd80      	pop	{r7, pc}
200029cc:	2000b0a0 	.word	0x2000b0a0
200029d0:	2000abc8 	.word	0x2000abc8
200029d4:	2000b088 	.word	0x2000b088
200029d8:	2000b058 	.word	0x2000b058
200029dc:	2000b054 	.word	0x2000b054
200029e0:	2000b0bc 	.word	0x2000b0bc

200029e4 <xTimerCreateTimerTask>:
200029e4:	b580      	push	{r7, lr}
200029e6:	b08a      	sub	sp, #40	; 0x28
200029e8:	af04      	add	r7, sp, #16
200029ea:	2300      	movs	r3, #0
200029ec:	617b      	str	r3, [r7, #20]
200029ee:	f000 fb07 	bl	20003000 <prvCheckForValidListAndQueue>
200029f2:	4b1c      	ldr	r3, [pc, #112]	; (20002a64 <xTimerCreateTimerTask+0x80>)
200029f4:	681b      	ldr	r3, [r3, #0]
200029f6:	2b00      	cmp	r3, #0
200029f8:	d021      	beq.n	20002a3e <xTimerCreateTimerTask+0x5a>
200029fa:	2300      	movs	r3, #0
200029fc:	60fb      	str	r3, [r7, #12]
200029fe:	2300      	movs	r3, #0
20002a00:	60bb      	str	r3, [r7, #8]
20002a02:	1d3a      	adds	r2, r7, #4
20002a04:	f107 0108 	add.w	r1, r7, #8
20002a08:	f107 030c 	add.w	r3, r7, #12
20002a0c:	4618      	mov	r0, r3
20002a0e:	f7fe fa15 	bl	20000e3c <vApplicationGetTimerTaskMemory>
20002a12:	6879      	ldr	r1, [r7, #4]
20002a14:	68bb      	ldr	r3, [r7, #8]
20002a16:	68fa      	ldr	r2, [r7, #12]
20002a18:	9202      	str	r2, [sp, #8]
20002a1a:	9301      	str	r3, [sp, #4]
20002a1c:	2302      	movs	r3, #2
20002a1e:	9300      	str	r3, [sp, #0]
20002a20:	2300      	movs	r3, #0
20002a22:	460a      	mov	r2, r1
20002a24:	4910      	ldr	r1, [pc, #64]	; (20002a68 <xTimerCreateTimerTask+0x84>)
20002a26:	4811      	ldr	r0, [pc, #68]	; (20002a6c <xTimerCreateTimerTask+0x88>)
20002a28:	f7ff f8b4 	bl	20001b94 <xTaskCreateStatic>
20002a2c:	4603      	mov	r3, r0
20002a2e:	4a10      	ldr	r2, [pc, #64]	; (20002a70 <xTimerCreateTimerTask+0x8c>)
20002a30:	6013      	str	r3, [r2, #0]
20002a32:	4b0f      	ldr	r3, [pc, #60]	; (20002a70 <xTimerCreateTimerTask+0x8c>)
20002a34:	681b      	ldr	r3, [r3, #0]
20002a36:	2b00      	cmp	r3, #0
20002a38:	d001      	beq.n	20002a3e <xTimerCreateTimerTask+0x5a>
20002a3a:	2301      	movs	r3, #1
20002a3c:	617b      	str	r3, [r7, #20]
20002a3e:	697b      	ldr	r3, [r7, #20]
20002a40:	2b00      	cmp	r3, #0
20002a42:	d10a      	bne.n	20002a5a <xTimerCreateTimerTask+0x76>
20002a44:	f04f 0350 	mov.w	r3, #80	; 0x50
20002a48:	f383 8811 	msr	BASEPRI, r3
20002a4c:	f3bf 8f6f 	isb	sy
20002a50:	f3bf 8f4f 	dsb	sy
20002a54:	613b      	str	r3, [r7, #16]
20002a56:	bf00      	nop
20002a58:	e7fe      	b.n	20002a58 <xTimerCreateTimerTask+0x74>
20002a5a:	697b      	ldr	r3, [r7, #20]
20002a5c:	4618      	mov	r0, r3
20002a5e:	3718      	adds	r7, #24
20002a60:	46bd      	mov	sp, r7
20002a62:	bd80      	pop	{r7, pc}
20002a64:	2000b0f8 	.word	0x2000b0f8
20002a68:	200064d4 	.word	0x200064d4
20002a6c:	20002ba9 	.word	0x20002ba9
20002a70:	2000b0fc 	.word	0x2000b0fc

20002a74 <xTimerGenericCommand>:
20002a74:	b580      	push	{r7, lr}
20002a76:	b08a      	sub	sp, #40	; 0x28
20002a78:	af00      	add	r7, sp, #0
20002a7a:	60f8      	str	r0, [r7, #12]
20002a7c:	60b9      	str	r1, [r7, #8]
20002a7e:	607a      	str	r2, [r7, #4]
20002a80:	603b      	str	r3, [r7, #0]
20002a82:	2300      	movs	r3, #0
20002a84:	627b      	str	r3, [r7, #36]	; 0x24
20002a86:	68fb      	ldr	r3, [r7, #12]
20002a88:	2b00      	cmp	r3, #0
20002a8a:	d10a      	bne.n	20002aa2 <xTimerGenericCommand+0x2e>
20002a8c:	f04f 0350 	mov.w	r3, #80	; 0x50
20002a90:	f383 8811 	msr	BASEPRI, r3
20002a94:	f3bf 8f6f 	isb	sy
20002a98:	f3bf 8f4f 	dsb	sy
20002a9c:	623b      	str	r3, [r7, #32]
20002a9e:	bf00      	nop
20002aa0:	e7fe      	b.n	20002aa0 <xTimerGenericCommand+0x2c>
20002aa2:	4b1a      	ldr	r3, [pc, #104]	; (20002b0c <xTimerGenericCommand+0x98>)
20002aa4:	681b      	ldr	r3, [r3, #0]
20002aa6:	2b00      	cmp	r3, #0
20002aa8:	d02a      	beq.n	20002b00 <xTimerGenericCommand+0x8c>
20002aaa:	68bb      	ldr	r3, [r7, #8]
20002aac:	613b      	str	r3, [r7, #16]
20002aae:	687b      	ldr	r3, [r7, #4]
20002ab0:	617b      	str	r3, [r7, #20]
20002ab2:	68fb      	ldr	r3, [r7, #12]
20002ab4:	61bb      	str	r3, [r7, #24]
20002ab6:	68bb      	ldr	r3, [r7, #8]
20002ab8:	2b05      	cmp	r3, #5
20002aba:	dc18      	bgt.n	20002aee <xTimerGenericCommand+0x7a>
20002abc:	f7ff feb2 	bl	20002824 <xTaskGetSchedulerState>
20002ac0:	4603      	mov	r3, r0
20002ac2:	2b02      	cmp	r3, #2
20002ac4:	d109      	bne.n	20002ada <xTimerGenericCommand+0x66>
20002ac6:	4b11      	ldr	r3, [pc, #68]	; (20002b0c <xTimerGenericCommand+0x98>)
20002ac8:	6818      	ldr	r0, [r3, #0]
20002aca:	f107 0110 	add.w	r1, r7, #16
20002ace:	2300      	movs	r3, #0
20002ad0:	6b3a      	ldr	r2, [r7, #48]	; 0x30
20002ad2:	f7fe fc29 	bl	20001328 <xQueueGenericSend>
20002ad6:	6278      	str	r0, [r7, #36]	; 0x24
20002ad8:	e012      	b.n	20002b00 <xTimerGenericCommand+0x8c>
20002ada:	4b0c      	ldr	r3, [pc, #48]	; (20002b0c <xTimerGenericCommand+0x98>)
20002adc:	6818      	ldr	r0, [r3, #0]
20002ade:	f107 0110 	add.w	r1, r7, #16
20002ae2:	2300      	movs	r3, #0
20002ae4:	2200      	movs	r2, #0
20002ae6:	f7fe fc1f 	bl	20001328 <xQueueGenericSend>
20002aea:	6278      	str	r0, [r7, #36]	; 0x24
20002aec:	e008      	b.n	20002b00 <xTimerGenericCommand+0x8c>
20002aee:	4b07      	ldr	r3, [pc, #28]	; (20002b0c <xTimerGenericCommand+0x98>)
20002af0:	6818      	ldr	r0, [r3, #0]
20002af2:	f107 0110 	add.w	r1, r7, #16
20002af6:	2300      	movs	r3, #0
20002af8:	683a      	ldr	r2, [r7, #0]
20002afa:	f7fe fd13 	bl	20001524 <xQueueGenericSendFromISR>
20002afe:	6278      	str	r0, [r7, #36]	; 0x24
20002b00:	6a7b      	ldr	r3, [r7, #36]	; 0x24
20002b02:	4618      	mov	r0, r3
20002b04:	3728      	adds	r7, #40	; 0x28
20002b06:	46bd      	mov	sp, r7
20002b08:	bd80      	pop	{r7, pc}
20002b0a:	bf00      	nop
20002b0c:	2000b0f8 	.word	0x2000b0f8

20002b10 <prvProcessExpiredTimer>:
20002b10:	b580      	push	{r7, lr}
20002b12:	b088      	sub	sp, #32
20002b14:	af02      	add	r7, sp, #8
20002b16:	6078      	str	r0, [r7, #4]
20002b18:	6039      	str	r1, [r7, #0]
20002b1a:	4b22      	ldr	r3, [pc, #136]	; (20002ba4 <prvProcessExpiredTimer+0x94>)
20002b1c:	681b      	ldr	r3, [r3, #0]
20002b1e:	68db      	ldr	r3, [r3, #12]
20002b20:	68db      	ldr	r3, [r3, #12]
20002b22:	617b      	str	r3, [r7, #20]
20002b24:	697b      	ldr	r3, [r7, #20]
20002b26:	3304      	adds	r3, #4
20002b28:	4618      	mov	r0, r3
20002b2a:	f7fe fa2b 	bl	20000f84 <uxListRemove>
20002b2e:	697b      	ldr	r3, [r7, #20]
20002b30:	f893 3028 	ldrb.w	r3, [r3, #40]	; 0x28
20002b34:	f003 0304 	and.w	r3, r3, #4
20002b38:	2b00      	cmp	r3, #0
20002b3a:	d022      	beq.n	20002b82 <prvProcessExpiredTimer+0x72>
20002b3c:	697b      	ldr	r3, [r7, #20]
20002b3e:	699a      	ldr	r2, [r3, #24]
20002b40:	687b      	ldr	r3, [r7, #4]
20002b42:	18d1      	adds	r1, r2, r3
20002b44:	687b      	ldr	r3, [r7, #4]
20002b46:	683a      	ldr	r2, [r7, #0]
20002b48:	6978      	ldr	r0, [r7, #20]
20002b4a:	f000 f8d1 	bl	20002cf0 <prvInsertTimerInActiveList>
20002b4e:	4603      	mov	r3, r0
20002b50:	2b00      	cmp	r3, #0
20002b52:	d01f      	beq.n	20002b94 <prvProcessExpiredTimer+0x84>
20002b54:	2300      	movs	r3, #0
20002b56:	9300      	str	r3, [sp, #0]
20002b58:	2300      	movs	r3, #0
20002b5a:	687a      	ldr	r2, [r7, #4]
20002b5c:	2100      	movs	r1, #0
20002b5e:	6978      	ldr	r0, [r7, #20]
20002b60:	f7ff ff88 	bl	20002a74 <xTimerGenericCommand>
20002b64:	6138      	str	r0, [r7, #16]
20002b66:	693b      	ldr	r3, [r7, #16]
20002b68:	2b00      	cmp	r3, #0
20002b6a:	d113      	bne.n	20002b94 <prvProcessExpiredTimer+0x84>
20002b6c:	f04f 0350 	mov.w	r3, #80	; 0x50
20002b70:	f383 8811 	msr	BASEPRI, r3
20002b74:	f3bf 8f6f 	isb	sy
20002b78:	f3bf 8f4f 	dsb	sy
20002b7c:	60fb      	str	r3, [r7, #12]
20002b7e:	bf00      	nop
20002b80:	e7fe      	b.n	20002b80 <prvProcessExpiredTimer+0x70>
20002b82:	697b      	ldr	r3, [r7, #20]
20002b84:	f893 3028 	ldrb.w	r3, [r3, #40]	; 0x28
20002b88:	f023 0301 	bic.w	r3, r3, #1
20002b8c:	b2da      	uxtb	r2, r3
20002b8e:	697b      	ldr	r3, [r7, #20]
20002b90:	f883 2028 	strb.w	r2, [r3, #40]	; 0x28
20002b94:	697b      	ldr	r3, [r7, #20]
20002b96:	6a1b      	ldr	r3, [r3, #32]
20002b98:	6978      	ldr	r0, [r7, #20]
20002b9a:	4798      	blx	r3
20002b9c:	bf00      	nop
20002b9e:	3718      	adds	r7, #24
20002ba0:	46bd      	mov	sp, r7
20002ba2:	bd80      	pop	{r7, pc}
20002ba4:	2000b0f0 	.word	0x2000b0f0

20002ba8 <prvTimerTask>:
20002ba8:	b580      	push	{r7, lr}
20002baa:	b084      	sub	sp, #16
20002bac:	af00      	add	r7, sp, #0
20002bae:	6078      	str	r0, [r7, #4]
20002bb0:	f107 0308 	add.w	r3, r7, #8
20002bb4:	4618      	mov	r0, r3
20002bb6:	f000 f857 	bl	20002c68 <prvGetNextExpireTime>
20002bba:	60f8      	str	r0, [r7, #12]
20002bbc:	68bb      	ldr	r3, [r7, #8]
20002bbe:	4619      	mov	r1, r3
20002bc0:	68f8      	ldr	r0, [r7, #12]
20002bc2:	f000 f803 	bl	20002bcc <prvProcessTimerOrBlockTask>
20002bc6:	f000 f8d5 	bl	20002d74 <prvProcessReceivedCommands>
20002bca:	e7f1      	b.n	20002bb0 <prvTimerTask+0x8>

20002bcc <prvProcessTimerOrBlockTask>:
20002bcc:	b580      	push	{r7, lr}
20002bce:	b084      	sub	sp, #16
20002bd0:	af00      	add	r7, sp, #0
20002bd2:	6078      	str	r0, [r7, #4]
20002bd4:	6039      	str	r1, [r7, #0]
20002bd6:	f7ff fa39 	bl	2000204c <vTaskSuspendAll>
20002bda:	f107 0308 	add.w	r3, r7, #8
20002bde:	4618      	mov	r0, r3
20002be0:	f000 f866 	bl	20002cb0 <prvSampleTimeNow>
20002be4:	60f8      	str	r0, [r7, #12]
20002be6:	68bb      	ldr	r3, [r7, #8]
20002be8:	2b00      	cmp	r3, #0
20002bea:	d130      	bne.n	20002c4e <prvProcessTimerOrBlockTask+0x82>
20002bec:	683b      	ldr	r3, [r7, #0]
20002bee:	2b00      	cmp	r3, #0
20002bf0:	d10a      	bne.n	20002c08 <prvProcessTimerOrBlockTask+0x3c>
20002bf2:	687a      	ldr	r2, [r7, #4]
20002bf4:	68fb      	ldr	r3, [r7, #12]
20002bf6:	429a      	cmp	r2, r3
20002bf8:	d806      	bhi.n	20002c08 <prvProcessTimerOrBlockTask+0x3c>
20002bfa:	f7ff fa35 	bl	20002068 <xTaskResumeAll>
20002bfe:	68f9      	ldr	r1, [r7, #12]
20002c00:	6878      	ldr	r0, [r7, #4]
20002c02:	f7ff ff85 	bl	20002b10 <prvProcessExpiredTimer>
20002c06:	e024      	b.n	20002c52 <prvProcessTimerOrBlockTask+0x86>
20002c08:	683b      	ldr	r3, [r7, #0]
20002c0a:	2b00      	cmp	r3, #0
20002c0c:	d008      	beq.n	20002c20 <prvProcessTimerOrBlockTask+0x54>
20002c0e:	4b13      	ldr	r3, [pc, #76]	; (20002c5c <prvProcessTimerOrBlockTask+0x90>)
20002c10:	681b      	ldr	r3, [r3, #0]
20002c12:	681b      	ldr	r3, [r3, #0]
20002c14:	2b00      	cmp	r3, #0
20002c16:	d101      	bne.n	20002c1c <prvProcessTimerOrBlockTask+0x50>
20002c18:	2301      	movs	r3, #1
20002c1a:	e000      	b.n	20002c1e <prvProcessTimerOrBlockTask+0x52>
20002c1c:	2300      	movs	r3, #0
20002c1e:	603b      	str	r3, [r7, #0]
20002c20:	4b0f      	ldr	r3, [pc, #60]	; (20002c60 <prvProcessTimerOrBlockTask+0x94>)
20002c22:	6818      	ldr	r0, [r3, #0]
20002c24:	687a      	ldr	r2, [r7, #4]
20002c26:	68fb      	ldr	r3, [r7, #12]
20002c28:	1ad3      	subs	r3, r2, r3
20002c2a:	683a      	ldr	r2, [r7, #0]
20002c2c:	4619      	mov	r1, r3
20002c2e:	f7fe ff7d 	bl	20001b2c <vQueueWaitForMessageRestricted>
20002c32:	f7ff fa19 	bl	20002068 <xTaskResumeAll>
20002c36:	4603      	mov	r3, r0
20002c38:	2b00      	cmp	r3, #0
20002c3a:	d10a      	bne.n	20002c52 <prvProcessTimerOrBlockTask+0x86>
20002c3c:	4b09      	ldr	r3, [pc, #36]	; (20002c64 <prvProcessTimerOrBlockTask+0x98>)
20002c3e:	f04f 5280 	mov.w	r2, #268435456	; 0x10000000
20002c42:	601a      	str	r2, [r3, #0]
20002c44:	f3bf 8f4f 	dsb	sy
20002c48:	f3bf 8f6f 	isb	sy
20002c4c:	e001      	b.n	20002c52 <prvProcessTimerOrBlockTask+0x86>
20002c4e:	f7ff fa0b 	bl	20002068 <xTaskResumeAll>
20002c52:	bf00      	nop
20002c54:	3710      	adds	r7, #16
20002c56:	46bd      	mov	sp, r7
20002c58:	bd80      	pop	{r7, pc}
20002c5a:	bf00      	nop
20002c5c:	2000b0f4 	.word	0x2000b0f4
20002c60:	2000b0f8 	.word	0x2000b0f8
20002c64:	e000ed04 	.word	0xe000ed04

20002c68 <prvGetNextExpireTime>:
20002c68:	b480      	push	{r7}
20002c6a:	b085      	sub	sp, #20
20002c6c:	af00      	add	r7, sp, #0
20002c6e:	6078      	str	r0, [r7, #4]
20002c70:	4b0e      	ldr	r3, [pc, #56]	; (20002cac <prvGetNextExpireTime+0x44>)
20002c72:	681b      	ldr	r3, [r3, #0]
20002c74:	681b      	ldr	r3, [r3, #0]
20002c76:	2b00      	cmp	r3, #0
20002c78:	d101      	bne.n	20002c7e <prvGetNextExpireTime+0x16>
20002c7a:	2201      	movs	r2, #1
20002c7c:	e000      	b.n	20002c80 <prvGetNextExpireTime+0x18>
20002c7e:	2200      	movs	r2, #0
20002c80:	687b      	ldr	r3, [r7, #4]
20002c82:	601a      	str	r2, [r3, #0]
20002c84:	687b      	ldr	r3, [r7, #4]
20002c86:	681b      	ldr	r3, [r3, #0]
20002c88:	2b00      	cmp	r3, #0
20002c8a:	d105      	bne.n	20002c98 <prvGetNextExpireTime+0x30>
20002c8c:	4b07      	ldr	r3, [pc, #28]	; (20002cac <prvGetNextExpireTime+0x44>)
20002c8e:	681b      	ldr	r3, [r3, #0]
20002c90:	68db      	ldr	r3, [r3, #12]
20002c92:	681b      	ldr	r3, [r3, #0]
20002c94:	60fb      	str	r3, [r7, #12]
20002c96:	e001      	b.n	20002c9c <prvGetNextExpireTime+0x34>
20002c98:	2300      	movs	r3, #0
20002c9a:	60fb      	str	r3, [r7, #12]
20002c9c:	68fb      	ldr	r3, [r7, #12]
20002c9e:	4618      	mov	r0, r3
20002ca0:	3714      	adds	r7, #20
20002ca2:	46bd      	mov	sp, r7
20002ca4:	f85d 7b04 	ldr.w	r7, [sp], #4
20002ca8:	4770      	bx	lr
20002caa:	bf00      	nop
20002cac:	2000b0f0 	.word	0x2000b0f0

20002cb0 <prvSampleTimeNow>:
20002cb0:	b580      	push	{r7, lr}
20002cb2:	b084      	sub	sp, #16
20002cb4:	af00      	add	r7, sp, #0
20002cb6:	6078      	str	r0, [r7, #4]
20002cb8:	f7ff fa74 	bl	200021a4 <xTaskGetTickCount>
20002cbc:	60f8      	str	r0, [r7, #12]
20002cbe:	4b0b      	ldr	r3, [pc, #44]	; (20002cec <prvSampleTimeNow+0x3c>)
20002cc0:	681b      	ldr	r3, [r3, #0]
20002cc2:	68fa      	ldr	r2, [r7, #12]
20002cc4:	429a      	cmp	r2, r3
20002cc6:	d205      	bcs.n	20002cd4 <prvSampleTimeNow+0x24>
20002cc8:	f000 f936 	bl	20002f38 <prvSwitchTimerLists>
20002ccc:	687b      	ldr	r3, [r7, #4]
20002cce:	2201      	movs	r2, #1
20002cd0:	601a      	str	r2, [r3, #0]
20002cd2:	e002      	b.n	20002cda <prvSampleTimeNow+0x2a>
20002cd4:	687b      	ldr	r3, [r7, #4]
20002cd6:	2200      	movs	r2, #0
20002cd8:	601a      	str	r2, [r3, #0]
20002cda:	4a04      	ldr	r2, [pc, #16]	; (20002cec <prvSampleTimeNow+0x3c>)
20002cdc:	68fb      	ldr	r3, [r7, #12]
20002cde:	6013      	str	r3, [r2, #0]
20002ce0:	68fb      	ldr	r3, [r7, #12]
20002ce2:	4618      	mov	r0, r3
20002ce4:	3710      	adds	r7, #16
20002ce6:	46bd      	mov	sp, r7
20002ce8:	bd80      	pop	{r7, pc}
20002cea:	bf00      	nop
20002cec:	2000b100 	.word	0x2000b100

20002cf0 <prvInsertTimerInActiveList>:
20002cf0:	b580      	push	{r7, lr}
20002cf2:	b086      	sub	sp, #24
20002cf4:	af00      	add	r7, sp, #0
20002cf6:	60f8      	str	r0, [r7, #12]
20002cf8:	60b9      	str	r1, [r7, #8]
20002cfa:	607a      	str	r2, [r7, #4]
20002cfc:	603b      	str	r3, [r7, #0]
20002cfe:	2300      	movs	r3, #0
20002d00:	617b      	str	r3, [r7, #20]
20002d02:	68fb      	ldr	r3, [r7, #12]
20002d04:	68ba      	ldr	r2, [r7, #8]
20002d06:	605a      	str	r2, [r3, #4]
20002d08:	68fb      	ldr	r3, [r7, #12]
20002d0a:	68fa      	ldr	r2, [r7, #12]
20002d0c:	611a      	str	r2, [r3, #16]
20002d0e:	68ba      	ldr	r2, [r7, #8]
20002d10:	687b      	ldr	r3, [r7, #4]
20002d12:	429a      	cmp	r2, r3
20002d14:	d812      	bhi.n	20002d3c <prvInsertTimerInActiveList+0x4c>
20002d16:	687a      	ldr	r2, [r7, #4]
20002d18:	683b      	ldr	r3, [r7, #0]
20002d1a:	1ad2      	subs	r2, r2, r3
20002d1c:	68fb      	ldr	r3, [r7, #12]
20002d1e:	699b      	ldr	r3, [r3, #24]
20002d20:	429a      	cmp	r2, r3
20002d22:	d302      	bcc.n	20002d2a <prvInsertTimerInActiveList+0x3a>
20002d24:	2301      	movs	r3, #1
20002d26:	617b      	str	r3, [r7, #20]
20002d28:	e01b      	b.n	20002d62 <prvInsertTimerInActiveList+0x72>
20002d2a:	4b10      	ldr	r3, [pc, #64]	; (20002d6c <prvInsertTimerInActiveList+0x7c>)
20002d2c:	681a      	ldr	r2, [r3, #0]
20002d2e:	68fb      	ldr	r3, [r7, #12]
20002d30:	3304      	adds	r3, #4
20002d32:	4619      	mov	r1, r3
20002d34:	4610      	mov	r0, r2
20002d36:	f7fe f8ec 	bl	20000f12 <vListInsert>
20002d3a:	e012      	b.n	20002d62 <prvInsertTimerInActiveList+0x72>
20002d3c:	687a      	ldr	r2, [r7, #4]
20002d3e:	683b      	ldr	r3, [r7, #0]
20002d40:	429a      	cmp	r2, r3
20002d42:	d206      	bcs.n	20002d52 <prvInsertTimerInActiveList+0x62>
20002d44:	68ba      	ldr	r2, [r7, #8]
20002d46:	683b      	ldr	r3, [r7, #0]
20002d48:	429a      	cmp	r2, r3
20002d4a:	d302      	bcc.n	20002d52 <prvInsertTimerInActiveList+0x62>
20002d4c:	2301      	movs	r3, #1
20002d4e:	617b      	str	r3, [r7, #20]
20002d50:	e007      	b.n	20002d62 <prvInsertTimerInActiveList+0x72>
20002d52:	4b07      	ldr	r3, [pc, #28]	; (20002d70 <prvInsertTimerInActiveList+0x80>)
20002d54:	681a      	ldr	r2, [r3, #0]
20002d56:	68fb      	ldr	r3, [r7, #12]
20002d58:	3304      	adds	r3, #4
20002d5a:	4619      	mov	r1, r3
20002d5c:	4610      	mov	r0, r2
20002d5e:	f7fe f8d8 	bl	20000f12 <vListInsert>
20002d62:	697b      	ldr	r3, [r7, #20]
20002d64:	4618      	mov	r0, r3
20002d66:	3718      	adds	r7, #24
20002d68:	46bd      	mov	sp, r7
20002d6a:	bd80      	pop	{r7, pc}
20002d6c:	2000b0f4 	.word	0x2000b0f4
20002d70:	2000b0f0 	.word	0x2000b0f0

20002d74 <prvProcessReceivedCommands>:
20002d74:	b580      	push	{r7, lr}
20002d76:	b08e      	sub	sp, #56	; 0x38
20002d78:	af02      	add	r7, sp, #8
20002d7a:	e0ca      	b.n	20002f12 <prvProcessReceivedCommands+0x19e>
20002d7c:	687b      	ldr	r3, [r7, #4]
20002d7e:	2b00      	cmp	r3, #0
20002d80:	da18      	bge.n	20002db4 <prvProcessReceivedCommands+0x40>
20002d82:	1d3b      	adds	r3, r7, #4
20002d84:	3304      	adds	r3, #4
20002d86:	62fb      	str	r3, [r7, #44]	; 0x2c
20002d88:	6afb      	ldr	r3, [r7, #44]	; 0x2c
20002d8a:	2b00      	cmp	r3, #0
20002d8c:	d10a      	bne.n	20002da4 <prvProcessReceivedCommands+0x30>
20002d8e:	f04f 0350 	mov.w	r3, #80	; 0x50
20002d92:	f383 8811 	msr	BASEPRI, r3
20002d96:	f3bf 8f6f 	isb	sy
20002d9a:	f3bf 8f4f 	dsb	sy
20002d9e:	61fb      	str	r3, [r7, #28]
20002da0:	bf00      	nop
20002da2:	e7fe      	b.n	20002da2 <prvProcessReceivedCommands+0x2e>
20002da4:	6afb      	ldr	r3, [r7, #44]	; 0x2c
20002da6:	681b      	ldr	r3, [r3, #0]
20002da8:	6afa      	ldr	r2, [r7, #44]	; 0x2c
20002daa:	6850      	ldr	r0, [r2, #4]
20002dac:	6afa      	ldr	r2, [r7, #44]	; 0x2c
20002dae:	6892      	ldr	r2, [r2, #8]
20002db0:	4611      	mov	r1, r2
20002db2:	4798      	blx	r3
20002db4:	687b      	ldr	r3, [r7, #4]
20002db6:	2b00      	cmp	r3, #0
20002db8:	f2c0 80aa 	blt.w	20002f10 <prvProcessReceivedCommands+0x19c>
20002dbc:	68fb      	ldr	r3, [r7, #12]
20002dbe:	62bb      	str	r3, [r7, #40]	; 0x28
20002dc0:	6abb      	ldr	r3, [r7, #40]	; 0x28
20002dc2:	695b      	ldr	r3, [r3, #20]
20002dc4:	2b00      	cmp	r3, #0
20002dc6:	d004      	beq.n	20002dd2 <prvProcessReceivedCommands+0x5e>
20002dc8:	6abb      	ldr	r3, [r7, #40]	; 0x28
20002dca:	3304      	adds	r3, #4
20002dcc:	4618      	mov	r0, r3
20002dce:	f7fe f8d9 	bl	20000f84 <uxListRemove>
20002dd2:	463b      	mov	r3, r7
20002dd4:	4618      	mov	r0, r3
20002dd6:	f7ff ff6b 	bl	20002cb0 <prvSampleTimeNow>
20002dda:	6278      	str	r0, [r7, #36]	; 0x24
20002ddc:	687b      	ldr	r3, [r7, #4]
20002dde:	2b09      	cmp	r3, #9
20002de0:	f200 8097 	bhi.w	20002f12 <prvProcessReceivedCommands+0x19e>
20002de4:	a201      	add	r2, pc, #4	; (adr r2, 20002dec <prvProcessReceivedCommands+0x78>)
20002de6:	f852 f023 	ldr.w	pc, [r2, r3, lsl #2]
20002dea:	bf00      	nop
20002dec:	20002e15 	.word	0x20002e15
20002df0:	20002e15 	.word	0x20002e15
20002df4:	20002e15 	.word	0x20002e15
20002df8:	20002e89 	.word	0x20002e89
20002dfc:	20002e9d 	.word	0x20002e9d
20002e00:	20002ee7 	.word	0x20002ee7
20002e04:	20002e15 	.word	0x20002e15
20002e08:	20002e15 	.word	0x20002e15
20002e0c:	20002e89 	.word	0x20002e89
20002e10:	20002e9d 	.word	0x20002e9d
20002e14:	6abb      	ldr	r3, [r7, #40]	; 0x28
20002e16:	f893 3028 	ldrb.w	r3, [r3, #40]	; 0x28
20002e1a:	f043 0301 	orr.w	r3, r3, #1
20002e1e:	b2da      	uxtb	r2, r3
20002e20:	6abb      	ldr	r3, [r7, #40]	; 0x28
20002e22:	f883 2028 	strb.w	r2, [r3, #40]	; 0x28
20002e26:	68ba      	ldr	r2, [r7, #8]
20002e28:	6abb      	ldr	r3, [r7, #40]	; 0x28
20002e2a:	699b      	ldr	r3, [r3, #24]
20002e2c:	18d1      	adds	r1, r2, r3
20002e2e:	68bb      	ldr	r3, [r7, #8]
20002e30:	6a7a      	ldr	r2, [r7, #36]	; 0x24
20002e32:	6ab8      	ldr	r0, [r7, #40]	; 0x28
20002e34:	f7ff ff5c 	bl	20002cf0 <prvInsertTimerInActiveList>
20002e38:	4603      	mov	r3, r0
20002e3a:	2b00      	cmp	r3, #0
20002e3c:	d069      	beq.n	20002f12 <prvProcessReceivedCommands+0x19e>
20002e3e:	6abb      	ldr	r3, [r7, #40]	; 0x28
20002e40:	6a1b      	ldr	r3, [r3, #32]
20002e42:	6ab8      	ldr	r0, [r7, #40]	; 0x28
20002e44:	4798      	blx	r3
20002e46:	6abb      	ldr	r3, [r7, #40]	; 0x28
20002e48:	f893 3028 	ldrb.w	r3, [r3, #40]	; 0x28
20002e4c:	f003 0304 	and.w	r3, r3, #4
20002e50:	2b00      	cmp	r3, #0
20002e52:	d05e      	beq.n	20002f12 <prvProcessReceivedCommands+0x19e>
20002e54:	68ba      	ldr	r2, [r7, #8]
20002e56:	6abb      	ldr	r3, [r7, #40]	; 0x28
20002e58:	699b      	ldr	r3, [r3, #24]
20002e5a:	441a      	add	r2, r3
20002e5c:	2300      	movs	r3, #0
20002e5e:	9300      	str	r3, [sp, #0]
20002e60:	2300      	movs	r3, #0
20002e62:	2100      	movs	r1, #0
20002e64:	6ab8      	ldr	r0, [r7, #40]	; 0x28
20002e66:	f7ff fe05 	bl	20002a74 <xTimerGenericCommand>
20002e6a:	6238      	str	r0, [r7, #32]
20002e6c:	6a3b      	ldr	r3, [r7, #32]
20002e6e:	2b00      	cmp	r3, #0
20002e70:	d14f      	bne.n	20002f12 <prvProcessReceivedCommands+0x19e>
20002e72:	f04f 0350 	mov.w	r3, #80	; 0x50
20002e76:	f383 8811 	msr	BASEPRI, r3
20002e7a:	f3bf 8f6f 	isb	sy
20002e7e:	f3bf 8f4f 	dsb	sy
20002e82:	61bb      	str	r3, [r7, #24]
20002e84:	bf00      	nop
20002e86:	e7fe      	b.n	20002e86 <prvProcessReceivedCommands+0x112>
20002e88:	6abb      	ldr	r3, [r7, #40]	; 0x28
20002e8a:	f893 3028 	ldrb.w	r3, [r3, #40]	; 0x28
20002e8e:	f023 0301 	bic.w	r3, r3, #1
20002e92:	b2da      	uxtb	r2, r3
20002e94:	6abb      	ldr	r3, [r7, #40]	; 0x28
20002e96:	f883 2028 	strb.w	r2, [r3, #40]	; 0x28
20002e9a:	e03a      	b.n	20002f12 <prvProcessReceivedCommands+0x19e>
20002e9c:	6abb      	ldr	r3, [r7, #40]	; 0x28
20002e9e:	f893 3028 	ldrb.w	r3, [r3, #40]	; 0x28
20002ea2:	f043 0301 	orr.w	r3, r3, #1
20002ea6:	b2da      	uxtb	r2, r3
20002ea8:	6abb      	ldr	r3, [r7, #40]	; 0x28
20002eaa:	f883 2028 	strb.w	r2, [r3, #40]	; 0x28
20002eae:	68ba      	ldr	r2, [r7, #8]
20002eb0:	6abb      	ldr	r3, [r7, #40]	; 0x28
20002eb2:	619a      	str	r2, [r3, #24]
20002eb4:	6abb      	ldr	r3, [r7, #40]	; 0x28
20002eb6:	699b      	ldr	r3, [r3, #24]
20002eb8:	2b00      	cmp	r3, #0
20002eba:	d10a      	bne.n	20002ed2 <prvProcessReceivedCommands+0x15e>
20002ebc:	f04f 0350 	mov.w	r3, #80	; 0x50
20002ec0:	f383 8811 	msr	BASEPRI, r3
20002ec4:	f3bf 8f6f 	isb	sy
20002ec8:	f3bf 8f4f 	dsb	sy
20002ecc:	617b      	str	r3, [r7, #20]
20002ece:	bf00      	nop
20002ed0:	e7fe      	b.n	20002ed0 <prvProcessReceivedCommands+0x15c>
20002ed2:	6abb      	ldr	r3, [r7, #40]	; 0x28
20002ed4:	699a      	ldr	r2, [r3, #24]
20002ed6:	6a7b      	ldr	r3, [r7, #36]	; 0x24
20002ed8:	18d1      	adds	r1, r2, r3
20002eda:	6a7b      	ldr	r3, [r7, #36]	; 0x24
20002edc:	6a7a      	ldr	r2, [r7, #36]	; 0x24
20002ede:	6ab8      	ldr	r0, [r7, #40]	; 0x28
20002ee0:	f7ff ff06 	bl	20002cf0 <prvInsertTimerInActiveList>
20002ee4:	e015      	b.n	20002f12 <prvProcessReceivedCommands+0x19e>
20002ee6:	6abb      	ldr	r3, [r7, #40]	; 0x28
20002ee8:	f893 3028 	ldrb.w	r3, [r3, #40]	; 0x28
20002eec:	f003 0302 	and.w	r3, r3, #2
20002ef0:	2b00      	cmp	r3, #0
20002ef2:	d103      	bne.n	20002efc <prvProcessReceivedCommands+0x188>
20002ef4:	6ab8      	ldr	r0, [r7, #40]	; 0x28
20002ef6:	f000 fbdb 	bl	200036b0 <vPortFree>
20002efa:	e00a      	b.n	20002f12 <prvProcessReceivedCommands+0x19e>
20002efc:	6abb      	ldr	r3, [r7, #40]	; 0x28
20002efe:	f893 3028 	ldrb.w	r3, [r3, #40]	; 0x28
20002f02:	f023 0301 	bic.w	r3, r3, #1
20002f06:	b2da      	uxtb	r2, r3
20002f08:	6abb      	ldr	r3, [r7, #40]	; 0x28
20002f0a:	f883 2028 	strb.w	r2, [r3, #40]	; 0x28
20002f0e:	e000      	b.n	20002f12 <prvProcessReceivedCommands+0x19e>
20002f10:	bf00      	nop
20002f12:	4b08      	ldr	r3, [pc, #32]	; (20002f34 <prvProcessReceivedCommands+0x1c0>)
20002f14:	681b      	ldr	r3, [r3, #0]
20002f16:	1d39      	adds	r1, r7, #4
20002f18:	2200      	movs	r2, #0
20002f1a:	4618      	mov	r0, r3
20002f1c:	f7fe fb9e 	bl	2000165c <xQueueReceive>
20002f20:	4603      	mov	r3, r0
20002f22:	2b00      	cmp	r3, #0
20002f24:	f47f af2a 	bne.w	20002d7c <prvProcessReceivedCommands+0x8>
20002f28:	bf00      	nop
20002f2a:	bf00      	nop
20002f2c:	3730      	adds	r7, #48	; 0x30
20002f2e:	46bd      	mov	sp, r7
20002f30:	bd80      	pop	{r7, pc}
20002f32:	bf00      	nop
20002f34:	2000b0f8 	.word	0x2000b0f8

20002f38 <prvSwitchTimerLists>:
20002f38:	b580      	push	{r7, lr}
20002f3a:	b088      	sub	sp, #32
20002f3c:	af02      	add	r7, sp, #8
20002f3e:	e048      	b.n	20002fd2 <prvSwitchTimerLists+0x9a>
20002f40:	4b2d      	ldr	r3, [pc, #180]	; (20002ff8 <prvSwitchTimerLists+0xc0>)
20002f42:	681b      	ldr	r3, [r3, #0]
20002f44:	68db      	ldr	r3, [r3, #12]
20002f46:	681b      	ldr	r3, [r3, #0]
20002f48:	613b      	str	r3, [r7, #16]
20002f4a:	4b2b      	ldr	r3, [pc, #172]	; (20002ff8 <prvSwitchTimerLists+0xc0>)
20002f4c:	681b      	ldr	r3, [r3, #0]
20002f4e:	68db      	ldr	r3, [r3, #12]
20002f50:	68db      	ldr	r3, [r3, #12]
20002f52:	60fb      	str	r3, [r7, #12]
20002f54:	68fb      	ldr	r3, [r7, #12]
20002f56:	3304      	adds	r3, #4
20002f58:	4618      	mov	r0, r3
20002f5a:	f7fe f813 	bl	20000f84 <uxListRemove>
20002f5e:	68fb      	ldr	r3, [r7, #12]
20002f60:	6a1b      	ldr	r3, [r3, #32]
20002f62:	68f8      	ldr	r0, [r7, #12]
20002f64:	4798      	blx	r3
20002f66:	68fb      	ldr	r3, [r7, #12]
20002f68:	f893 3028 	ldrb.w	r3, [r3, #40]	; 0x28
20002f6c:	f003 0304 	and.w	r3, r3, #4
20002f70:	2b00      	cmp	r3, #0
20002f72:	d02e      	beq.n	20002fd2 <prvSwitchTimerLists+0x9a>
20002f74:	68fb      	ldr	r3, [r7, #12]
20002f76:	699b      	ldr	r3, [r3, #24]
20002f78:	693a      	ldr	r2, [r7, #16]
20002f7a:	4413      	add	r3, r2
20002f7c:	60bb      	str	r3, [r7, #8]
20002f7e:	68ba      	ldr	r2, [r7, #8]
20002f80:	693b      	ldr	r3, [r7, #16]
20002f82:	429a      	cmp	r2, r3
20002f84:	d90e      	bls.n	20002fa4 <prvSwitchTimerLists+0x6c>
20002f86:	68fb      	ldr	r3, [r7, #12]
20002f88:	68ba      	ldr	r2, [r7, #8]
20002f8a:	605a      	str	r2, [r3, #4]
20002f8c:	68fb      	ldr	r3, [r7, #12]
20002f8e:	68fa      	ldr	r2, [r7, #12]
20002f90:	611a      	str	r2, [r3, #16]
20002f92:	4b19      	ldr	r3, [pc, #100]	; (20002ff8 <prvSwitchTimerLists+0xc0>)
20002f94:	681a      	ldr	r2, [r3, #0]
20002f96:	68fb      	ldr	r3, [r7, #12]
20002f98:	3304      	adds	r3, #4
20002f9a:	4619      	mov	r1, r3
20002f9c:	4610      	mov	r0, r2
20002f9e:	f7fd ffb8 	bl	20000f12 <vListInsert>
20002fa2:	e016      	b.n	20002fd2 <prvSwitchTimerLists+0x9a>
20002fa4:	2300      	movs	r3, #0
20002fa6:	9300      	str	r3, [sp, #0]
20002fa8:	2300      	movs	r3, #0
20002faa:	693a      	ldr	r2, [r7, #16]
20002fac:	2100      	movs	r1, #0
20002fae:	68f8      	ldr	r0, [r7, #12]
20002fb0:	f7ff fd60 	bl	20002a74 <xTimerGenericCommand>
20002fb4:	6078      	str	r0, [r7, #4]
20002fb6:	687b      	ldr	r3, [r7, #4]
20002fb8:	2b00      	cmp	r3, #0
20002fba:	d10a      	bne.n	20002fd2 <prvSwitchTimerLists+0x9a>
20002fbc:	f04f 0350 	mov.w	r3, #80	; 0x50
20002fc0:	f383 8811 	msr	BASEPRI, r3
20002fc4:	f3bf 8f6f 	isb	sy
20002fc8:	f3bf 8f4f 	dsb	sy
20002fcc:	603b      	str	r3, [r7, #0]
20002fce:	bf00      	nop
20002fd0:	e7fe      	b.n	20002fd0 <prvSwitchTimerLists+0x98>
20002fd2:	4b09      	ldr	r3, [pc, #36]	; (20002ff8 <prvSwitchTimerLists+0xc0>)
20002fd4:	681b      	ldr	r3, [r3, #0]
20002fd6:	681b      	ldr	r3, [r3, #0]
20002fd8:	2b00      	cmp	r3, #0
20002fda:	d1b1      	bne.n	20002f40 <prvSwitchTimerLists+0x8>
20002fdc:	4b06      	ldr	r3, [pc, #24]	; (20002ff8 <prvSwitchTimerLists+0xc0>)
20002fde:	681b      	ldr	r3, [r3, #0]
20002fe0:	617b      	str	r3, [r7, #20]
20002fe2:	4b06      	ldr	r3, [pc, #24]	; (20002ffc <prvSwitchTimerLists+0xc4>)
20002fe4:	681b      	ldr	r3, [r3, #0]
20002fe6:	4a04      	ldr	r2, [pc, #16]	; (20002ff8 <prvSwitchTimerLists+0xc0>)
20002fe8:	6013      	str	r3, [r2, #0]
20002fea:	4a04      	ldr	r2, [pc, #16]	; (20002ffc <prvSwitchTimerLists+0xc4>)
20002fec:	697b      	ldr	r3, [r7, #20]
20002fee:	6013      	str	r3, [r2, #0]
20002ff0:	bf00      	nop
20002ff2:	3718      	adds	r7, #24
20002ff4:	46bd      	mov	sp, r7
20002ff6:	bd80      	pop	{r7, pc}
20002ff8:	2000b0f0 	.word	0x2000b0f0
20002ffc:	2000b0f4 	.word	0x2000b0f4

20003000 <prvCheckForValidListAndQueue>:
20003000:	b580      	push	{r7, lr}
20003002:	b082      	sub	sp, #8
20003004:	af02      	add	r7, sp, #8
20003006:	f000 f965 	bl	200032d4 <vPortEnterCritical>
2000300a:	4b15      	ldr	r3, [pc, #84]	; (20003060 <prvCheckForValidListAndQueue+0x60>)
2000300c:	681b      	ldr	r3, [r3, #0]
2000300e:	2b00      	cmp	r3, #0
20003010:	d120      	bne.n	20003054 <prvCheckForValidListAndQueue+0x54>
20003012:	4814      	ldr	r0, [pc, #80]	; (20003064 <prvCheckForValidListAndQueue+0x64>)
20003014:	f7fd ff2c 	bl	20000e70 <vListInitialise>
20003018:	4813      	ldr	r0, [pc, #76]	; (20003068 <prvCheckForValidListAndQueue+0x68>)
2000301a:	f7fd ff29 	bl	20000e70 <vListInitialise>
2000301e:	4b13      	ldr	r3, [pc, #76]	; (2000306c <prvCheckForValidListAndQueue+0x6c>)
20003020:	4a10      	ldr	r2, [pc, #64]	; (20003064 <prvCheckForValidListAndQueue+0x64>)
20003022:	601a      	str	r2, [r3, #0]
20003024:	4b12      	ldr	r3, [pc, #72]	; (20003070 <prvCheckForValidListAndQueue+0x70>)
20003026:	4a10      	ldr	r2, [pc, #64]	; (20003068 <prvCheckForValidListAndQueue+0x68>)
20003028:	601a      	str	r2, [r3, #0]
2000302a:	2300      	movs	r3, #0
2000302c:	9300      	str	r3, [sp, #0]
2000302e:	4b11      	ldr	r3, [pc, #68]	; (20003074 <prvCheckForValidListAndQueue+0x74>)
20003030:	4a11      	ldr	r2, [pc, #68]	; (20003078 <prvCheckForValidListAndQueue+0x78>)
20003032:	2110      	movs	r1, #16
20003034:	200a      	movs	r0, #10
20003036:	f7fe f837 	bl	200010a8 <xQueueGenericCreateStatic>
2000303a:	4603      	mov	r3, r0
2000303c:	4a08      	ldr	r2, [pc, #32]	; (20003060 <prvCheckForValidListAndQueue+0x60>)
2000303e:	6013      	str	r3, [r2, #0]
20003040:	4b07      	ldr	r3, [pc, #28]	; (20003060 <prvCheckForValidListAndQueue+0x60>)
20003042:	681b      	ldr	r3, [r3, #0]
20003044:	2b00      	cmp	r3, #0
20003046:	d005      	beq.n	20003054 <prvCheckForValidListAndQueue+0x54>
20003048:	4b05      	ldr	r3, [pc, #20]	; (20003060 <prvCheckForValidListAndQueue+0x60>)
2000304a:	681b      	ldr	r3, [r3, #0]
2000304c:	490b      	ldr	r1, [pc, #44]	; (2000307c <prvCheckForValidListAndQueue+0x7c>)
2000304e:	4618      	mov	r0, r3
20003050:	f7fe fd18 	bl	20001a84 <vQueueAddToRegistry>
20003054:	f000 f96e 	bl	20003334 <vPortExitCritical>
20003058:	bf00      	nop
2000305a:	46bd      	mov	sp, r7
2000305c:	bd80      	pop	{r7, pc}
2000305e:	bf00      	nop
20003060:	2000b0f8 	.word	0x2000b0f8
20003064:	2000b0c8 	.word	0x2000b0c8
20003068:	2000b0dc 	.word	0x2000b0dc
2000306c:	2000b0f0 	.word	0x2000b0f0
20003070:	2000b0f4 	.word	0x2000b0f4
20003074:	2000b1a4 	.word	0x2000b1a4
20003078:	2000b104 	.word	0x2000b104
2000307c:	200064dc 	.word	0x200064dc

20003080 <pxPortInitialiseStack>:
20003080:	b480      	push	{r7}
20003082:	b085      	sub	sp, #20
20003084:	af00      	add	r7, sp, #0
20003086:	60f8      	str	r0, [r7, #12]
20003088:	60b9      	str	r1, [r7, #8]
2000308a:	607a      	str	r2, [r7, #4]
2000308c:	68fb      	ldr	r3, [r7, #12]
2000308e:	3b04      	subs	r3, #4
20003090:	60fb      	str	r3, [r7, #12]
20003092:	68fb      	ldr	r3, [r7, #12]
20003094:	f04f 7280 	mov.w	r2, #16777216	; 0x1000000
20003098:	601a      	str	r2, [r3, #0]
2000309a:	68fb      	ldr	r3, [r7, #12]
2000309c:	3b04      	subs	r3, #4
2000309e:	60fb      	str	r3, [r7, #12]
200030a0:	68bb      	ldr	r3, [r7, #8]
200030a2:	f023 0201 	bic.w	r2, r3, #1
200030a6:	68fb      	ldr	r3, [r7, #12]
200030a8:	601a      	str	r2, [r3, #0]
200030aa:	68fb      	ldr	r3, [r7, #12]
200030ac:	3b04      	subs	r3, #4
200030ae:	60fb      	str	r3, [r7, #12]
200030b0:	4a0c      	ldr	r2, [pc, #48]	; (200030e4 <pxPortInitialiseStack+0x64>)
200030b2:	68fb      	ldr	r3, [r7, #12]
200030b4:	601a      	str	r2, [r3, #0]
200030b6:	68fb      	ldr	r3, [r7, #12]
200030b8:	3b14      	subs	r3, #20
200030ba:	60fb      	str	r3, [r7, #12]
200030bc:	687a      	ldr	r2, [r7, #4]
200030be:	68fb      	ldr	r3, [r7, #12]
200030c0:	601a      	str	r2, [r3, #0]
200030c2:	68fb      	ldr	r3, [r7, #12]
200030c4:	3b04      	subs	r3, #4
200030c6:	60fb      	str	r3, [r7, #12]
200030c8:	68fb      	ldr	r3, [r7, #12]
200030ca:	f06f 0202 	mvn.w	r2, #2
200030ce:	601a      	str	r2, [r3, #0]
200030d0:	68fb      	ldr	r3, [r7, #12]
200030d2:	3b20      	subs	r3, #32
200030d4:	60fb      	str	r3, [r7, #12]
200030d6:	68fb      	ldr	r3, [r7, #12]
200030d8:	4618      	mov	r0, r3
200030da:	3714      	adds	r7, #20
200030dc:	46bd      	mov	sp, r7
200030de:	f85d 7b04 	ldr.w	r7, [sp], #4
200030e2:	4770      	bx	lr
200030e4:	200030e9 	.word	0x200030e9

200030e8 <prvTaskExitError>:
200030e8:	b480      	push	{r7}
200030ea:	b085      	sub	sp, #20
200030ec:	af00      	add	r7, sp, #0
200030ee:	2300      	movs	r3, #0
200030f0:	607b      	str	r3, [r7, #4]
200030f2:	4b12      	ldr	r3, [pc, #72]	; (2000313c <prvTaskExitError+0x54>)
200030f4:	681b      	ldr	r3, [r3, #0]
200030f6:	f1b3 3fff 	cmp.w	r3, #4294967295
200030fa:	d00a      	beq.n	20003112 <prvTaskExitError+0x2a>
200030fc:	f04f 0350 	mov.w	r3, #80	; 0x50
20003100:	f383 8811 	msr	BASEPRI, r3
20003104:	f3bf 8f6f 	isb	sy
20003108:	f3bf 8f4f 	dsb	sy
2000310c:	60fb      	str	r3, [r7, #12]
2000310e:	bf00      	nop
20003110:	e7fe      	b.n	20003110 <prvTaskExitError+0x28>
20003112:	f04f 0350 	mov.w	r3, #80	; 0x50
20003116:	f383 8811 	msr	BASEPRI, r3
2000311a:	f3bf 8f6f 	isb	sy
2000311e:	f3bf 8f4f 	dsb	sy
20003122:	60bb      	str	r3, [r7, #8]
20003124:	bf00      	nop
20003126:	bf00      	nop
20003128:	687b      	ldr	r3, [r7, #4]
2000312a:	2b00      	cmp	r3, #0
2000312c:	d0fc      	beq.n	20003128 <prvTaskExitError+0x40>
2000312e:	bf00      	nop
20003130:	bf00      	nop
20003132:	3714      	adds	r7, #20
20003134:	46bd      	mov	sp, r7
20003136:	f85d 7b04 	ldr.w	r7, [sp], #4
2000313a:	4770      	bx	lr
2000313c:	2000a338 	.word	0x2000a338

20003140 <SVC_Handler>:
20003140:	4b07      	ldr	r3, [pc, #28]	; (20003160 <pxCurrentTCBConst2>)
20003142:	6819      	ldr	r1, [r3, #0]
20003144:	6808      	ldr	r0, [r1, #0]
20003146:	e8b0 4ff0 	ldmia.w	r0!, {r4, r5, r6, r7, r8, r9, sl, fp, lr}
2000314a:	f380 8809 	msr	PSP, r0
2000314e:	f3bf 8f6f 	isb	sy
20003152:	f04f 0000 	mov.w	r0, #0
20003156:	f380 8811 	msr	BASEPRI, r0
2000315a:	4770      	bx	lr
2000315c:	f3af 8000 	nop.w

20003160 <pxCurrentTCBConst2>:
20003160:	2000abc8 	.word	0x2000abc8
20003164:	bf00      	nop
20003166:	bf00      	nop

20003168 <prvPortStartFirstTask>:
20003168:	4808      	ldr	r0, [pc, #32]	; (2000318c <prvPortStartFirstTask+0x24>)
2000316a:	6800      	ldr	r0, [r0, #0]
2000316c:	6800      	ldr	r0, [r0, #0]
2000316e:	f380 8808 	msr	MSP, r0
20003172:	f04f 0000 	mov.w	r0, #0
20003176:	f380 8814 	msr	CONTROL, r0
2000317a:	b662      	cpsie	i
2000317c:	b661      	cpsie	f
2000317e:	f3bf 8f4f 	dsb	sy
20003182:	f3bf 8f6f 	isb	sy
20003186:	df00      	svc	0
20003188:	bf00      	nop
2000318a:	bf00      	nop
2000318c:	e000ed08 	.word	0xe000ed08

20003190 <xPortStartScheduler>:
20003190:	b580      	push	{r7, lr}
20003192:	b086      	sub	sp, #24
20003194:	af00      	add	r7, sp, #0
20003196:	4b46      	ldr	r3, [pc, #280]	; (200032b0 <xPortStartScheduler+0x120>)
20003198:	681b      	ldr	r3, [r3, #0]
2000319a:	4a46      	ldr	r2, [pc, #280]	; (200032b4 <xPortStartScheduler+0x124>)
2000319c:	4293      	cmp	r3, r2
2000319e:	d10a      	bne.n	200031b6 <xPortStartScheduler+0x26>
200031a0:	f04f 0350 	mov.w	r3, #80	; 0x50
200031a4:	f383 8811 	msr	BASEPRI, r3
200031a8:	f3bf 8f6f 	isb	sy
200031ac:	f3bf 8f4f 	dsb	sy
200031b0:	613b      	str	r3, [r7, #16]
200031b2:	bf00      	nop
200031b4:	e7fe      	b.n	200031b4 <xPortStartScheduler+0x24>
200031b6:	4b3e      	ldr	r3, [pc, #248]	; (200032b0 <xPortStartScheduler+0x120>)
200031b8:	681b      	ldr	r3, [r3, #0]
200031ba:	4a3f      	ldr	r2, [pc, #252]	; (200032b8 <xPortStartScheduler+0x128>)
200031bc:	4293      	cmp	r3, r2
200031be:	d10a      	bne.n	200031d6 <xPortStartScheduler+0x46>
200031c0:	f04f 0350 	mov.w	r3, #80	; 0x50
200031c4:	f383 8811 	msr	BASEPRI, r3
200031c8:	f3bf 8f6f 	isb	sy
200031cc:	f3bf 8f4f 	dsb	sy
200031d0:	60fb      	str	r3, [r7, #12]
200031d2:	bf00      	nop
200031d4:	e7fe      	b.n	200031d4 <xPortStartScheduler+0x44>
200031d6:	4b39      	ldr	r3, [pc, #228]	; (200032bc <xPortStartScheduler+0x12c>)
200031d8:	617b      	str	r3, [r7, #20]
200031da:	697b      	ldr	r3, [r7, #20]
200031dc:	781b      	ldrb	r3, [r3, #0]
200031de:	b2db      	uxtb	r3, r3
200031e0:	607b      	str	r3, [r7, #4]
200031e2:	697b      	ldr	r3, [r7, #20]
200031e4:	22ff      	movs	r2, #255	; 0xff
200031e6:	701a      	strb	r2, [r3, #0]
200031e8:	697b      	ldr	r3, [r7, #20]
200031ea:	781b      	ldrb	r3, [r3, #0]
200031ec:	b2db      	uxtb	r3, r3
200031ee:	70fb      	strb	r3, [r7, #3]
200031f0:	78fb      	ldrb	r3, [r7, #3]
200031f2:	b2db      	uxtb	r3, r3
200031f4:	f003 0350 	and.w	r3, r3, #80	; 0x50
200031f8:	b2da      	uxtb	r2, r3
200031fa:	4b31      	ldr	r3, [pc, #196]	; (200032c0 <xPortStartScheduler+0x130>)
200031fc:	701a      	strb	r2, [r3, #0]
200031fe:	4b31      	ldr	r3, [pc, #196]	; (200032c4 <xPortStartScheduler+0x134>)
20003200:	2207      	movs	r2, #7
20003202:	601a      	str	r2, [r3, #0]
20003204:	e009      	b.n	2000321a <xPortStartScheduler+0x8a>
20003206:	4b2f      	ldr	r3, [pc, #188]	; (200032c4 <xPortStartScheduler+0x134>)
20003208:	681b      	ldr	r3, [r3, #0]
2000320a:	3b01      	subs	r3, #1
2000320c:	4a2d      	ldr	r2, [pc, #180]	; (200032c4 <xPortStartScheduler+0x134>)
2000320e:	6013      	str	r3, [r2, #0]
20003210:	78fb      	ldrb	r3, [r7, #3]
20003212:	b2db      	uxtb	r3, r3
20003214:	005b      	lsls	r3, r3, #1
20003216:	b2db      	uxtb	r3, r3
20003218:	70fb      	strb	r3, [r7, #3]
2000321a:	78fb      	ldrb	r3, [r7, #3]
2000321c:	b2db      	uxtb	r3, r3
2000321e:	f003 0380 	and.w	r3, r3, #128	; 0x80
20003222:	2b80      	cmp	r3, #128	; 0x80
20003224:	d0ef      	beq.n	20003206 <xPortStartScheduler+0x76>
20003226:	4b27      	ldr	r3, [pc, #156]	; (200032c4 <xPortStartScheduler+0x134>)
20003228:	681b      	ldr	r3, [r3, #0]
2000322a:	f1c3 0307 	rsb	r3, r3, #7
2000322e:	2b04      	cmp	r3, #4
20003230:	d00a      	beq.n	20003248 <xPortStartScheduler+0xb8>
20003232:	f04f 0350 	mov.w	r3, #80	; 0x50
20003236:	f383 8811 	msr	BASEPRI, r3
2000323a:	f3bf 8f6f 	isb	sy
2000323e:	f3bf 8f4f 	dsb	sy
20003242:	60bb      	str	r3, [r7, #8]
20003244:	bf00      	nop
20003246:	e7fe      	b.n	20003246 <xPortStartScheduler+0xb6>
20003248:	4b1e      	ldr	r3, [pc, #120]	; (200032c4 <xPortStartScheduler+0x134>)
2000324a:	681b      	ldr	r3, [r3, #0]
2000324c:	021b      	lsls	r3, r3, #8
2000324e:	4a1d      	ldr	r2, [pc, #116]	; (200032c4 <xPortStartScheduler+0x134>)
20003250:	6013      	str	r3, [r2, #0]
20003252:	4b1c      	ldr	r3, [pc, #112]	; (200032c4 <xPortStartScheduler+0x134>)
20003254:	681b      	ldr	r3, [r3, #0]
20003256:	f403 63e0 	and.w	r3, r3, #1792	; 0x700
2000325a:	4a1a      	ldr	r2, [pc, #104]	; (200032c4 <xPortStartScheduler+0x134>)
2000325c:	6013      	str	r3, [r2, #0]
2000325e:	687b      	ldr	r3, [r7, #4]
20003260:	b2da      	uxtb	r2, r3
20003262:	697b      	ldr	r3, [r7, #20]
20003264:	701a      	strb	r2, [r3, #0]
20003266:	4b18      	ldr	r3, [pc, #96]	; (200032c8 <xPortStartScheduler+0x138>)
20003268:	681b      	ldr	r3, [r3, #0]
2000326a:	4a17      	ldr	r2, [pc, #92]	; (200032c8 <xPortStartScheduler+0x138>)
2000326c:	f443 0370 	orr.w	r3, r3, #15728640	; 0xf00000
20003270:	6013      	str	r3, [r2, #0]
20003272:	4b15      	ldr	r3, [pc, #84]	; (200032c8 <xPortStartScheduler+0x138>)
20003274:	681b      	ldr	r3, [r3, #0]
20003276:	4a14      	ldr	r2, [pc, #80]	; (200032c8 <xPortStartScheduler+0x138>)
20003278:	f043 4370 	orr.w	r3, r3, #4026531840	; 0xf0000000
2000327c:	6013      	str	r3, [r2, #0]
2000327e:	f000 f8dd 	bl	2000343c <vPortSetupTimerInterrupt>
20003282:	4b12      	ldr	r3, [pc, #72]	; (200032cc <xPortStartScheduler+0x13c>)
20003284:	2200      	movs	r2, #0
20003286:	601a      	str	r2, [r3, #0]
20003288:	f000 f8fc 	bl	20003484 <vPortEnableVFP>
2000328c:	4b10      	ldr	r3, [pc, #64]	; (200032d0 <xPortStartScheduler+0x140>)
2000328e:	681b      	ldr	r3, [r3, #0]
20003290:	4a0f      	ldr	r2, [pc, #60]	; (200032d0 <xPortStartScheduler+0x140>)
20003292:	f043 4340 	orr.w	r3, r3, #3221225472	; 0xc0000000
20003296:	6013      	str	r3, [r2, #0]
20003298:	f7ff ff66 	bl	20003168 <prvPortStartFirstTask>
2000329c:	f7ff f84c 	bl	20002338 <vTaskSwitchContext>
200032a0:	f7ff ff22 	bl	200030e8 <prvTaskExitError>
200032a4:	2300      	movs	r3, #0
200032a6:	4618      	mov	r0, r3
200032a8:	3718      	adds	r7, #24
200032aa:	46bd      	mov	sp, r7
200032ac:	bd80      	pop	{r7, pc}
200032ae:	bf00      	nop
200032b0:	e000ed00 	.word	0xe000ed00
200032b4:	410fc271 	.word	0x410fc271
200032b8:	410fc270 	.word	0x410fc270
200032bc:	e000e400 	.word	0xe000e400
200032c0:	2000b1f4 	.word	0x2000b1f4
200032c4:	2000b1f8 	.word	0x2000b1f8
200032c8:	e000ed20 	.word	0xe000ed20
200032cc:	2000a338 	.word	0x2000a338
200032d0:	e000ef34 	.word	0xe000ef34

200032d4 <vPortEnterCritical>:
200032d4:	b480      	push	{r7}
200032d6:	b083      	sub	sp, #12
200032d8:	af00      	add	r7, sp, #0
200032da:	f04f 0350 	mov.w	r3, #80	; 0x50
200032de:	f383 8811 	msr	BASEPRI, r3
200032e2:	f3bf 8f6f 	isb	sy
200032e6:	f3bf 8f4f 	dsb	sy
200032ea:	607b      	str	r3, [r7, #4]
200032ec:	bf00      	nop
200032ee:	4b0f      	ldr	r3, [pc, #60]	; (2000332c <vPortEnterCritical+0x58>)
200032f0:	681b      	ldr	r3, [r3, #0]
200032f2:	3301      	adds	r3, #1
200032f4:	4a0d      	ldr	r2, [pc, #52]	; (2000332c <vPortEnterCritical+0x58>)
200032f6:	6013      	str	r3, [r2, #0]
200032f8:	4b0c      	ldr	r3, [pc, #48]	; (2000332c <vPortEnterCritical+0x58>)
200032fa:	681b      	ldr	r3, [r3, #0]
200032fc:	2b01      	cmp	r3, #1
200032fe:	d10f      	bne.n	20003320 <vPortEnterCritical+0x4c>
20003300:	4b0b      	ldr	r3, [pc, #44]	; (20003330 <vPortEnterCritical+0x5c>)
20003302:	681b      	ldr	r3, [r3, #0]
20003304:	b2db      	uxtb	r3, r3
20003306:	2b00      	cmp	r3, #0
20003308:	d00a      	beq.n	20003320 <vPortEnterCritical+0x4c>
2000330a:	f04f 0350 	mov.w	r3, #80	; 0x50
2000330e:	f383 8811 	msr	BASEPRI, r3
20003312:	f3bf 8f6f 	isb	sy
20003316:	f3bf 8f4f 	dsb	sy
2000331a:	603b      	str	r3, [r7, #0]
2000331c:	bf00      	nop
2000331e:	e7fe      	b.n	2000331e <vPortEnterCritical+0x4a>
20003320:	bf00      	nop
20003322:	370c      	adds	r7, #12
20003324:	46bd      	mov	sp, r7
20003326:	f85d 7b04 	ldr.w	r7, [sp], #4
2000332a:	4770      	bx	lr
2000332c:	2000a338 	.word	0x2000a338
20003330:	e000ed04 	.word	0xe000ed04

20003334 <vPortExitCritical>:
20003334:	b480      	push	{r7}
20003336:	b083      	sub	sp, #12
20003338:	af00      	add	r7, sp, #0
2000333a:	4b12      	ldr	r3, [pc, #72]	; (20003384 <vPortExitCritical+0x50>)
2000333c:	681b      	ldr	r3, [r3, #0]
2000333e:	2b00      	cmp	r3, #0
20003340:	d10a      	bne.n	20003358 <vPortExitCritical+0x24>
20003342:	f04f 0350 	mov.w	r3, #80	; 0x50
20003346:	f383 8811 	msr	BASEPRI, r3
2000334a:	f3bf 8f6f 	isb	sy
2000334e:	f3bf 8f4f 	dsb	sy
20003352:	607b      	str	r3, [r7, #4]
20003354:	bf00      	nop
20003356:	e7fe      	b.n	20003356 <vPortExitCritical+0x22>
20003358:	4b0a      	ldr	r3, [pc, #40]	; (20003384 <vPortExitCritical+0x50>)
2000335a:	681b      	ldr	r3, [r3, #0]
2000335c:	3b01      	subs	r3, #1
2000335e:	4a09      	ldr	r2, [pc, #36]	; (20003384 <vPortExitCritical+0x50>)
20003360:	6013      	str	r3, [r2, #0]
20003362:	4b08      	ldr	r3, [pc, #32]	; (20003384 <vPortExitCritical+0x50>)
20003364:	681b      	ldr	r3, [r3, #0]
20003366:	2b00      	cmp	r3, #0
20003368:	d105      	bne.n	20003376 <vPortExitCritical+0x42>
2000336a:	2300      	movs	r3, #0
2000336c:	603b      	str	r3, [r7, #0]
2000336e:	683b      	ldr	r3, [r7, #0]
20003370:	f383 8811 	msr	BASEPRI, r3
20003374:	bf00      	nop
20003376:	bf00      	nop
20003378:	370c      	adds	r7, #12
2000337a:	46bd      	mov	sp, r7
2000337c:	f85d 7b04 	ldr.w	r7, [sp], #4
20003380:	4770      	bx	lr
20003382:	bf00      	nop
20003384:	2000a338 	.word	0x2000a338
	...

20003390 <PendSV_Handler>:
20003390:	f3ef 8009 	mrs	r0, PSP
20003394:	f3bf 8f6f 	isb	sy
20003398:	4b15      	ldr	r3, [pc, #84]	; (200033f0 <pxCurrentTCBConst>)
2000339a:	681a      	ldr	r2, [r3, #0]
2000339c:	f01e 0f10 	tst.w	lr, #16
200033a0:	bf08      	it	eq
200033a2:	ed20 8a10 	vstmdbeq	r0!, {s16-s31}
200033a6:	e920 4ff0 	stmdb	r0!, {r4, r5, r6, r7, r8, r9, sl, fp, lr}
200033aa:	6010      	str	r0, [r2, #0]
200033ac:	e92d 0009 	stmdb	sp!, {r0, r3}
200033b0:	f04f 0050 	mov.w	r0, #80	; 0x50
200033b4:	f380 8811 	msr	BASEPRI, r0
200033b8:	f3bf 8f4f 	dsb	sy
200033bc:	f3bf 8f6f 	isb	sy
200033c0:	f7fe ffba 	bl	20002338 <vTaskSwitchContext>
200033c4:	f04f 0000 	mov.w	r0, #0
200033c8:	f380 8811 	msr	BASEPRI, r0
200033cc:	bc09      	pop	{r0, r3}
200033ce:	6819      	ldr	r1, [r3, #0]
200033d0:	6808      	ldr	r0, [r1, #0]
200033d2:	e8b0 4ff0 	ldmia.w	r0!, {r4, r5, r6, r7, r8, r9, sl, fp, lr}
200033d6:	f01e 0f10 	tst.w	lr, #16
200033da:	bf08      	it	eq
200033dc:	ecb0 8a10 	vldmiaeq	r0!, {s16-s31}
200033e0:	f380 8809 	msr	PSP, r0
200033e4:	f3bf 8f6f 	isb	sy
200033e8:	4770      	bx	lr
200033ea:	bf00      	nop
200033ec:	f3af 8000 	nop.w

200033f0 <pxCurrentTCBConst>:
200033f0:	2000abc8 	.word	0x2000abc8
200033f4:	bf00      	nop
200033f6:	bf00      	nop

200033f8 <xPortSysTickHandler>:
200033f8:	b580      	push	{r7, lr}
200033fa:	b082      	sub	sp, #8
200033fc:	af00      	add	r7, sp, #0
200033fe:	f04f 0350 	mov.w	r3, #80	; 0x50
20003402:	f383 8811 	msr	BASEPRI, r3
20003406:	f3bf 8f6f 	isb	sy
2000340a:	f3bf 8f4f 	dsb	sy
2000340e:	607b      	str	r3, [r7, #4]
20003410:	bf00      	nop
20003412:	f7fe fed7 	bl	200021c4 <xTaskIncrementTick>
20003416:	4603      	mov	r3, r0
20003418:	2b00      	cmp	r3, #0
2000341a:	d003      	beq.n	20003424 <xPortSysTickHandler+0x2c>
2000341c:	4b06      	ldr	r3, [pc, #24]	; (20003438 <xPortSysTickHandler+0x40>)
2000341e:	f04f 5280 	mov.w	r2, #268435456	; 0x10000000
20003422:	601a      	str	r2, [r3, #0]
20003424:	2300      	movs	r3, #0
20003426:	603b      	str	r3, [r7, #0]
20003428:	683b      	ldr	r3, [r7, #0]
2000342a:	f383 8811 	msr	BASEPRI, r3
2000342e:	bf00      	nop
20003430:	bf00      	nop
20003432:	3708      	adds	r7, #8
20003434:	46bd      	mov	sp, r7
20003436:	bd80      	pop	{r7, pc}
20003438:	e000ed04 	.word	0xe000ed04

2000343c <vPortSetupTimerInterrupt>:
2000343c:	b480      	push	{r7}
2000343e:	af00      	add	r7, sp, #0
20003440:	4b0b      	ldr	r3, [pc, #44]	; (20003470 <vPortSetupTimerInterrupt+0x34>)
20003442:	2200      	movs	r2, #0
20003444:	601a      	str	r2, [r3, #0]
20003446:	4b0b      	ldr	r3, [pc, #44]	; (20003474 <vPortSetupTimerInterrupt+0x38>)
20003448:	2200      	movs	r2, #0
2000344a:	601a      	str	r2, [r3, #0]
2000344c:	4b0a      	ldr	r3, [pc, #40]	; (20003478 <vPortSetupTimerInterrupt+0x3c>)
2000344e:	681b      	ldr	r3, [r3, #0]
20003450:	4a0a      	ldr	r2, [pc, #40]	; (2000347c <vPortSetupTimerInterrupt+0x40>)
20003452:	fba2 2303 	umull	r2, r3, r2, r3
20003456:	099b      	lsrs	r3, r3, #6
20003458:	4a09      	ldr	r2, [pc, #36]	; (20003480 <vPortSetupTimerInterrupt+0x44>)
2000345a:	3b01      	subs	r3, #1
2000345c:	6013      	str	r3, [r2, #0]
2000345e:	4b04      	ldr	r3, [pc, #16]	; (20003470 <vPortSetupTimerInterrupt+0x34>)
20003460:	2207      	movs	r2, #7
20003462:	601a      	str	r2, [r3, #0]
20003464:	bf00      	nop
20003466:	46bd      	mov	sp, r7
20003468:	f85d 7b04 	ldr.w	r7, [sp], #4
2000346c:	4770      	bx	lr
2000346e:	bf00      	nop
20003470:	e000e010 	.word	0xe000e010
20003474:	e000e018 	.word	0xe000e018
20003478:	2000a388 	.word	0x2000a388
2000347c:	10624dd3 	.word	0x10624dd3
20003480:	e000e014 	.word	0xe000e014

20003484 <vPortEnableVFP>:
20003484:	f8df 000c 	ldr.w	r0, [pc, #12]	; 20003494 <vPortEnableVFP+0x10>
20003488:	6801      	ldr	r1, [r0, #0]
2000348a:	f441 0170 	orr.w	r1, r1, #15728640	; 0xf00000
2000348e:	6001      	str	r1, [r0, #0]
20003490:	4770      	bx	lr
20003492:	bf00      	nop
20003494:	e000ed88 	.word	0xe000ed88

20003498 <vPortValidateInterruptPriority>:
20003498:	b480      	push	{r7}
2000349a:	b085      	sub	sp, #20
2000349c:	af00      	add	r7, sp, #0
2000349e:	f3ef 8305 	mrs	r3, IPSR
200034a2:	60fb      	str	r3, [r7, #12]
200034a4:	68fb      	ldr	r3, [r7, #12]
200034a6:	2b0f      	cmp	r3, #15
200034a8:	d914      	bls.n	200034d4 <vPortValidateInterruptPriority+0x3c>
200034aa:	4a17      	ldr	r2, [pc, #92]	; (20003508 <vPortValidateInterruptPriority+0x70>)
200034ac:	68fb      	ldr	r3, [r7, #12]
200034ae:	4413      	add	r3, r2
200034b0:	781b      	ldrb	r3, [r3, #0]
200034b2:	72fb      	strb	r3, [r7, #11]
200034b4:	4b15      	ldr	r3, [pc, #84]	; (2000350c <vPortValidateInterruptPriority+0x74>)
200034b6:	781b      	ldrb	r3, [r3, #0]
200034b8:	7afa      	ldrb	r2, [r7, #11]
200034ba:	429a      	cmp	r2, r3
200034bc:	d20a      	bcs.n	200034d4 <vPortValidateInterruptPriority+0x3c>
200034be:	f04f 0350 	mov.w	r3, #80	; 0x50
200034c2:	f383 8811 	msr	BASEPRI, r3
200034c6:	f3bf 8f6f 	isb	sy
200034ca:	f3bf 8f4f 	dsb	sy
200034ce:	607b      	str	r3, [r7, #4]
200034d0:	bf00      	nop
200034d2:	e7fe      	b.n	200034d2 <vPortValidateInterruptPriority+0x3a>
200034d4:	4b0e      	ldr	r3, [pc, #56]	; (20003510 <vPortValidateInterruptPriority+0x78>)
200034d6:	681b      	ldr	r3, [r3, #0]
200034d8:	f403 62e0 	and.w	r2, r3, #1792	; 0x700
200034dc:	4b0d      	ldr	r3, [pc, #52]	; (20003514 <vPortValidateInterruptPriority+0x7c>)
200034de:	681b      	ldr	r3, [r3, #0]
200034e0:	429a      	cmp	r2, r3
200034e2:	d90a      	bls.n	200034fa <vPortValidateInterruptPriority+0x62>
200034e4:	f04f 0350 	mov.w	r3, #80	; 0x50
200034e8:	f383 8811 	msr	BASEPRI, r3
200034ec:	f3bf 8f6f 	isb	sy
200034f0:	f3bf 8f4f 	dsb	sy
200034f4:	603b      	str	r3, [r7, #0]
200034f6:	bf00      	nop
200034f8:	e7fe      	b.n	200034f8 <vPortValidateInterruptPriority+0x60>
200034fa:	bf00      	nop
200034fc:	3714      	adds	r7, #20
200034fe:	46bd      	mov	sp, r7
20003500:	f85d 7b04 	ldr.w	r7, [sp], #4
20003504:	4770      	bx	lr
20003506:	bf00      	nop
20003508:	e000e3f0 	.word	0xe000e3f0
2000350c:	2000b1f4 	.word	0x2000b1f4
20003510:	e000ed0c 	.word	0xe000ed0c
20003514:	2000b1f8 	.word	0x2000b1f8

20003518 <pvPortMalloc>:
20003518:	b580      	push	{r7, lr}
2000351a:	b08a      	sub	sp, #40	; 0x28
2000351c:	af00      	add	r7, sp, #0
2000351e:	6078      	str	r0, [r7, #4]
20003520:	2300      	movs	r3, #0
20003522:	61fb      	str	r3, [r7, #28]
20003524:	f7fe fd92 	bl	2000204c <vTaskSuspendAll>
20003528:	4b5b      	ldr	r3, [pc, #364]	; (20003698 <pvPortMalloc+0x180>)
2000352a:	681b      	ldr	r3, [r3, #0]
2000352c:	2b00      	cmp	r3, #0
2000352e:	d101      	bne.n	20003534 <pvPortMalloc+0x1c>
20003530:	f000 f920 	bl	20003774 <prvHeapInit>
20003534:	4b59      	ldr	r3, [pc, #356]	; (2000369c <pvPortMalloc+0x184>)
20003536:	681a      	ldr	r2, [r3, #0]
20003538:	687b      	ldr	r3, [r7, #4]
2000353a:	4013      	ands	r3, r2
2000353c:	2b00      	cmp	r3, #0
2000353e:	f040 8093 	bne.w	20003668 <pvPortMalloc+0x150>
20003542:	687b      	ldr	r3, [r7, #4]
20003544:	2b00      	cmp	r3, #0
20003546:	d01d      	beq.n	20003584 <pvPortMalloc+0x6c>
20003548:	2208      	movs	r2, #8
2000354a:	687b      	ldr	r3, [r7, #4]
2000354c:	4413      	add	r3, r2
2000354e:	607b      	str	r3, [r7, #4]
20003550:	687b      	ldr	r3, [r7, #4]
20003552:	f003 0307 	and.w	r3, r3, #7
20003556:	2b00      	cmp	r3, #0
20003558:	d014      	beq.n	20003584 <pvPortMalloc+0x6c>
2000355a:	687b      	ldr	r3, [r7, #4]
2000355c:	f023 0307 	bic.w	r3, r3, #7
20003560:	3308      	adds	r3, #8
20003562:	607b      	str	r3, [r7, #4]
20003564:	687b      	ldr	r3, [r7, #4]
20003566:	f003 0307 	and.w	r3, r3, #7
2000356a:	2b00      	cmp	r3, #0
2000356c:	d00a      	beq.n	20003584 <pvPortMalloc+0x6c>
2000356e:	f04f 0350 	mov.w	r3, #80	; 0x50
20003572:	f383 8811 	msr	BASEPRI, r3
20003576:	f3bf 8f6f 	isb	sy
2000357a:	f3bf 8f4f 	dsb	sy
2000357e:	617b      	str	r3, [r7, #20]
20003580:	bf00      	nop
20003582:	e7fe      	b.n	20003582 <pvPortMalloc+0x6a>
20003584:	687b      	ldr	r3, [r7, #4]
20003586:	2b00      	cmp	r3, #0
20003588:	d06e      	beq.n	20003668 <pvPortMalloc+0x150>
2000358a:	4b45      	ldr	r3, [pc, #276]	; (200036a0 <pvPortMalloc+0x188>)
2000358c:	681b      	ldr	r3, [r3, #0]
2000358e:	687a      	ldr	r2, [r7, #4]
20003590:	429a      	cmp	r2, r3
20003592:	d869      	bhi.n	20003668 <pvPortMalloc+0x150>
20003594:	4b43      	ldr	r3, [pc, #268]	; (200036a4 <pvPortMalloc+0x18c>)
20003596:	623b      	str	r3, [r7, #32]
20003598:	4b42      	ldr	r3, [pc, #264]	; (200036a4 <pvPortMalloc+0x18c>)
2000359a:	681b      	ldr	r3, [r3, #0]
2000359c:	627b      	str	r3, [r7, #36]	; 0x24
2000359e:	e004      	b.n	200035aa <pvPortMalloc+0x92>
200035a0:	6a7b      	ldr	r3, [r7, #36]	; 0x24
200035a2:	623b      	str	r3, [r7, #32]
200035a4:	6a7b      	ldr	r3, [r7, #36]	; 0x24
200035a6:	681b      	ldr	r3, [r3, #0]
200035a8:	627b      	str	r3, [r7, #36]	; 0x24
200035aa:	6a7b      	ldr	r3, [r7, #36]	; 0x24
200035ac:	685b      	ldr	r3, [r3, #4]
200035ae:	687a      	ldr	r2, [r7, #4]
200035b0:	429a      	cmp	r2, r3
200035b2:	d903      	bls.n	200035bc <pvPortMalloc+0xa4>
200035b4:	6a7b      	ldr	r3, [r7, #36]	; 0x24
200035b6:	681b      	ldr	r3, [r3, #0]
200035b8:	2b00      	cmp	r3, #0
200035ba:	d1f1      	bne.n	200035a0 <pvPortMalloc+0x88>
200035bc:	4b36      	ldr	r3, [pc, #216]	; (20003698 <pvPortMalloc+0x180>)
200035be:	681b      	ldr	r3, [r3, #0]
200035c0:	6a7a      	ldr	r2, [r7, #36]	; 0x24
200035c2:	429a      	cmp	r2, r3
200035c4:	d050      	beq.n	20003668 <pvPortMalloc+0x150>
200035c6:	6a3b      	ldr	r3, [r7, #32]
200035c8:	681b      	ldr	r3, [r3, #0]
200035ca:	2208      	movs	r2, #8
200035cc:	4413      	add	r3, r2
200035ce:	61fb      	str	r3, [r7, #28]
200035d0:	6a7b      	ldr	r3, [r7, #36]	; 0x24
200035d2:	681a      	ldr	r2, [r3, #0]
200035d4:	6a3b      	ldr	r3, [r7, #32]
200035d6:	601a      	str	r2, [r3, #0]
200035d8:	6a7b      	ldr	r3, [r7, #36]	; 0x24
200035da:	685a      	ldr	r2, [r3, #4]
200035dc:	687b      	ldr	r3, [r7, #4]
200035de:	1ad2      	subs	r2, r2, r3
200035e0:	2308      	movs	r3, #8
200035e2:	005b      	lsls	r3, r3, #1
200035e4:	429a      	cmp	r2, r3
200035e6:	d91f      	bls.n	20003628 <pvPortMalloc+0x110>
200035e8:	6a7a      	ldr	r2, [r7, #36]	; 0x24
200035ea:	687b      	ldr	r3, [r7, #4]
200035ec:	4413      	add	r3, r2
200035ee:	61bb      	str	r3, [r7, #24]
200035f0:	69bb      	ldr	r3, [r7, #24]
200035f2:	f003 0307 	and.w	r3, r3, #7
200035f6:	2b00      	cmp	r3, #0
200035f8:	d00a      	beq.n	20003610 <pvPortMalloc+0xf8>
200035fa:	f04f 0350 	mov.w	r3, #80	; 0x50
200035fe:	f383 8811 	msr	BASEPRI, r3
20003602:	f3bf 8f6f 	isb	sy
20003606:	f3bf 8f4f 	dsb	sy
2000360a:	613b      	str	r3, [r7, #16]
2000360c:	bf00      	nop
2000360e:	e7fe      	b.n	2000360e <pvPortMalloc+0xf6>
20003610:	6a7b      	ldr	r3, [r7, #36]	; 0x24
20003612:	685a      	ldr	r2, [r3, #4]
20003614:	687b      	ldr	r3, [r7, #4]
20003616:	1ad2      	subs	r2, r2, r3
20003618:	69bb      	ldr	r3, [r7, #24]
2000361a:	605a      	str	r2, [r3, #4]
2000361c:	6a7b      	ldr	r3, [r7, #36]	; 0x24
2000361e:	687a      	ldr	r2, [r7, #4]
20003620:	605a      	str	r2, [r3, #4]
20003622:	69b8      	ldr	r0, [r7, #24]
20003624:	f000 f908 	bl	20003838 <prvInsertBlockIntoFreeList>
20003628:	4b1d      	ldr	r3, [pc, #116]	; (200036a0 <pvPortMalloc+0x188>)
2000362a:	681a      	ldr	r2, [r3, #0]
2000362c:	6a7b      	ldr	r3, [r7, #36]	; 0x24
2000362e:	685b      	ldr	r3, [r3, #4]
20003630:	1ad3      	subs	r3, r2, r3
20003632:	4a1b      	ldr	r2, [pc, #108]	; (200036a0 <pvPortMalloc+0x188>)
20003634:	6013      	str	r3, [r2, #0]
20003636:	4b1a      	ldr	r3, [pc, #104]	; (200036a0 <pvPortMalloc+0x188>)
20003638:	681a      	ldr	r2, [r3, #0]
2000363a:	4b1b      	ldr	r3, [pc, #108]	; (200036a8 <pvPortMalloc+0x190>)
2000363c:	681b      	ldr	r3, [r3, #0]
2000363e:	429a      	cmp	r2, r3
20003640:	d203      	bcs.n	2000364a <pvPortMalloc+0x132>
20003642:	4b17      	ldr	r3, [pc, #92]	; (200036a0 <pvPortMalloc+0x188>)
20003644:	681b      	ldr	r3, [r3, #0]
20003646:	4a18      	ldr	r2, [pc, #96]	; (200036a8 <pvPortMalloc+0x190>)
20003648:	6013      	str	r3, [r2, #0]
2000364a:	6a7b      	ldr	r3, [r7, #36]	; 0x24
2000364c:	685a      	ldr	r2, [r3, #4]
2000364e:	4b13      	ldr	r3, [pc, #76]	; (2000369c <pvPortMalloc+0x184>)
20003650:	681b      	ldr	r3, [r3, #0]
20003652:	431a      	orrs	r2, r3
20003654:	6a7b      	ldr	r3, [r7, #36]	; 0x24
20003656:	605a      	str	r2, [r3, #4]
20003658:	6a7b      	ldr	r3, [r7, #36]	; 0x24
2000365a:	2200      	movs	r2, #0
2000365c:	601a      	str	r2, [r3, #0]
2000365e:	4b13      	ldr	r3, [pc, #76]	; (200036ac <pvPortMalloc+0x194>)
20003660:	681b      	ldr	r3, [r3, #0]
20003662:	3301      	adds	r3, #1
20003664:	4a11      	ldr	r2, [pc, #68]	; (200036ac <pvPortMalloc+0x194>)
20003666:	6013      	str	r3, [r2, #0]
20003668:	f7fe fcfe 	bl	20002068 <xTaskResumeAll>
2000366c:	69fb      	ldr	r3, [r7, #28]
2000366e:	f003 0307 	and.w	r3, r3, #7
20003672:	2b00      	cmp	r3, #0
20003674:	d00a      	beq.n	2000368c <pvPortMalloc+0x174>
20003676:	f04f 0350 	mov.w	r3, #80	; 0x50
2000367a:	f383 8811 	msr	BASEPRI, r3
2000367e:	f3bf 8f6f 	isb	sy
20003682:	f3bf 8f4f 	dsb	sy
20003686:	60fb      	str	r3, [r7, #12]
20003688:	bf00      	nop
2000368a:	e7fe      	b.n	2000368a <pvPortMalloc+0x172>
2000368c:	69fb      	ldr	r3, [r7, #28]
2000368e:	4618      	mov	r0, r3
20003690:	3728      	adds	r7, #40	; 0x28
20003692:	46bd      	mov	sp, r7
20003694:	bd80      	pop	{r7, pc}
20003696:	bf00      	nop
20003698:	2000ee04 	.word	0x2000ee04
2000369c:	2000ee18 	.word	0x2000ee18
200036a0:	2000ee08 	.word	0x2000ee08
200036a4:	2000edfc 	.word	0x2000edfc
200036a8:	2000ee0c 	.word	0x2000ee0c
200036ac:	2000ee10 	.word	0x2000ee10

200036b0 <vPortFree>:
200036b0:	b580      	push	{r7, lr}
200036b2:	b086      	sub	sp, #24
200036b4:	af00      	add	r7, sp, #0
200036b6:	6078      	str	r0, [r7, #4]
200036b8:	687b      	ldr	r3, [r7, #4]
200036ba:	617b      	str	r3, [r7, #20]
200036bc:	687b      	ldr	r3, [r7, #4]
200036be:	2b00      	cmp	r3, #0
200036c0:	d04d      	beq.n	2000375e <vPortFree+0xae>
200036c2:	2308      	movs	r3, #8
200036c4:	425b      	negs	r3, r3
200036c6:	697a      	ldr	r2, [r7, #20]
200036c8:	4413      	add	r3, r2
200036ca:	617b      	str	r3, [r7, #20]
200036cc:	697b      	ldr	r3, [r7, #20]
200036ce:	613b      	str	r3, [r7, #16]
200036d0:	693b      	ldr	r3, [r7, #16]
200036d2:	685a      	ldr	r2, [r3, #4]
200036d4:	4b24      	ldr	r3, [pc, #144]	; (20003768 <vPortFree+0xb8>)
200036d6:	681b      	ldr	r3, [r3, #0]
200036d8:	4013      	ands	r3, r2
200036da:	2b00      	cmp	r3, #0
200036dc:	d10a      	bne.n	200036f4 <vPortFree+0x44>
200036de:	f04f 0350 	mov.w	r3, #80	; 0x50
200036e2:	f383 8811 	msr	BASEPRI, r3
200036e6:	f3bf 8f6f 	isb	sy
200036ea:	f3bf 8f4f 	dsb	sy
200036ee:	60fb      	str	r3, [r7, #12]
200036f0:	bf00      	nop
200036f2:	e7fe      	b.n	200036f2 <vPortFree+0x42>
200036f4:	693b      	ldr	r3, [r7, #16]
200036f6:	681b      	ldr	r3, [r3, #0]
200036f8:	2b00      	cmp	r3, #0
200036fa:	d00a      	beq.n	20003712 <vPortFree+0x62>
200036fc:	f04f 0350 	mov.w	r3, #80	; 0x50
20003700:	f383 8811 	msr	BASEPRI, r3
20003704:	f3bf 8f6f 	isb	sy
20003708:	f3bf 8f4f 	dsb	sy
2000370c:	60bb      	str	r3, [r7, #8]
2000370e:	bf00      	nop
20003710:	e7fe      	b.n	20003710 <vPortFree+0x60>
20003712:	693b      	ldr	r3, [r7, #16]
20003714:	685a      	ldr	r2, [r3, #4]
20003716:	4b14      	ldr	r3, [pc, #80]	; (20003768 <vPortFree+0xb8>)
20003718:	681b      	ldr	r3, [r3, #0]
2000371a:	4013      	ands	r3, r2
2000371c:	2b00      	cmp	r3, #0
2000371e:	d01e      	beq.n	2000375e <vPortFree+0xae>
20003720:	693b      	ldr	r3, [r7, #16]
20003722:	681b      	ldr	r3, [r3, #0]
20003724:	2b00      	cmp	r3, #0
20003726:	d11a      	bne.n	2000375e <vPortFree+0xae>
20003728:	693b      	ldr	r3, [r7, #16]
2000372a:	685a      	ldr	r2, [r3, #4]
2000372c:	4b0e      	ldr	r3, [pc, #56]	; (20003768 <vPortFree+0xb8>)
2000372e:	681b      	ldr	r3, [r3, #0]
20003730:	43db      	mvns	r3, r3
20003732:	401a      	ands	r2, r3
20003734:	693b      	ldr	r3, [r7, #16]
20003736:	605a      	str	r2, [r3, #4]
20003738:	f7fe fc88 	bl	2000204c <vTaskSuspendAll>
2000373c:	693b      	ldr	r3, [r7, #16]
2000373e:	685a      	ldr	r2, [r3, #4]
20003740:	4b0a      	ldr	r3, [pc, #40]	; (2000376c <vPortFree+0xbc>)
20003742:	681b      	ldr	r3, [r3, #0]
20003744:	4413      	add	r3, r2
20003746:	4a09      	ldr	r2, [pc, #36]	; (2000376c <vPortFree+0xbc>)
20003748:	6013      	str	r3, [r2, #0]
2000374a:	6938      	ldr	r0, [r7, #16]
2000374c:	f000 f874 	bl	20003838 <prvInsertBlockIntoFreeList>
20003750:	4b07      	ldr	r3, [pc, #28]	; (20003770 <vPortFree+0xc0>)
20003752:	681b      	ldr	r3, [r3, #0]
20003754:	3301      	adds	r3, #1
20003756:	4a06      	ldr	r2, [pc, #24]	; (20003770 <vPortFree+0xc0>)
20003758:	6013      	str	r3, [r2, #0]
2000375a:	f7fe fc85 	bl	20002068 <xTaskResumeAll>
2000375e:	bf00      	nop
20003760:	3718      	adds	r7, #24
20003762:	46bd      	mov	sp, r7
20003764:	bd80      	pop	{r7, pc}
20003766:	bf00      	nop
20003768:	2000ee18 	.word	0x2000ee18
2000376c:	2000ee08 	.word	0x2000ee08
20003770:	2000ee14 	.word	0x2000ee14

20003774 <prvHeapInit>:
20003774:	b480      	push	{r7}
20003776:	b085      	sub	sp, #20
20003778:	af00      	add	r7, sp, #0
2000377a:	f44f 5370 	mov.w	r3, #15360	; 0x3c00
2000377e:	60bb      	str	r3, [r7, #8]
20003780:	4b27      	ldr	r3, [pc, #156]	; (20003820 <prvHeapInit+0xac>)
20003782:	60fb      	str	r3, [r7, #12]
20003784:	68fb      	ldr	r3, [r7, #12]
20003786:	f003 0307 	and.w	r3, r3, #7
2000378a:	2b00      	cmp	r3, #0
2000378c:	d00c      	beq.n	200037a8 <prvHeapInit+0x34>
2000378e:	68fb      	ldr	r3, [r7, #12]
20003790:	3307      	adds	r3, #7
20003792:	60fb      	str	r3, [r7, #12]
20003794:	68fb      	ldr	r3, [r7, #12]
20003796:	f023 0307 	bic.w	r3, r3, #7
2000379a:	60fb      	str	r3, [r7, #12]
2000379c:	68ba      	ldr	r2, [r7, #8]
2000379e:	68fb      	ldr	r3, [r7, #12]
200037a0:	1ad3      	subs	r3, r2, r3
200037a2:	4a1f      	ldr	r2, [pc, #124]	; (20003820 <prvHeapInit+0xac>)
200037a4:	4413      	add	r3, r2
200037a6:	60bb      	str	r3, [r7, #8]
200037a8:	68fb      	ldr	r3, [r7, #12]
200037aa:	607b      	str	r3, [r7, #4]
200037ac:	4a1d      	ldr	r2, [pc, #116]	; (20003824 <prvHeapInit+0xb0>)
200037ae:	687b      	ldr	r3, [r7, #4]
200037b0:	6013      	str	r3, [r2, #0]
200037b2:	4b1c      	ldr	r3, [pc, #112]	; (20003824 <prvHeapInit+0xb0>)
200037b4:	2200      	movs	r2, #0
200037b6:	605a      	str	r2, [r3, #4]
200037b8:	687b      	ldr	r3, [r7, #4]
200037ba:	68ba      	ldr	r2, [r7, #8]
200037bc:	4413      	add	r3, r2
200037be:	60fb      	str	r3, [r7, #12]
200037c0:	2208      	movs	r2, #8
200037c2:	68fb      	ldr	r3, [r7, #12]
200037c4:	1a9b      	subs	r3, r3, r2
200037c6:	60fb      	str	r3, [r7, #12]
200037c8:	68fb      	ldr	r3, [r7, #12]
200037ca:	f023 0307 	bic.w	r3, r3, #7
200037ce:	60fb      	str	r3, [r7, #12]
200037d0:	68fb      	ldr	r3, [r7, #12]
200037d2:	4a15      	ldr	r2, [pc, #84]	; (20003828 <prvHeapInit+0xb4>)
200037d4:	6013      	str	r3, [r2, #0]
200037d6:	4b14      	ldr	r3, [pc, #80]	; (20003828 <prvHeapInit+0xb4>)
200037d8:	681b      	ldr	r3, [r3, #0]
200037da:	2200      	movs	r2, #0
200037dc:	605a      	str	r2, [r3, #4]
200037de:	4b12      	ldr	r3, [pc, #72]	; (20003828 <prvHeapInit+0xb4>)
200037e0:	681b      	ldr	r3, [r3, #0]
200037e2:	2200      	movs	r2, #0
200037e4:	601a      	str	r2, [r3, #0]
200037e6:	687b      	ldr	r3, [r7, #4]
200037e8:	603b      	str	r3, [r7, #0]
200037ea:	683b      	ldr	r3, [r7, #0]
200037ec:	68fa      	ldr	r2, [r7, #12]
200037ee:	1ad2      	subs	r2, r2, r3
200037f0:	683b      	ldr	r3, [r7, #0]
200037f2:	605a      	str	r2, [r3, #4]
200037f4:	4b0c      	ldr	r3, [pc, #48]	; (20003828 <prvHeapInit+0xb4>)
200037f6:	681a      	ldr	r2, [r3, #0]
200037f8:	683b      	ldr	r3, [r7, #0]
200037fa:	601a      	str	r2, [r3, #0]
200037fc:	683b      	ldr	r3, [r7, #0]
200037fe:	685b      	ldr	r3, [r3, #4]
20003800:	4a0a      	ldr	r2, [pc, #40]	; (2000382c <prvHeapInit+0xb8>)
20003802:	6013      	str	r3, [r2, #0]
20003804:	683b      	ldr	r3, [r7, #0]
20003806:	685b      	ldr	r3, [r3, #4]
20003808:	4a09      	ldr	r2, [pc, #36]	; (20003830 <prvHeapInit+0xbc>)
2000380a:	6013      	str	r3, [r2, #0]
2000380c:	4b09      	ldr	r3, [pc, #36]	; (20003834 <prvHeapInit+0xc0>)
2000380e:	f04f 4200 	mov.w	r2, #2147483648	; 0x80000000
20003812:	601a      	str	r2, [r3, #0]
20003814:	bf00      	nop
20003816:	3714      	adds	r7, #20
20003818:	46bd      	mov	sp, r7
2000381a:	f85d 7b04 	ldr.w	r7, [sp], #4
2000381e:	4770      	bx	lr
20003820:	2000b1fc 	.word	0x2000b1fc
20003824:	2000edfc 	.word	0x2000edfc
20003828:	2000ee04 	.word	0x2000ee04
2000382c:	2000ee0c 	.word	0x2000ee0c
20003830:	2000ee08 	.word	0x2000ee08
20003834:	2000ee18 	.word	0x2000ee18

20003838 <prvInsertBlockIntoFreeList>:
20003838:	b480      	push	{r7}
2000383a:	b085      	sub	sp, #20
2000383c:	af00      	add	r7, sp, #0
2000383e:	6078      	str	r0, [r7, #4]
20003840:	4b28      	ldr	r3, [pc, #160]	; (200038e4 <prvInsertBlockIntoFreeList+0xac>)
20003842:	60fb      	str	r3, [r7, #12]
20003844:	e002      	b.n	2000384c <prvInsertBlockIntoFreeList+0x14>
20003846:	68fb      	ldr	r3, [r7, #12]
20003848:	681b      	ldr	r3, [r3, #0]
2000384a:	60fb      	str	r3, [r7, #12]
2000384c:	68fb      	ldr	r3, [r7, #12]
2000384e:	681b      	ldr	r3, [r3, #0]
20003850:	687a      	ldr	r2, [r7, #4]
20003852:	429a      	cmp	r2, r3
20003854:	d8f7      	bhi.n	20003846 <prvInsertBlockIntoFreeList+0xe>
20003856:	68fb      	ldr	r3, [r7, #12]
20003858:	60bb      	str	r3, [r7, #8]
2000385a:	68fb      	ldr	r3, [r7, #12]
2000385c:	685b      	ldr	r3, [r3, #4]
2000385e:	68ba      	ldr	r2, [r7, #8]
20003860:	4413      	add	r3, r2
20003862:	687a      	ldr	r2, [r7, #4]
20003864:	429a      	cmp	r2, r3
20003866:	d108      	bne.n	2000387a <prvInsertBlockIntoFreeList+0x42>
20003868:	68fb      	ldr	r3, [r7, #12]
2000386a:	685a      	ldr	r2, [r3, #4]
2000386c:	687b      	ldr	r3, [r7, #4]
2000386e:	685b      	ldr	r3, [r3, #4]
20003870:	441a      	add	r2, r3
20003872:	68fb      	ldr	r3, [r7, #12]
20003874:	605a      	str	r2, [r3, #4]
20003876:	68fb      	ldr	r3, [r7, #12]
20003878:	607b      	str	r3, [r7, #4]
2000387a:	687b      	ldr	r3, [r7, #4]
2000387c:	60bb      	str	r3, [r7, #8]
2000387e:	687b      	ldr	r3, [r7, #4]
20003880:	685b      	ldr	r3, [r3, #4]
20003882:	68ba      	ldr	r2, [r7, #8]
20003884:	441a      	add	r2, r3
20003886:	68fb      	ldr	r3, [r7, #12]
20003888:	681b      	ldr	r3, [r3, #0]
2000388a:	429a      	cmp	r2, r3
2000388c:	d118      	bne.n	200038c0 <prvInsertBlockIntoFreeList+0x88>
2000388e:	68fb      	ldr	r3, [r7, #12]
20003890:	681a      	ldr	r2, [r3, #0]
20003892:	4b15      	ldr	r3, [pc, #84]	; (200038e8 <prvInsertBlockIntoFreeList+0xb0>)
20003894:	681b      	ldr	r3, [r3, #0]
20003896:	429a      	cmp	r2, r3
20003898:	d00d      	beq.n	200038b6 <prvInsertBlockIntoFreeList+0x7e>
2000389a:	687b      	ldr	r3, [r7, #4]
2000389c:	685a      	ldr	r2, [r3, #4]
2000389e:	68fb      	ldr	r3, [r7, #12]
200038a0:	681b      	ldr	r3, [r3, #0]
200038a2:	685b      	ldr	r3, [r3, #4]
200038a4:	441a      	add	r2, r3
200038a6:	687b      	ldr	r3, [r7, #4]
200038a8:	605a      	str	r2, [r3, #4]
200038aa:	68fb      	ldr	r3, [r7, #12]
200038ac:	681b      	ldr	r3, [r3, #0]
200038ae:	681a      	ldr	r2, [r3, #0]
200038b0:	687b      	ldr	r3, [r7, #4]
200038b2:	601a      	str	r2, [r3, #0]
200038b4:	e008      	b.n	200038c8 <prvInsertBlockIntoFreeList+0x90>
200038b6:	4b0c      	ldr	r3, [pc, #48]	; (200038e8 <prvInsertBlockIntoFreeList+0xb0>)
200038b8:	681a      	ldr	r2, [r3, #0]
200038ba:	687b      	ldr	r3, [r7, #4]
200038bc:	601a      	str	r2, [r3, #0]
200038be:	e003      	b.n	200038c8 <prvInsertBlockIntoFreeList+0x90>
200038c0:	68fb      	ldr	r3, [r7, #12]
200038c2:	681a      	ldr	r2, [r3, #0]
200038c4:	687b      	ldr	r3, [r7, #4]
200038c6:	601a      	str	r2, [r3, #0]
200038c8:	68fa      	ldr	r2, [r7, #12]
200038ca:	687b      	ldr	r3, [r7, #4]
200038cc:	429a      	cmp	r2, r3
200038ce:	d002      	beq.n	200038d6 <prvInsertBlockIntoFreeList+0x9e>
200038d0:	68fb      	ldr	r3, [r7, #12]
200038d2:	687a      	ldr	r2, [r7, #4]
200038d4:	601a      	str	r2, [r3, #0]
200038d6:	bf00      	nop
200038d8:	3714      	adds	r7, #20
200038da:	46bd      	mov	sp, r7
200038dc:	f85d 7b04 	ldr.w	r7, [sp], #4
200038e0:	4770      	bx	lr
200038e2:	bf00      	nop
200038e4:	2000edfc 	.word	0x2000edfc
200038e8:	2000ee04 	.word	0x2000ee04

200038ec <LL_GPIO_SetOutputPin>:
  *         @arg @ref LL_GPIO_PIN_15
  *         @arg @ref LL_GPIO_PIN_ALL
  * @retval None
  */
__STATIC_INLINE void LL_GPIO_SetOutputPin(GPIO_TypeDef *GPIOx, uint32_t PinMask)
{
200038ec:	b480      	push	{r7}
200038ee:	b083      	sub	sp, #12
200038f0:	af00      	add	r7, sp, #0
200038f2:	6078      	str	r0, [r7, #4]
200038f4:	6039      	str	r1, [r7, #0]
  WRITE_REG(GPIOx->BSRR, PinMask);
200038f6:	687b      	ldr	r3, [r7, #4]
200038f8:	683a      	ldr	r2, [r7, #0]
200038fa:	619a      	str	r2, [r3, #24]
}
200038fc:	bf00      	nop
200038fe:	370c      	adds	r7, #12
20003900:	46bd      	mov	sp, r7
20003902:	f85d 7b04 	ldr.w	r7, [sp], #4
20003906:	4770      	bx	lr

20003908 <LL_GPIO_ResetOutputPin>:
  *         @arg @ref LL_GPIO_PIN_15
  *         @arg @ref LL_GPIO_PIN_ALL
  * @retval None
  */
__STATIC_INLINE void LL_GPIO_ResetOutputPin(GPIO_TypeDef *GPIOx, uint32_t PinMask)
{
20003908:	b480      	push	{r7}
2000390a:	b083      	sub	sp, #12
2000390c:	af00      	add	r7, sp, #0
2000390e:	6078      	str	r0, [r7, #4]
20003910:	6039      	str	r1, [r7, #0]
  WRITE_REG(GPIOx->BSRR, (PinMask << 16));
20003912:	683b      	ldr	r3, [r7, #0]
20003914:	041a      	lsls	r2, r3, #16
20003916:	687b      	ldr	r3, [r7, #4]
20003918:	619a      	str	r2, [r3, #24]
}
2000391a:	bf00      	nop
2000391c:	370c      	adds	r7, #12
2000391e:	46bd      	mov	sp, r7
20003920:	f85d 7b04 	ldr.w	r7, [sp], #4
20003924:	4770      	bx	lr

20003926 <LL_SPI_IsActiveFlag_RXNE>:
  * @rmtoll SR           RXNE          LL_SPI_IsActiveFlag_RXNE
  * @param  SPIx SPI Instance
  * @retval State of bit (1 or 0).
  */
__STATIC_INLINE uint32_t LL_SPI_IsActiveFlag_RXNE(SPI_TypeDef *SPIx)
{
20003926:	b480      	push	{r7}
20003928:	b083      	sub	sp, #12
2000392a:	af00      	add	r7, sp, #0
2000392c:	6078      	str	r0, [r7, #4]
  return ((READ_BIT(SPIx->SR, SPI_SR_RXNE) == (SPI_SR_RXNE)) ? 1UL : 0UL);
2000392e:	687b      	ldr	r3, [r7, #4]
20003930:	689b      	ldr	r3, [r3, #8]
20003932:	f003 0301 	and.w	r3, r3, #1
20003936:	2b01      	cmp	r3, #1
20003938:	d101      	bne.n	2000393e <LL_SPI_IsActiveFlag_RXNE+0x18>
2000393a:	2301      	movs	r3, #1
2000393c:	e000      	b.n	20003940 <LL_SPI_IsActiveFlag_RXNE+0x1a>
2000393e:	2300      	movs	r3, #0
}
20003940:	4618      	mov	r0, r3
20003942:	370c      	adds	r7, #12
20003944:	46bd      	mov	sp, r7
20003946:	f85d 7b04 	ldr.w	r7, [sp], #4
2000394a:	4770      	bx	lr

2000394c <LL_SPI_IsActiveFlag_TXE>:
  * @rmtoll SR           TXE           LL_SPI_IsActiveFlag_TXE
  * @param  SPIx SPI Instance
  * @retval State of bit (1 or 0).
  */
__STATIC_INLINE uint32_t LL_SPI_IsActiveFlag_TXE(SPI_TypeDef *SPIx)
{
2000394c:	b480      	push	{r7}
2000394e:	b083      	sub	sp, #12
20003950:	af00      	add	r7, sp, #0
20003952:	6078      	str	r0, [r7, #4]
  return ((READ_BIT(SPIx->SR, SPI_SR_TXE) == (SPI_SR_TXE)) ? 1UL : 0UL);
20003954:	687b      	ldr	r3, [r7, #4]
20003956:	689b      	ldr	r3, [r3, #8]
20003958:	f003 0302 	and.w	r3, r3, #2
2000395c:	2b02      	cmp	r3, #2
2000395e:	d101      	bne.n	20003964 <LL_SPI_IsActiveFlag_TXE+0x18>
20003960:	2301      	movs	r3, #1
20003962:	e000      	b.n	20003966 <LL_SPI_IsActiveFlag_TXE+0x1a>
20003964:	2300      	movs	r3, #0
}
20003966:	4618      	mov	r0, r3
20003968:	370c      	adds	r7, #12
2000396a:	46bd      	mov	sp, r7
2000396c:	f85d 7b04 	ldr.w	r7, [sp], #4
20003970:	4770      	bx	lr

20003972 <LL_SPI_DMA_GetRegAddr>:
  * @rmtoll DR           DR            LL_SPI_DMA_GetRegAddr
  * @param  SPIx SPI Instance
  * @retval Address of data register
  */
__STATIC_INLINE uint32_t LL_SPI_DMA_GetRegAddr(SPI_TypeDef *SPIx)
{
20003972:	b480      	push	{r7}
20003974:	b083      	sub	sp, #12
20003976:	af00      	add	r7, sp, #0
20003978:	6078      	str	r0, [r7, #4]
  return (uint32_t) &(SPIx->DR);
2000397a:	687b      	ldr	r3, [r7, #4]
2000397c:	330c      	adds	r3, #12
}
2000397e:	4618      	mov	r0, r3
20003980:	370c      	adds	r7, #12
20003982:	46bd      	mov	sp, r7
20003984:	f85d 7b04 	ldr.w	r7, [sp], #4
20003988:	4770      	bx	lr

2000398a <LL_SPI_ReceiveData8>:
  * @rmtoll DR           DR            LL_SPI_ReceiveData8
  * @param  SPIx SPI Instance
  * @retval RxData Value between Min_Data=0x00 and Max_Data=0xFF
  */
__STATIC_INLINE uint8_t LL_SPI_ReceiveData8(SPI_TypeDef *SPIx)
{
2000398a:	b480      	push	{r7}
2000398c:	b083      	sub	sp, #12
2000398e:	af00      	add	r7, sp, #0
20003990:	6078      	str	r0, [r7, #4]
  return (*((__IO uint8_t *)&SPIx->DR));
20003992:	687b      	ldr	r3, [r7, #4]
20003994:	330c      	adds	r3, #12
20003996:	781b      	ldrb	r3, [r3, #0]
20003998:	b2db      	uxtb	r3, r3
}
2000399a:	4618      	mov	r0, r3
2000399c:	370c      	adds	r7, #12
2000399e:	46bd      	mov	sp, r7
200039a0:	f85d 7b04 	ldr.w	r7, [sp], #4
200039a4:	4770      	bx	lr

200039a6 <LL_SPI_TransmitData8>:
  * @param  SPIx SPI Instance
  * @param  TxData Value between Min_Data=0x00 and Max_Data=0xFF
  * @retval None
  */
__STATIC_INLINE void LL_SPI_TransmitData8(SPI_TypeDef *SPIx, uint8_t TxData)
{
200039a6:	b480      	push	{r7}
200039a8:	b085      	sub	sp, #20
200039aa:	af00      	add	r7, sp, #0
200039ac:	6078      	str	r0, [r7, #4]
200039ae:	460b      	mov	r3, r1
200039b0:	70fb      	strb	r3, [r7, #3]
#if defined (__GNUC__)
  __IO uint8_t *spidr = ((__IO uint8_t *)&SPIx->DR);
200039b2:	687b      	ldr	r3, [r7, #4]
200039b4:	330c      	adds	r3, #12
200039b6:	60fb      	str	r3, [r7, #12]
  *spidr = TxData;
200039b8:	68fb      	ldr	r3, [r7, #12]
200039ba:	78fa      	ldrb	r2, [r7, #3]
200039bc:	701a      	strb	r2, [r3, #0]
#else
  *((__IO uint8_t *)&SPIx->DR) = TxData;
#endif /* __GNUC__ */
}
200039be:	bf00      	nop
200039c0:	3714      	adds	r7, #20
200039c2:	46bd      	mov	sp, r7
200039c4:	f85d 7b04 	ldr.w	r7, [sp], #4
200039c8:	4770      	bx	lr
	...

200039cc <LL_DMA_EnableStream>:
  *         @arg @ref LL_DMA_STREAM_6
  *         @arg @ref LL_DMA_STREAM_7
  * @retval None
  */
__STATIC_INLINE void LL_DMA_EnableStream(DMA_TypeDef *DMAx, uint32_t Stream)
{
200039cc:	b480      	push	{r7}
200039ce:	b083      	sub	sp, #12
200039d0:	af00      	add	r7, sp, #0
200039d2:	6078      	str	r0, [r7, #4]
200039d4:	6039      	str	r1, [r7, #0]
  SET_BIT(((DMA_Stream_TypeDef *)((uint32_t)((uint32_t)DMAx + STREAM_OFFSET_TAB[Stream])))->CR, DMA_SxCR_EN);
200039d6:	4a0c      	ldr	r2, [pc, #48]	; (20003a08 <LL_DMA_EnableStream+0x3c>)
200039d8:	683b      	ldr	r3, [r7, #0]
200039da:	4413      	add	r3, r2
200039dc:	781b      	ldrb	r3, [r3, #0]
200039de:	461a      	mov	r2, r3
200039e0:	687b      	ldr	r3, [r7, #4]
200039e2:	4413      	add	r3, r2
200039e4:	681b      	ldr	r3, [r3, #0]
200039e6:	4908      	ldr	r1, [pc, #32]	; (20003a08 <LL_DMA_EnableStream+0x3c>)
200039e8:	683a      	ldr	r2, [r7, #0]
200039ea:	440a      	add	r2, r1
200039ec:	7812      	ldrb	r2, [r2, #0]
200039ee:	4611      	mov	r1, r2
200039f0:	687a      	ldr	r2, [r7, #4]
200039f2:	440a      	add	r2, r1
200039f4:	f043 0301 	orr.w	r3, r3, #1
200039f8:	6013      	str	r3, [r2, #0]
}
200039fa:	bf00      	nop
200039fc:	370c      	adds	r7, #12
200039fe:	46bd      	mov	sp, r7
20003a00:	f85d 7b04 	ldr.w	r7, [sp], #4
20003a04:	4770      	bx	lr
20003a06:	bf00      	nop
20003a08:	20006544 	.word	0x20006544

20003a0c <LL_DMA_DisableStream>:
  *         @arg @ref LL_DMA_STREAM_6
  *         @arg @ref LL_DMA_STREAM_7
  * @retval None
  */
__STATIC_INLINE void LL_DMA_DisableStream(DMA_TypeDef *DMAx, uint32_t Stream)
{
20003a0c:	b480      	push	{r7}
20003a0e:	b083      	sub	sp, #12
20003a10:	af00      	add	r7, sp, #0
20003a12:	6078      	str	r0, [r7, #4]
20003a14:	6039      	str	r1, [r7, #0]
  CLEAR_BIT(((DMA_Stream_TypeDef *)((uint32_t)((uint32_t)DMAx + STREAM_OFFSET_TAB[Stream])))->CR, DMA_SxCR_EN);
20003a16:	4a0c      	ldr	r2, [pc, #48]	; (20003a48 <LL_DMA_DisableStream+0x3c>)
20003a18:	683b      	ldr	r3, [r7, #0]
20003a1a:	4413      	add	r3, r2
20003a1c:	781b      	ldrb	r3, [r3, #0]
20003a1e:	461a      	mov	r2, r3
20003a20:	687b      	ldr	r3, [r7, #4]
20003a22:	4413      	add	r3, r2
20003a24:	681b      	ldr	r3, [r3, #0]
20003a26:	4908      	ldr	r1, [pc, #32]	; (20003a48 <LL_DMA_DisableStream+0x3c>)
20003a28:	683a      	ldr	r2, [r7, #0]
20003a2a:	440a      	add	r2, r1
20003a2c:	7812      	ldrb	r2, [r2, #0]
20003a2e:	4611      	mov	r1, r2
20003a30:	687a      	ldr	r2, [r7, #4]
20003a32:	440a      	add	r2, r1
20003a34:	f023 0301 	bic.w	r3, r3, #1
20003a38:	6013      	str	r3, [r2, #0]
}
20003a3a:	bf00      	nop
20003a3c:	370c      	adds	r7, #12
20003a3e:	46bd      	mov	sp, r7
20003a40:	f85d 7b04 	ldr.w	r7, [sp], #4
20003a44:	4770      	bx	lr
20003a46:	bf00      	nop
20003a48:	20006544 	.word	0x20006544

20003a4c <LL_DMA_GetDataTransferDirection>:
  *         @arg @ref LL_DMA_DIRECTION_PERIPH_TO_MEMORY
  *         @arg @ref LL_DMA_DIRECTION_MEMORY_TO_PERIPH
  *         @arg @ref LL_DMA_DIRECTION_MEMORY_TO_MEMORY
  */
__STATIC_INLINE uint32_t LL_DMA_GetDataTransferDirection(DMA_TypeDef *DMAx, uint32_t Stream)
{
20003a4c:	b480      	push	{r7}
20003a4e:	b083      	sub	sp, #12
20003a50:	af00      	add	r7, sp, #0
20003a52:	6078      	str	r0, [r7, #4]
20003a54:	6039      	str	r1, [r7, #0]
  return (READ_BIT(((DMA_Stream_TypeDef*)((uint32_t)((uint32_t)DMAx + STREAM_OFFSET_TAB[Stream])))->CR, DMA_SxCR_DIR));
20003a56:	4a08      	ldr	r2, [pc, #32]	; (20003a78 <LL_DMA_GetDataTransferDirection+0x2c>)
20003a58:	683b      	ldr	r3, [r7, #0]
20003a5a:	4413      	add	r3, r2
20003a5c:	781b      	ldrb	r3, [r3, #0]
20003a5e:	461a      	mov	r2, r3
20003a60:	687b      	ldr	r3, [r7, #4]
20003a62:	4413      	add	r3, r2
20003a64:	681b      	ldr	r3, [r3, #0]
20003a66:	f003 03c0 	and.w	r3, r3, #192	; 0xc0
}
20003a6a:	4618      	mov	r0, r3
20003a6c:	370c      	adds	r7, #12
20003a6e:	46bd      	mov	sp, r7
20003a70:	f85d 7b04 	ldr.w	r7, [sp], #4
20003a74:	4770      	bx	lr
20003a76:	bf00      	nop
20003a78:	20006544 	.word	0x20006544

20003a7c <LL_DMA_SetDataLength>:
  *         @arg @ref LL_DMA_STREAM_7
  * @param  NbData Between 0 to 0xFFFFFFFF
  * @retval None
  */
__STATIC_INLINE void LL_DMA_SetDataLength(DMA_TypeDef* DMAx, uint32_t Stream, uint32_t NbData)
{
20003a7c:	b480      	push	{r7}
20003a7e:	b085      	sub	sp, #20
20003a80:	af00      	add	r7, sp, #0
20003a82:	60f8      	str	r0, [r7, #12]
20003a84:	60b9      	str	r1, [r7, #8]
20003a86:	607a      	str	r2, [r7, #4]
  MODIFY_REG(((DMA_Stream_TypeDef*)((uint32_t)((uint32_t)DMAx + STREAM_OFFSET_TAB[Stream])))->NDTR, DMA_SxNDT, NbData);
20003a88:	4a0d      	ldr	r2, [pc, #52]	; (20003ac0 <LL_DMA_SetDataLength+0x44>)
20003a8a:	68bb      	ldr	r3, [r7, #8]
20003a8c:	4413      	add	r3, r2
20003a8e:	781b      	ldrb	r3, [r3, #0]
20003a90:	461a      	mov	r2, r3
20003a92:	68fb      	ldr	r3, [r7, #12]
20003a94:	4413      	add	r3, r2
20003a96:	685b      	ldr	r3, [r3, #4]
20003a98:	0c1b      	lsrs	r3, r3, #16
20003a9a:	041b      	lsls	r3, r3, #16
20003a9c:	4908      	ldr	r1, [pc, #32]	; (20003ac0 <LL_DMA_SetDataLength+0x44>)
20003a9e:	68ba      	ldr	r2, [r7, #8]
20003aa0:	440a      	add	r2, r1
20003aa2:	7812      	ldrb	r2, [r2, #0]
20003aa4:	4611      	mov	r1, r2
20003aa6:	68fa      	ldr	r2, [r7, #12]
20003aa8:	440a      	add	r2, r1
20003aaa:	4611      	mov	r1, r2
20003aac:	687a      	ldr	r2, [r7, #4]
20003aae:	4313      	orrs	r3, r2
20003ab0:	604b      	str	r3, [r1, #4]
}
20003ab2:	bf00      	nop
20003ab4:	3714      	adds	r7, #20
20003ab6:	46bd      	mov	sp, r7
20003ab8:	f85d 7b04 	ldr.w	r7, [sp], #4
20003abc:	4770      	bx	lr
20003abe:	bf00      	nop
20003ac0:	20006544 	.word	0x20006544

20003ac4 <LL_DMA_ConfigAddresses>:
  *         @arg @ref LL_DMA_DIRECTION_MEMORY_TO_PERIPH
  *         @arg @ref LL_DMA_DIRECTION_MEMORY_TO_MEMORY
  * @retval None
  */
__STATIC_INLINE void LL_DMA_ConfigAddresses(DMA_TypeDef* DMAx, uint32_t Stream, uint32_t SrcAddress, uint32_t DstAddress, uint32_t Direction)
{
20003ac4:	b480      	push	{r7}
20003ac6:	b085      	sub	sp, #20
20003ac8:	af00      	add	r7, sp, #0
20003aca:	60f8      	str	r0, [r7, #12]
20003acc:	60b9      	str	r1, [r7, #8]
20003ace:	607a      	str	r2, [r7, #4]
20003ad0:	603b      	str	r3, [r7, #0]
  /* Direction Memory to Periph */
  if (Direction == LL_DMA_DIRECTION_MEMORY_TO_PERIPH)
20003ad2:	69bb      	ldr	r3, [r7, #24]
20003ad4:	2b40      	cmp	r3, #64	; 0x40
20003ad6:	d114      	bne.n	20003b02 <LL_DMA_ConfigAddresses+0x3e>
  {
    WRITE_REG(((DMA_Stream_TypeDef*)((uint32_t)((uint32_t)DMAx + STREAM_OFFSET_TAB[Stream])))->M0AR, SrcAddress);
20003ad8:	4a17      	ldr	r2, [pc, #92]	; (20003b38 <LL_DMA_ConfigAddresses+0x74>)
20003ada:	68bb      	ldr	r3, [r7, #8]
20003adc:	4413      	add	r3, r2
20003ade:	781b      	ldrb	r3, [r3, #0]
20003ae0:	461a      	mov	r2, r3
20003ae2:	68fb      	ldr	r3, [r7, #12]
20003ae4:	4413      	add	r3, r2
20003ae6:	461a      	mov	r2, r3
20003ae8:	687b      	ldr	r3, [r7, #4]
20003aea:	60d3      	str	r3, [r2, #12]
    WRITE_REG(((DMA_Stream_TypeDef*)((uint32_t)((uint32_t)DMAx + STREAM_OFFSET_TAB[Stream])))->PAR, DstAddress);
20003aec:	4a12      	ldr	r2, [pc, #72]	; (20003b38 <LL_DMA_ConfigAddresses+0x74>)
20003aee:	68bb      	ldr	r3, [r7, #8]
20003af0:	4413      	add	r3, r2
20003af2:	781b      	ldrb	r3, [r3, #0]
20003af4:	461a      	mov	r2, r3
20003af6:	68fb      	ldr	r3, [r7, #12]
20003af8:	4413      	add	r3, r2
20003afa:	461a      	mov	r2, r3
20003afc:	683b      	ldr	r3, [r7, #0]
20003afe:	6093      	str	r3, [r2, #8]
  else
  {
    WRITE_REG(((DMA_Stream_TypeDef*)((uint32_t)((uint32_t)DMAx + STREAM_OFFSET_TAB[Stream])))->PAR, SrcAddress);
    WRITE_REG(((DMA_Stream_TypeDef*)((uint32_t)((uint32_t)DMAx + STREAM_OFFSET_TAB[Stream])))->M0AR, DstAddress);
  }
}
20003b00:	e013      	b.n	20003b2a <LL_DMA_ConfigAddresses+0x66>
    WRITE_REG(((DMA_Stream_TypeDef*)((uint32_t)((uint32_t)DMAx + STREAM_OFFSET_TAB[Stream])))->PAR, SrcAddress);
20003b02:	4a0d      	ldr	r2, [pc, #52]	; (20003b38 <LL_DMA_ConfigAddresses+0x74>)
20003b04:	68bb      	ldr	r3, [r7, #8]
20003b06:	4413      	add	r3, r2
20003b08:	781b      	ldrb	r3, [r3, #0]
20003b0a:	461a      	mov	r2, r3
20003b0c:	68fb      	ldr	r3, [r7, #12]
20003b0e:	4413      	add	r3, r2
20003b10:	461a      	mov	r2, r3
20003b12:	687b      	ldr	r3, [r7, #4]
20003b14:	6093      	str	r3, [r2, #8]
    WRITE_REG(((DMA_Stream_TypeDef*)((uint32_t)((uint32_t)DMAx + STREAM_OFFSET_TAB[Stream])))->M0AR, DstAddress);
20003b16:	4a08      	ldr	r2, [pc, #32]	; (20003b38 <LL_DMA_ConfigAddresses+0x74>)
20003b18:	68bb      	ldr	r3, [r7, #8]
20003b1a:	4413      	add	r3, r2
20003b1c:	781b      	ldrb	r3, [r3, #0]
20003b1e:	461a      	mov	r2, r3
20003b20:	68fb      	ldr	r3, [r7, #12]
20003b22:	4413      	add	r3, r2
20003b24:	461a      	mov	r2, r3
20003b26:	683b      	ldr	r3, [r7, #0]
20003b28:	60d3      	str	r3, [r2, #12]
}
20003b2a:	bf00      	nop
20003b2c:	3714      	adds	r7, #20
20003b2e:	46bd      	mov	sp, r7
20003b30:	f85d 7b04 	ldr.w	r7, [sp], #4
20003b34:	4770      	bx	lr
20003b36:	bf00      	nop
20003b38:	20006544 	.word	0x20006544

20003b3c <TFTDisplay_ILI9341_Initialization>:
static void tftDisplay_ILI9341_Reset(void);
static void tftDisplay_ILI9341_FontsInitialization(void);
static void tftDisplay_ILI9341_SetAddrWindow(uint16_t x0, uint16_t y0, uint16_t x1, uint16_t y1);
//-------------------------------------------------------------------
void TFTDisplay_ILI9341_Initialization(uint16_t screenWidth, uint16_t screeHeight)
{
20003b3c:	b580      	push	{r7, lr}
20003b3e:	b082      	sub	sp, #8
20003b40:	af00      	add	r7, sp, #0
20003b42:	4603      	mov	r3, r0
20003b44:	460a      	mov	r2, r1
20003b46:	80fb      	strh	r3, [r7, #6]
20003b48:	4613      	mov	r3, r2
20003b4a:	80bb      	strh	r3, [r7, #4]
	CS_ACTIVE();
20003b4c:	2104      	movs	r1, #4
20003b4e:	4823      	ldr	r0, [pc, #140]	; (20003bdc <TFTDisplay_ILI9341_Initialization+0xa0>)
20003b50:	f7ff feda 	bl	20003908 <LL_GPIO_ResetOutputPin>
	tftDisplay_ILI9341_Reset();
20003b54:	f000 fcfa 	bl	2000454c <tftDisplay_ILI9341_Reset>
	tftDisplay_ILI9341_SendCommand(TFT_ILI9341_SWRESET);
20003b58:	2001      	movs	r0, #1
20003b5a:	f000 fbdb 	bl	20004314 <tftDisplay_ILI9341_SendCommand>

	LL_mDelay(1000);
20003b5e:	f44f 707a 	mov.w	r0, #1000	; 0x3e8
20003b62:	f7fc ff67 	bl	20000a34 <LL_mDelay>

	tftDisplay_ILI9341_Init_PowerControl_A();
20003b66:	f000 fd91 	bl	2000468c <tftDisplay_ILI9341_Init_PowerControl_A>
	tftDisplay_ILI9341_Init_PowerControl_B();
20003b6a:	f000 fdad 	bl	200046c8 <tftDisplay_ILI9341_Init_PowerControl_B>
	tftDisplay_ILI9341_Init_DriverTimingControl_A();
20003b6e:	f000 fdc3 	bl	200046f8 <tftDisplay_ILI9341_Init_DriverTimingControl_A>
	tftDisplay_ILI9341_Init_DriverTimingControl_B();
20003b72:	f000 fdd9 	bl	20004728 <tftDisplay_ILI9341_Init_DriverTimingControl_B>
	tftDisplay_ILI9341_Init_PowerSequenceControl();
20003b76:	f000 fdeb 	bl	20004750 <tftDisplay_ILI9341_Init_PowerSequenceControl>
	tftDisplay_ILI9341_Init_PumpRatioControl();
20003b7a:	f000 fe03 	bl	20004784 <tftDisplay_ILI9341_Init_PumpRatioControl>
	tftDisplay_ILI9341_Init_PowerControlVRH();
20003b7e:	f000 fe11 	bl	200047a4 <tftDisplay_ILI9341_Init_PowerControlVRH>
	tftDisplay_ILI9341_Init_PowerControlSAP();
20003b82:	f000 fe1f 	bl	200047c4 <tftDisplay_ILI9341_Init_PowerControlSAP>
	tftDisplay_ILI9341_Init_VCOMControl_1();
20003b86:	f000 fe2d 	bl	200047e4 <tftDisplay_ILI9341_Init_VCOMControl_1>
	tftDisplay_ILI9341_Init_VCOMControl_2();
20003b8a:	f000 fe3f 	bl	2000480c <tftDisplay_ILI9341_Init_VCOMControl_2>
	tftDisplay_ILI9341_Init_MemmoryAccessControl();
20003b8e:	f000 fe4d 	bl	2000482c <tftDisplay_ILI9341_Init_MemmoryAccessControl>
	tftDisplay_ILI9341_Init_PixelFormatSet();
20003b92:	f000 fe5b 	bl	2000484c <tftDisplay_ILI9341_Init_PixelFormatSet>
	tftDisplay_ILI9341_Init_FrameRationControl();
20003b96:	f000 fe69 	bl	2000486c <tftDisplay_ILI9341_Init_FrameRationControl>
	tftDisplay_ILI9341_Init_DisplayFunctionControl();
20003b9a:	f000 fe7b 	bl	20004894 <tftDisplay_ILI9341_Init_DisplayFunctionControl>
	tftDisplay_ILI9341_Init_GammaSet();
20003b9e:	f000 fe89 	bl	200048b4 <tftDisplay_ILI9341_Init_GammaSet>
	tftDisplay_ILI9341_Init_PositiveGammaCorection();
20003ba2:	f000 fe97 	bl	200048d4 <tftDisplay_ILI9341_Init_PositiveGammaCorection>
	tftDisplay_ILI9341_Init_NegativeGammaCorection();
20003ba6:	f000 fed1 	bl	2000494c <tftDisplay_ILI9341_Init_NegativeGammaCorection>

	tftDisplay_ILI9341_SendCommand(TFT_ILI9341_SLEEP_OUT);
20003baa:	2011      	movs	r0, #17
20003bac:	f000 fbb2 	bl	20004314 <tftDisplay_ILI9341_SendCommand>

	LL_mDelay(120);
20003bb0:	2078      	movs	r0, #120	; 0x78
20003bb2:	f7fc ff3f 	bl	20000a34 <LL_mDelay>

	tftDisplay_ILI9341_SendCommand(TFT_ILI9341_DISPLAY_ON);
20003bb6:	2029      	movs	r0, #41	; 0x29
20003bb8:	f000 fbac 	bl	20004314 <tftDisplay_ILI9341_SendCommand>
	tftDisplay_ILI9341_SendData(TFT_ILI9341_ROTATION);
20003bbc:	2048      	movs	r0, #72	; 0x48
20003bbe:	f000 fbf7 	bl	200043b0 <tftDisplay_ILI9341_SendData>
	TFTDisplay_ILI9341_WIDTH = screenWidth;
20003bc2:	4a07      	ldr	r2, [pc, #28]	; (20003be0 <TFTDisplay_ILI9341_Initialization+0xa4>)
20003bc4:	88fb      	ldrh	r3, [r7, #6]
20003bc6:	8013      	strh	r3, [r2, #0]
	TFTDisplay_ILI9341_HEIGHT = screeHeight;
20003bc8:	4a06      	ldr	r2, [pc, #24]	; (20003be4 <TFTDisplay_ILI9341_Initialization+0xa8>)
20003bca:	88bb      	ldrh	r3, [r7, #4]
20003bcc:	8013      	strh	r3, [r2, #0]
	tftDisplay_ILI9341_FontsInitialization();
20003bce:	f000 fcd1 	bl	20004574 <tftDisplay_ILI9341_FontsInitialization>
}
20003bd2:	bf00      	nop
20003bd4:	3708      	adds	r7, #8
20003bd6:	46bd      	mov	sp, r7
20003bd8:	bd80      	pop	{r7, pc}
20003bda:	bf00      	nop
20003bdc:	40020800 	.word	0x40020800
20003be0:	2000ee1c 	.word	0x2000ee1c
20003be4:	2000ee1e 	.word	0x2000ee1e

20003be8 <TFTDisplay_ILI9341_FillRect>:
//-------------------------------------------------------------------
void TFTDisplay_ILI9341_FillRect(uint16_t x1, uint16_t y1, uint16_t x2, uint16_t y2, uint16_t color)
{
20003be8:	b590      	push	{r4, r7, lr}
20003bea:	b089      	sub	sp, #36	; 0x24
20003bec:	af00      	add	r7, sp, #0
20003bee:	4604      	mov	r4, r0
20003bf0:	4608      	mov	r0, r1
20003bf2:	4611      	mov	r1, r2
20003bf4:	461a      	mov	r2, r3
20003bf6:	4623      	mov	r3, r4
20003bf8:	80fb      	strh	r3, [r7, #6]
20003bfa:	4603      	mov	r3, r0
20003bfc:	80bb      	strh	r3, [r7, #4]
20003bfe:	460b      	mov	r3, r1
20003c00:	807b      	strh	r3, [r7, #2]
20003c02:	4613      	mov	r3, r2
20003c04:	803b      	strh	r3, [r7, #0]
  uint32_t i = 0;
20003c06:	2300      	movs	r3, #0
20003c08:	61fb      	str	r3, [r7, #28]
  uint32_t n = 0;
20003c0a:	2300      	movs	r3, #0
20003c0c:	613b      	str	r3, [r7, #16]
  uint8_t cnt = 0;
20003c0e:	2300      	movs	r3, #0
20003c10:	76fb      	strb	r3, [r7, #27]
  uint32_t buf_size = 0;
20003c12:	2300      	movs	r3, #0
20003c14:	617b      	str	r3, [r7, #20]

  if((x1 >= TFTDisplay_ILI9341_WIDTH) || (y1 >= TFTDisplay_ILI9341_HEIGHT) ||
20003c16:	4b47      	ldr	r3, [pc, #284]	; (20003d34 <TFTDisplay_ILI9341_FillRect+0x14c>)
20003c18:	881b      	ldrh	r3, [r3, #0]
20003c1a:	88fa      	ldrh	r2, [r7, #6]
20003c1c:	429a      	cmp	r2, r3
20003c1e:	f080 8084 	bcs.w	20003d2a <TFTDisplay_ILI9341_FillRect+0x142>
20003c22:	4b45      	ldr	r3, [pc, #276]	; (20003d38 <TFTDisplay_ILI9341_FillRect+0x150>)
20003c24:	881b      	ldrh	r3, [r3, #0]
20003c26:	88ba      	ldrh	r2, [r7, #4]
20003c28:	429a      	cmp	r2, r3
20003c2a:	d27e      	bcs.n	20003d2a <TFTDisplay_ILI9341_FillRect+0x142>
     (x2 >= TFTDisplay_ILI9341_WIDTH) || (y2 >= TFTDisplay_ILI9341_HEIGHT)) {
20003c2c:	4b41      	ldr	r3, [pc, #260]	; (20003d34 <TFTDisplay_ILI9341_FillRect+0x14c>)
20003c2e:	881b      	ldrh	r3, [r3, #0]
  if((x1 >= TFTDisplay_ILI9341_WIDTH) || (y1 >= TFTDisplay_ILI9341_HEIGHT) ||
20003c30:	887a      	ldrh	r2, [r7, #2]
20003c32:	429a      	cmp	r2, r3
20003c34:	d279      	bcs.n	20003d2a <TFTDisplay_ILI9341_FillRect+0x142>
     (x2 >= TFTDisplay_ILI9341_WIDTH) || (y2 >= TFTDisplay_ILI9341_HEIGHT)) {
20003c36:	4b40      	ldr	r3, [pc, #256]	; (20003d38 <TFTDisplay_ILI9341_FillRect+0x150>)
20003c38:	881b      	ldrh	r3, [r3, #0]
20003c3a:	883a      	ldrh	r2, [r7, #0]
20003c3c:	429a      	cmp	r2, r3
20003c3e:	d274      	bcs.n	20003d2a <TFTDisplay_ILI9341_FillRect+0x142>
	  return;
  }
  if(x1>x2) {
20003c40:	88fa      	ldrh	r2, [r7, #6]
20003c42:	887b      	ldrh	r3, [r7, #2]
20003c44:	429a      	cmp	r2, r3
20003c46:	d905      	bls.n	20003c54 <TFTDisplay_ILI9341_FillRect+0x6c>
	  SWAP(x1,x2);
20003c48:	88fb      	ldrh	r3, [r7, #6]
20003c4a:	81fb      	strh	r3, [r7, #14]
20003c4c:	887b      	ldrh	r3, [r7, #2]
20003c4e:	80fb      	strh	r3, [r7, #6]
20003c50:	89fb      	ldrh	r3, [r7, #14]
20003c52:	807b      	strh	r3, [r7, #2]
  }
  if(y1>y2) {
20003c54:	88ba      	ldrh	r2, [r7, #4]
20003c56:	883b      	ldrh	r3, [r7, #0]
20003c58:	429a      	cmp	r2, r3
20003c5a:	d905      	bls.n	20003c68 <TFTDisplay_ILI9341_FillRect+0x80>
	  SWAP(y1,y2);
20003c5c:	88bb      	ldrh	r3, [r7, #4]
20003c5e:	81bb      	strh	r3, [r7, #12]
20003c60:	883b      	ldrh	r3, [r7, #0]
20003c62:	80bb      	strh	r3, [r7, #4]
20003c64:	89bb      	ldrh	r3, [r7, #12]
20003c66:	803b      	strh	r3, [r7, #0]
  }
  tftDisplay_ILI9341_SetAddrWindow(x1, y1, x2, y2);
20003c68:	883b      	ldrh	r3, [r7, #0]
20003c6a:	887a      	ldrh	r2, [r7, #2]
20003c6c:	88b9      	ldrh	r1, [r7, #4]
20003c6e:	88f8      	ldrh	r0, [r7, #6]
20003c70:	f000 fcbc 	bl	200045ec <tftDisplay_ILI9341_SetAddrWindow>
  n = (x2-x1+1)*(y2-y1+1)*2;
20003c74:	887a      	ldrh	r2, [r7, #2]
20003c76:	88fb      	ldrh	r3, [r7, #6]
20003c78:	1ad3      	subs	r3, r2, r3
20003c7a:	3301      	adds	r3, #1
20003c7c:	8839      	ldrh	r1, [r7, #0]
20003c7e:	88ba      	ldrh	r2, [r7, #4]
20003c80:	1a8a      	subs	r2, r1, r2
20003c82:	3201      	adds	r2, #1
20003c84:	fb02 f303 	mul.w	r3, r2, r3
20003c88:	005b      	lsls	r3, r3, #1
20003c8a:	613b      	str	r3, [r7, #16]
  if(n<=65535)
20003c8c:	693b      	ldr	r3, [r7, #16]
20003c8e:	f5b3 3f80 	cmp.w	r3, #65536	; 0x10000
20003c92:	d204      	bcs.n	20003c9e <TFTDisplay_ILI9341_FillRect+0xb6>
  {
    cnt = 1;
20003c94:	2301      	movs	r3, #1
20003c96:	76fb      	strb	r3, [r7, #27]
    buf_size = n;
20003c98:	693b      	ldr	r3, [r7, #16]
20003c9a:	617b      	str	r3, [r7, #20]
20003c9c:	e024      	b.n	20003ce8 <TFTDisplay_ILI9341_FillRect+0x100>
  }
  else
  {
    cnt = n/2;
20003c9e:	693b      	ldr	r3, [r7, #16]
20003ca0:	085b      	lsrs	r3, r3, #1
20003ca2:	76fb      	strb	r3, [r7, #27]
    buf_size = 2;
20003ca4:	2302      	movs	r3, #2
20003ca6:	617b      	str	r3, [r7, #20]
    for(i = 3; i < n/3; i++)
20003ca8:	2303      	movs	r3, #3
20003caa:	61fb      	str	r3, [r7, #28]
20003cac:	e014      	b.n	20003cd8 <TFTDisplay_ILI9341_FillRect+0xf0>
    {
      if(n%i == 0)
20003cae:	693b      	ldr	r3, [r7, #16]
20003cb0:	69fa      	ldr	r2, [r7, #28]
20003cb2:	fbb3 f2f2 	udiv	r2, r3, r2
20003cb6:	69f9      	ldr	r1, [r7, #28]
20003cb8:	fb01 f202 	mul.w	r2, r1, r2
20003cbc:	1a9b      	subs	r3, r3, r2
20003cbe:	2b00      	cmp	r3, #0
20003cc0:	d107      	bne.n	20003cd2 <TFTDisplay_ILI9341_FillRect+0xea>
      {
        cnt = i;
20003cc2:	69fb      	ldr	r3, [r7, #28]
20003cc4:	76fb      	strb	r3, [r7, #27]
        buf_size = n/i;
20003cc6:	693a      	ldr	r2, [r7, #16]
20003cc8:	69fb      	ldr	r3, [r7, #28]
20003cca:	fbb2 f3f3 	udiv	r3, r2, r3
20003cce:	617b      	str	r3, [r7, #20]
        break;
20003cd0:	e00a      	b.n	20003ce8 <TFTDisplay_ILI9341_FillRect+0x100>
    for(i = 3; i < n/3; i++)
20003cd2:	69fb      	ldr	r3, [r7, #28]
20003cd4:	3301      	adds	r3, #1
20003cd6:	61fb      	str	r3, [r7, #28]
20003cd8:	693b      	ldr	r3, [r7, #16]
20003cda:	4a18      	ldr	r2, [pc, #96]	; (20003d3c <TFTDisplay_ILI9341_FillRect+0x154>)
20003cdc:	fba2 2303 	umull	r2, r3, r2, r3
20003ce0:	085b      	lsrs	r3, r3, #1
20003ce2:	69fa      	ldr	r2, [r7, #28]
20003ce4:	429a      	cmp	r2, r3
20003ce6:	d3e2      	bcc.n	20003cae <TFTDisplay_ILI9341_FillRect+0xc6>
      }
    }
  }
  for(i = 0; i < buf_size/2; i++)
20003ce8:	2300      	movs	r3, #0
20003cea:	61fb      	str	r3, [r7, #28]
20003cec:	e011      	b.n	20003d12 <TFTDisplay_ILI9341_FillRect+0x12a>
  {
	  DataBuffer[i*2] = color >> 8;
20003cee:	8e3b      	ldrh	r3, [r7, #48]	; 0x30
20003cf0:	0a1b      	lsrs	r3, r3, #8
20003cf2:	b29a      	uxth	r2, r3
20003cf4:	69fb      	ldr	r3, [r7, #28]
20003cf6:	005b      	lsls	r3, r3, #1
20003cf8:	b2d1      	uxtb	r1, r2
20003cfa:	4a11      	ldr	r2, [pc, #68]	; (20003d40 <TFTDisplay_ILI9341_FillRect+0x158>)
20003cfc:	54d1      	strb	r1, [r2, r3]
	  DataBuffer[i*2+1] = color & 0xFF;
20003cfe:	69fb      	ldr	r3, [r7, #28]
20003d00:	005b      	lsls	r3, r3, #1
20003d02:	3301      	adds	r3, #1
20003d04:	8e3a      	ldrh	r2, [r7, #48]	; 0x30
20003d06:	b2d1      	uxtb	r1, r2
20003d08:	4a0d      	ldr	r2, [pc, #52]	; (20003d40 <TFTDisplay_ILI9341_FillRect+0x158>)
20003d0a:	54d1      	strb	r1, [r2, r3]
  for(i = 0; i < buf_size/2; i++)
20003d0c:	69fb      	ldr	r3, [r7, #28]
20003d0e:	3301      	adds	r3, #1
20003d10:	61fb      	str	r3, [r7, #28]
20003d12:	697b      	ldr	r3, [r7, #20]
20003d14:	085b      	lsrs	r3, r3, #1
20003d16:	69fa      	ldr	r2, [r7, #28]
20003d18:	429a      	cmp	r2, r3
20003d1a:	d3e8      	bcc.n	20003cee <TFTDisplay_ILI9341_FillRect+0x106>
  }

  tftDisplay_ILI9341_WriteMultipleData((uint32_t*)&DataBuffer[0], buf_size, cnt);
20003d1c:	7efb      	ldrb	r3, [r7, #27]
20003d1e:	461a      	mov	r2, r3
20003d20:	6979      	ldr	r1, [r7, #20]
20003d22:	4807      	ldr	r0, [pc, #28]	; (20003d40 <TFTDisplay_ILI9341_FillRect+0x158>)
20003d24:	f000 fbc2 	bl	200044ac <tftDisplay_ILI9341_WriteMultipleData>
20003d28:	e000      	b.n	20003d2c <TFTDisplay_ILI9341_FillRect+0x144>
	  return;
20003d2a:	bf00      	nop
}
20003d2c:	3724      	adds	r7, #36	; 0x24
20003d2e:	46bd      	mov	sp, r7
20003d30:	bd90      	pop	{r4, r7, pc}
20003d32:	bf00      	nop
20003d34:	2000ee1c 	.word	0x2000ee1c
20003d38:	2000ee1e 	.word	0x2000ee1e
20003d3c:	aaaaaaab 	.word	0xaaaaaaab
20003d40:	2000ee24 	.word	0x2000ee24

20003d44 <TFTDisplay_ILI9341_DrawPixel>:
{
	TFTDisplay_ILI9341_FillRect(0, 0, TFTDisplay_ILI9341_WIDTH-1, TFTDisplay_ILI9341_HEIGHT-1, color);
}
//-------------------------------------------------------------------
void TFTDisplay_ILI9341_DrawPixel(int x, int y, uint16_t color)
{
20003d44:	b580      	push	{r7, lr}
20003d46:	b084      	sub	sp, #16
20003d48:	af00      	add	r7, sp, #0
20003d4a:	60f8      	str	r0, [r7, #12]
20003d4c:	60b9      	str	r1, [r7, #8]
20003d4e:	4613      	mov	r3, r2
20003d50:	80fb      	strh	r3, [r7, #6]
	if(led_inited){
20003d52:	4b1b      	ldr	r3, [pc, #108]	; (20003dc0 <TFTDisplay_ILI9341_DrawPixel+0x7c>)
20003d54:	781b      	ldrb	r3, [r3, #0]
20003d56:	2b00      	cmp	r3, #0
20003d58:	d02f      	beq.n	20003dba <TFTDisplay_ILI9341_DrawPixel+0x76>
		if((x<0)||(y<0)||(x>=TFTDisplay_ILI9341_WIDTH)||(y>=TFTDisplay_ILI9341_HEIGHT))
20003d5a:	68fb      	ldr	r3, [r7, #12]
20003d5c:	2b00      	cmp	r3, #0
20003d5e:	db2b      	blt.n	20003db8 <TFTDisplay_ILI9341_DrawPixel+0x74>
20003d60:	68bb      	ldr	r3, [r7, #8]
20003d62:	2b00      	cmp	r3, #0
20003d64:	db28      	blt.n	20003db8 <TFTDisplay_ILI9341_DrawPixel+0x74>
20003d66:	4b17      	ldr	r3, [pc, #92]	; (20003dc4 <TFTDisplay_ILI9341_DrawPixel+0x80>)
20003d68:	881b      	ldrh	r3, [r3, #0]
20003d6a:	461a      	mov	r2, r3
20003d6c:	68fb      	ldr	r3, [r7, #12]
20003d6e:	4293      	cmp	r3, r2
20003d70:	da22      	bge.n	20003db8 <TFTDisplay_ILI9341_DrawPixel+0x74>
20003d72:	4b15      	ldr	r3, [pc, #84]	; (20003dc8 <TFTDisplay_ILI9341_DrawPixel+0x84>)
20003d74:	881b      	ldrh	r3, [r3, #0]
20003d76:	461a      	mov	r2, r3
20003d78:	68bb      	ldr	r3, [r7, #8]
20003d7a:	4293      	cmp	r3, r2
20003d7c:	da1c      	bge.n	20003db8 <TFTDisplay_ILI9341_DrawPixel+0x74>
		{
			return;
		}

		tftDisplay_ILI9341_SetAddrWindow(x,y,x,y);
20003d7e:	68fb      	ldr	r3, [r7, #12]
20003d80:	b298      	uxth	r0, r3
20003d82:	68bb      	ldr	r3, [r7, #8]
20003d84:	b299      	uxth	r1, r3
20003d86:	68fb      	ldr	r3, [r7, #12]
20003d88:	b29a      	uxth	r2, r3
20003d8a:	68bb      	ldr	r3, [r7, #8]
20003d8c:	b29b      	uxth	r3, r3
20003d8e:	f000 fc2d 	bl	200045ec <tftDisplay_ILI9341_SetAddrWindow>
		tftDisplay_ILI9341_SendCommand(TFT_ILI9341_GRAM);
20003d92:	202c      	movs	r0, #44	; 0x2c
20003d94:	f000 fabe 	bl	20004314 <tftDisplay_ILI9341_SendCommand>
		DataBuffer[0] = color>>8;
20003d98:	88fb      	ldrh	r3, [r7, #6]
20003d9a:	0a1b      	lsrs	r3, r3, #8
20003d9c:	b29b      	uxth	r3, r3
20003d9e:	b2da      	uxtb	r2, r3
20003da0:	4b0a      	ldr	r3, [pc, #40]	; (20003dcc <TFTDisplay_ILI9341_DrawPixel+0x88>)
20003da2:	701a      	strb	r2, [r3, #0]
		DataBuffer[1] = color & 0xFF;
20003da4:	88fb      	ldrh	r3, [r7, #6]
20003da6:	b2da      	uxtb	r2, r3
20003da8:	4b08      	ldr	r3, [pc, #32]	; (20003dcc <TFTDisplay_ILI9341_DrawPixel+0x88>)
20003daa:	705a      	strb	r2, [r3, #1]


		tftDisplay_ILI9341_WriteMultipleData((uint32_t*)&DataBuffer[0], 2, 1);
20003dac:	2201      	movs	r2, #1
20003dae:	2102      	movs	r1, #2
20003db0:	4806      	ldr	r0, [pc, #24]	; (20003dcc <TFTDisplay_ILI9341_DrawPixel+0x88>)
20003db2:	f000 fb7b 	bl	200044ac <tftDisplay_ILI9341_WriteMultipleData>
20003db6:	e000      	b.n	20003dba <TFTDisplay_ILI9341_DrawPixel+0x76>
			return;
20003db8:	bf00      	nop
	}
	
}
20003dba:	3710      	adds	r7, #16
20003dbc:	46bd      	mov	sp, r7
20003dbe:	bd80      	pop	{r7, pc}
20003dc0:	2000ee20 	.word	0x2000ee20
20003dc4:	2000ee1c 	.word	0x2000ee1c
20003dc8:	2000ee1e 	.word	0x2000ee1e
20003dcc:	2000ee24 	.word	0x2000ee24

20003dd0 <TFTDisplay_ILI9341_DrawLine>:
//------------------------------------------------------------------
void TFTDisplay_ILI9341_DrawLine(uint16_t x_start, uint16_t y_start, uint16_t x_end, uint16_t y_end, uint16_t color)
{
20003dd0:	b590      	push	{r4, r7, lr}
20003dd2:	b08b      	sub	sp, #44	; 0x2c
20003dd4:	af00      	add	r7, sp, #0
20003dd6:	4604      	mov	r4, r0
20003dd8:	4608      	mov	r0, r1
20003dda:	4611      	mov	r1, r2
20003ddc:	461a      	mov	r2, r3
20003dde:	4623      	mov	r3, r4
20003de0:	80fb      	strh	r3, [r7, #6]
20003de2:	4603      	mov	r3, r0
20003de4:	80bb      	strh	r3, [r7, #4]
20003de6:	460b      	mov	r3, r1
20003de8:	807b      	strh	r3, [r7, #2]
20003dea:	4613      	mov	r3, r2
20003dec:	803b      	strh	r3, [r7, #0]
	if(led_inited){
20003dee:	4b42      	ldr	r3, [pc, #264]	; (20003ef8 <TFTDisplay_ILI9341_DrawLine+0x128>)
20003df0:	781b      	ldrb	r3, [r3, #0]
20003df2:	2b00      	cmp	r3, #0
20003df4:	d07b      	beq.n	20003eee <TFTDisplay_ILI9341_DrawLine+0x11e>
		int steep = abs(y_end-y_start)>abs(x_end-x_start);
20003df6:	883a      	ldrh	r2, [r7, #0]
20003df8:	88bb      	ldrh	r3, [r7, #4]
20003dfa:	1ad3      	subs	r3, r2, r3
20003dfc:	ea83 72e3 	eor.w	r2, r3, r3, asr #31
20003e00:	eba2 72e3 	sub.w	r2, r2, r3, asr #31
20003e04:	8879      	ldrh	r1, [r7, #2]
20003e06:	88fb      	ldrh	r3, [r7, #6]
20003e08:	1acb      	subs	r3, r1, r3
20003e0a:	2b00      	cmp	r3, #0
20003e0c:	bfb8      	it	lt
20003e0e:	425b      	neglt	r3, r3
20003e10:	429a      	cmp	r2, r3
20003e12:	bfcc      	ite	gt
20003e14:	2301      	movgt	r3, #1
20003e16:	2300      	movle	r3, #0
20003e18:	b2db      	uxtb	r3, r3
20003e1a:	61fb      	str	r3, [r7, #28]
		int dx=0;
20003e1c:	2300      	movs	r3, #0
20003e1e:	61bb      	str	r3, [r7, #24]
		int dy=0;
20003e20:	2300      	movs	r3, #0
20003e22:	617b      	str	r3, [r7, #20]
		int err=0;
20003e24:	2300      	movs	r3, #0
20003e26:	627b      	str	r3, [r7, #36]	; 0x24
		int ystep=0;
20003e28:	2300      	movs	r3, #0
20003e2a:	623b      	str	r3, [r7, #32]

		if (steep)
20003e2c:	69fb      	ldr	r3, [r7, #28]
20003e2e:	2b00      	cmp	r3, #0
20003e30:	d00b      	beq.n	20003e4a <TFTDisplay_ILI9341_DrawLine+0x7a>
		{
			SWAP(x_start,y_start);
20003e32:	88fb      	ldrh	r3, [r7, #6]
20003e34:	827b      	strh	r3, [r7, #18]
20003e36:	88bb      	ldrh	r3, [r7, #4]
20003e38:	80fb      	strh	r3, [r7, #6]
20003e3a:	8a7b      	ldrh	r3, [r7, #18]
20003e3c:	80bb      	strh	r3, [r7, #4]
			SWAP(x_end,y_end);
20003e3e:	887b      	ldrh	r3, [r7, #2]
20003e40:	823b      	strh	r3, [r7, #16]
20003e42:	883b      	ldrh	r3, [r7, #0]
20003e44:	807b      	strh	r3, [r7, #2]
20003e46:	8a3b      	ldrh	r3, [r7, #16]
20003e48:	803b      	strh	r3, [r7, #0]
		}

		if(x_start>x_end)
20003e4a:	88fa      	ldrh	r2, [r7, #6]
20003e4c:	887b      	ldrh	r3, [r7, #2]
20003e4e:	429a      	cmp	r2, r3
20003e50:	d90b      	bls.n	20003e6a <TFTDisplay_ILI9341_DrawLine+0x9a>
		{
			SWAP(x_start,x_end);
20003e52:	88fb      	ldrh	r3, [r7, #6]
20003e54:	81fb      	strh	r3, [r7, #14]
20003e56:	887b      	ldrh	r3, [r7, #2]
20003e58:	80fb      	strh	r3, [r7, #6]
20003e5a:	89fb      	ldrh	r3, [r7, #14]
20003e5c:	807b      	strh	r3, [r7, #2]
			SWAP(y_start,y_end);
20003e5e:	88bb      	ldrh	r3, [r7, #4]
20003e60:	81bb      	strh	r3, [r7, #12]
20003e62:	883b      	ldrh	r3, [r7, #0]
20003e64:	80bb      	strh	r3, [r7, #4]
20003e66:	89bb      	ldrh	r3, [r7, #12]
20003e68:	803b      	strh	r3, [r7, #0]
		}

		dx=x_end-x_start;
20003e6a:	887a      	ldrh	r2, [r7, #2]
20003e6c:	88fb      	ldrh	r3, [r7, #6]
20003e6e:	1ad3      	subs	r3, r2, r3
20003e70:	61bb      	str	r3, [r7, #24]
		dy=abs(y_end-y_start);
20003e72:	883a      	ldrh	r2, [r7, #0]
20003e74:	88bb      	ldrh	r3, [r7, #4]
20003e76:	1ad3      	subs	r3, r2, r3
20003e78:	2b00      	cmp	r3, #0
20003e7a:	bfb8      	it	lt
20003e7c:	425b      	neglt	r3, r3
20003e7e:	617b      	str	r3, [r7, #20]
		err=dx/2;
20003e80:	69bb      	ldr	r3, [r7, #24]
20003e82:	0fda      	lsrs	r2, r3, #31
20003e84:	4413      	add	r3, r2
20003e86:	105b      	asrs	r3, r3, #1
20003e88:	627b      	str	r3, [r7, #36]	; 0x24

		if(y_start<y_end)
20003e8a:	88ba      	ldrh	r2, [r7, #4]
20003e8c:	883b      	ldrh	r3, [r7, #0]
20003e8e:	429a      	cmp	r2, r3
20003e90:	d202      	bcs.n	20003e98 <TFTDisplay_ILI9341_DrawLine+0xc8>
		{
			ystep = 1;
20003e92:	2301      	movs	r3, #1
20003e94:	623b      	str	r3, [r7, #32]
20003e96:	e026      	b.n	20003ee6 <TFTDisplay_ILI9341_DrawLine+0x116>
		}
		else
		{
			ystep = -1;
20003e98:	f04f 33ff 	mov.w	r3, #4294967295
20003e9c:	623b      	str	r3, [r7, #32]
		}
		for (;x_start<=x_end;x_start++)
20003e9e:	e022      	b.n	20003ee6 <TFTDisplay_ILI9341_DrawLine+0x116>
		{
		if (steep)
20003ea0:	69fb      	ldr	r3, [r7, #28]
20003ea2:	2b00      	cmp	r3, #0
20003ea4:	d006      	beq.n	20003eb4 <TFTDisplay_ILI9341_DrawLine+0xe4>
		{
			TFTDisplay_ILI9341_DrawPixel(y_start,x_start,color);
20003ea6:	88bb      	ldrh	r3, [r7, #4]
20003ea8:	88f9      	ldrh	r1, [r7, #6]
20003eaa:	8f3a      	ldrh	r2, [r7, #56]	; 0x38
20003eac:	4618      	mov	r0, r3
20003eae:	f7ff ff49 	bl	20003d44 <TFTDisplay_ILI9341_DrawPixel>
20003eb2:	e005      	b.n	20003ec0 <TFTDisplay_ILI9341_DrawLine+0xf0>
		}
		else
		{
			TFTDisplay_ILI9341_DrawPixel(x_start,y_start,color);
20003eb4:	88fb      	ldrh	r3, [r7, #6]
20003eb6:	88b9      	ldrh	r1, [r7, #4]
20003eb8:	8f3a      	ldrh	r2, [r7, #56]	; 0x38
20003eba:	4618      	mov	r0, r3
20003ebc:	f7ff ff42 	bl	20003d44 <TFTDisplay_ILI9341_DrawPixel>
		}
		err-=dy;
20003ec0:	6a7a      	ldr	r2, [r7, #36]	; 0x24
20003ec2:	697b      	ldr	r3, [r7, #20]
20003ec4:	1ad3      	subs	r3, r2, r3
20003ec6:	627b      	str	r3, [r7, #36]	; 0x24
		if (err<0)
20003ec8:	6a7b      	ldr	r3, [r7, #36]	; 0x24
20003eca:	2b00      	cmp	r3, #0
20003ecc:	da08      	bge.n	20003ee0 <TFTDisplay_ILI9341_DrawLine+0x110>
		{
			y_start += ystep;
20003ece:	6a3b      	ldr	r3, [r7, #32]
20003ed0:	b29a      	uxth	r2, r3
20003ed2:	88bb      	ldrh	r3, [r7, #4]
20003ed4:	4413      	add	r3, r2
20003ed6:	80bb      	strh	r3, [r7, #4]
			err+=dx;
20003ed8:	6a7a      	ldr	r2, [r7, #36]	; 0x24
20003eda:	69bb      	ldr	r3, [r7, #24]
20003edc:	4413      	add	r3, r2
20003ede:	627b      	str	r3, [r7, #36]	; 0x24
		for (;x_start<=x_end;x_start++)
20003ee0:	88fb      	ldrh	r3, [r7, #6]
20003ee2:	3301      	adds	r3, #1
20003ee4:	80fb      	strh	r3, [r7, #6]
20003ee6:	88fa      	ldrh	r2, [r7, #6]
20003ee8:	887b      	ldrh	r3, [r7, #2]
20003eea:	429a      	cmp	r2, r3
20003eec:	d9d8      	bls.n	20003ea0 <TFTDisplay_ILI9341_DrawLine+0xd0>
		}
		}
	}
    
}
20003eee:	bf00      	nop
20003ef0:	372c      	adds	r7, #44	; 0x2c
20003ef2:	46bd      	mov	sp, r7
20003ef4:	bd90      	pop	{r4, r7, pc}
20003ef6:	bf00      	nop
20003ef8:	2000ee20 	.word	0x2000ee20

20003efc <TFTDisplay_ILI9341_FillCircle>:
	    TFTDisplay_ILI9341_DrawPixel(x_Position+y,y_Position-x,color);
	    TFTDisplay_ILI9341_DrawPixel(x_Position-y,y_Position-x,color);
	}
}

void TFTDisplay_ILI9341_FillCircle(uint16_t x_Position, uint16_t y_Position, int radius, uint16_t color){
20003efc:	b590      	push	{r4, r7, lr}
20003efe:	b08d      	sub	sp, #52	; 0x34
20003f00:	af02      	add	r7, sp, #8
20003f02:	60ba      	str	r2, [r7, #8]
20003f04:	461a      	mov	r2, r3
20003f06:	4603      	mov	r3, r0
20003f08:	81fb      	strh	r3, [r7, #14]
20003f0a:	460b      	mov	r3, r1
20003f0c:	81bb      	strh	r3, [r7, #12]
20003f0e:	4613      	mov	r3, r2
20003f10:	80fb      	strh	r3, [r7, #6]
    int f = 1 - radius;
20003f12:	68bb      	ldr	r3, [r7, #8]
20003f14:	f1c3 0301 	rsb	r3, r3, #1
20003f18:	627b      	str	r3, [r7, #36]	; 0x24
    int ddF_x = 1;
20003f1a:	2301      	movs	r3, #1
20003f1c:	623b      	str	r3, [r7, #32]
    int ddF_y = -2 * radius;
20003f1e:	68ba      	ldr	r2, [r7, #8]
20003f20:	4613      	mov	r3, r2
20003f22:	07db      	lsls	r3, r3, #31
20003f24:	1a9b      	subs	r3, r3, r2
20003f26:	005b      	lsls	r3, r3, #1
20003f28:	61fb      	str	r3, [r7, #28]
    int x = 0;
20003f2a:	2300      	movs	r3, #0
20003f2c:	61bb      	str	r3, [r7, #24]
    int y = radius;
20003f2e:	68bb      	ldr	r3, [r7, #8]
20003f30:	617b      	str	r3, [r7, #20]

    // rodek i pierwsze pionowe linie
    TFTDisplay_ILI9341_DrawLine(x_Position - radius, y_Position, x_Position + radius, y_Position, color);
20003f32:	68bb      	ldr	r3, [r7, #8]
20003f34:	b29b      	uxth	r3, r3
20003f36:	89fa      	ldrh	r2, [r7, #14]
20003f38:	1ad3      	subs	r3, r2, r3
20003f3a:	b298      	uxth	r0, r3
20003f3c:	68bb      	ldr	r3, [r7, #8]
20003f3e:	b29a      	uxth	r2, r3
20003f40:	89fb      	ldrh	r3, [r7, #14]
20003f42:	4413      	add	r3, r2
20003f44:	b29a      	uxth	r2, r3
20003f46:	89bc      	ldrh	r4, [r7, #12]
20003f48:	89b9      	ldrh	r1, [r7, #12]
20003f4a:	88fb      	ldrh	r3, [r7, #6]
20003f4c:	9300      	str	r3, [sp, #0]
20003f4e:	4623      	mov	r3, r4
20003f50:	f7ff ff3e 	bl	20003dd0 <TFTDisplay_ILI9341_DrawLine>

    while (x < y)
20003f54:	e07e      	b.n	20004054 <TFTDisplay_ILI9341_FillCircle+0x158>
    {
        if (f >= 0)
20003f56:	6a7b      	ldr	r3, [r7, #36]	; 0x24
20003f58:	2b00      	cmp	r3, #0
20003f5a:	db09      	blt.n	20003f70 <TFTDisplay_ILI9341_FillCircle+0x74>
        {
            y--;
20003f5c:	697b      	ldr	r3, [r7, #20]
20003f5e:	3b01      	subs	r3, #1
20003f60:	617b      	str	r3, [r7, #20]
            ddF_y += 2;
20003f62:	69fb      	ldr	r3, [r7, #28]
20003f64:	3302      	adds	r3, #2
20003f66:	61fb      	str	r3, [r7, #28]
            f += ddF_y;
20003f68:	6a7a      	ldr	r2, [r7, #36]	; 0x24
20003f6a:	69fb      	ldr	r3, [r7, #28]
20003f6c:	4413      	add	r3, r2
20003f6e:	627b      	str	r3, [r7, #36]	; 0x24
        }

        x++;
20003f70:	69bb      	ldr	r3, [r7, #24]
20003f72:	3301      	adds	r3, #1
20003f74:	61bb      	str	r3, [r7, #24]
        ddF_x += 2;
20003f76:	6a3b      	ldr	r3, [r7, #32]
20003f78:	3302      	adds	r3, #2
20003f7a:	623b      	str	r3, [r7, #32]
        f += ddF_x;
20003f7c:	6a7a      	ldr	r2, [r7, #36]	; 0x24
20003f7e:	6a3b      	ldr	r3, [r7, #32]
20003f80:	4413      	add	r3, r2
20003f82:	627b      	str	r3, [r7, #36]	; 0x24

        // Rysujemy poziome linie midzy punktami po obu stronach "okrgu"
        TFTDisplay_ILI9341_DrawLine(x_Position - x, y_Position + y, x_Position + x, y_Position + y, color);
20003f84:	69bb      	ldr	r3, [r7, #24]
20003f86:	b29b      	uxth	r3, r3
20003f88:	89fa      	ldrh	r2, [r7, #14]
20003f8a:	1ad3      	subs	r3, r2, r3
20003f8c:	b298      	uxth	r0, r3
20003f8e:	697b      	ldr	r3, [r7, #20]
20003f90:	b29a      	uxth	r2, r3
20003f92:	89bb      	ldrh	r3, [r7, #12]
20003f94:	4413      	add	r3, r2
20003f96:	b299      	uxth	r1, r3
20003f98:	69bb      	ldr	r3, [r7, #24]
20003f9a:	b29a      	uxth	r2, r3
20003f9c:	89fb      	ldrh	r3, [r7, #14]
20003f9e:	4413      	add	r3, r2
20003fa0:	b29c      	uxth	r4, r3
20003fa2:	697b      	ldr	r3, [r7, #20]
20003fa4:	b29a      	uxth	r2, r3
20003fa6:	89bb      	ldrh	r3, [r7, #12]
20003fa8:	4413      	add	r3, r2
20003faa:	b29a      	uxth	r2, r3
20003fac:	88fb      	ldrh	r3, [r7, #6]
20003fae:	9300      	str	r3, [sp, #0]
20003fb0:	4613      	mov	r3, r2
20003fb2:	4622      	mov	r2, r4
20003fb4:	f7ff ff0c 	bl	20003dd0 <TFTDisplay_ILI9341_DrawLine>
        TFTDisplay_ILI9341_DrawLine(x_Position - x, y_Position - y, x_Position + x, y_Position - y, color);
20003fb8:	69bb      	ldr	r3, [r7, #24]
20003fba:	b29b      	uxth	r3, r3
20003fbc:	89fa      	ldrh	r2, [r7, #14]
20003fbe:	1ad3      	subs	r3, r2, r3
20003fc0:	b298      	uxth	r0, r3
20003fc2:	697b      	ldr	r3, [r7, #20]
20003fc4:	b29b      	uxth	r3, r3
20003fc6:	89ba      	ldrh	r2, [r7, #12]
20003fc8:	1ad3      	subs	r3, r2, r3
20003fca:	b299      	uxth	r1, r3
20003fcc:	69bb      	ldr	r3, [r7, #24]
20003fce:	b29a      	uxth	r2, r3
20003fd0:	89fb      	ldrh	r3, [r7, #14]
20003fd2:	4413      	add	r3, r2
20003fd4:	b29c      	uxth	r4, r3
20003fd6:	697b      	ldr	r3, [r7, #20]
20003fd8:	b29b      	uxth	r3, r3
20003fda:	89ba      	ldrh	r2, [r7, #12]
20003fdc:	1ad3      	subs	r3, r2, r3
20003fde:	b29a      	uxth	r2, r3
20003fe0:	88fb      	ldrh	r3, [r7, #6]
20003fe2:	9300      	str	r3, [sp, #0]
20003fe4:	4613      	mov	r3, r2
20003fe6:	4622      	mov	r2, r4
20003fe8:	f7ff fef2 	bl	20003dd0 <TFTDisplay_ILI9341_DrawLine>
        TFTDisplay_ILI9341_DrawLine(x_Position - y, y_Position + x, x_Position + y, y_Position + x, color);
20003fec:	697b      	ldr	r3, [r7, #20]
20003fee:	b29b      	uxth	r3, r3
20003ff0:	89fa      	ldrh	r2, [r7, #14]
20003ff2:	1ad3      	subs	r3, r2, r3
20003ff4:	b298      	uxth	r0, r3
20003ff6:	69bb      	ldr	r3, [r7, #24]
20003ff8:	b29a      	uxth	r2, r3
20003ffa:	89bb      	ldrh	r3, [r7, #12]
20003ffc:	4413      	add	r3, r2
20003ffe:	b299      	uxth	r1, r3
20004000:	697b      	ldr	r3, [r7, #20]
20004002:	b29a      	uxth	r2, r3
20004004:	89fb      	ldrh	r3, [r7, #14]
20004006:	4413      	add	r3, r2
20004008:	b29c      	uxth	r4, r3
2000400a:	69bb      	ldr	r3, [r7, #24]
2000400c:	b29a      	uxth	r2, r3
2000400e:	89bb      	ldrh	r3, [r7, #12]
20004010:	4413      	add	r3, r2
20004012:	b29a      	uxth	r2, r3
20004014:	88fb      	ldrh	r3, [r7, #6]
20004016:	9300      	str	r3, [sp, #0]
20004018:	4613      	mov	r3, r2
2000401a:	4622      	mov	r2, r4
2000401c:	f7ff fed8 	bl	20003dd0 <TFTDisplay_ILI9341_DrawLine>
        TFTDisplay_ILI9341_DrawLine(x_Position - y, y_Position - x, x_Position + y, y_Position - x, color);
20004020:	697b      	ldr	r3, [r7, #20]
20004022:	b29b      	uxth	r3, r3
20004024:	89fa      	ldrh	r2, [r7, #14]
20004026:	1ad3      	subs	r3, r2, r3
20004028:	b298      	uxth	r0, r3
2000402a:	69bb      	ldr	r3, [r7, #24]
2000402c:	b29b      	uxth	r3, r3
2000402e:	89ba      	ldrh	r2, [r7, #12]
20004030:	1ad3      	subs	r3, r2, r3
20004032:	b299      	uxth	r1, r3
20004034:	697b      	ldr	r3, [r7, #20]
20004036:	b29a      	uxth	r2, r3
20004038:	89fb      	ldrh	r3, [r7, #14]
2000403a:	4413      	add	r3, r2
2000403c:	b29c      	uxth	r4, r3
2000403e:	69bb      	ldr	r3, [r7, #24]
20004040:	b29b      	uxth	r3, r3
20004042:	89ba      	ldrh	r2, [r7, #12]
20004044:	1ad3      	subs	r3, r2, r3
20004046:	b29a      	uxth	r2, r3
20004048:	88fb      	ldrh	r3, [r7, #6]
2000404a:	9300      	str	r3, [sp, #0]
2000404c:	4613      	mov	r3, r2
2000404e:	4622      	mov	r2, r4
20004050:	f7ff febe 	bl	20003dd0 <TFTDisplay_ILI9341_DrawLine>
    while (x < y)
20004054:	69ba      	ldr	r2, [r7, #24]
20004056:	697b      	ldr	r3, [r7, #20]
20004058:	429a      	cmp	r2, r3
2000405a:	f6ff af7c 	blt.w	20003f56 <TFTDisplay_ILI9341_FillCircle+0x5a>
    }

}
2000405e:	bf00      	nop
20004060:	bf00      	nop
20004062:	372c      	adds	r7, #44	; 0x2c
20004064:	46bd      	mov	sp, r7
20004066:	bd90      	pop	{r4, r7, pc}

20004068 <TFTDisplay_ILI9341_DrawChar>:
{
  lcdprop.pFont=pFonts;
}
//-------------------------------------------------------------------
void TFTDisplay_ILI9341_DrawChar(uint16_t x, uint16_t y, uint8_t c)
{
20004068:	b590      	push	{r4, r7, lr}
2000406a:	b08b      	sub	sp, #44	; 0x2c
2000406c:	af00      	add	r7, sp, #0
2000406e:	4603      	mov	r3, r0
20004070:	80fb      	strh	r3, [r7, #6]
20004072:	460b      	mov	r3, r1
20004074:	80bb      	strh	r3, [r7, #4]
20004076:	4613      	mov	r3, r2
20004078:	70fb      	strb	r3, [r7, #3]
	if(led_inited){
2000407a:	4b76      	ldr	r3, [pc, #472]	; (20004254 <TFTDisplay_ILI9341_DrawChar+0x1ec>)
2000407c:	781b      	ldrb	r3, [r3, #0]
2000407e:	2b00      	cmp	r3, #0
20004080:	f000 80e4 	beq.w	2000424c <TFTDisplay_ILI9341_DrawChar+0x1e4>
		uint32_t i = 0, j = 0;
20004084:	2300      	movs	r3, #0
20004086:	627b      	str	r3, [r7, #36]	; 0x24
20004088:	2300      	movs	r3, #0
2000408a:	623b      	str	r3, [r7, #32]
		uint16_t height, width;
		uint16_t y_cur = y;
2000408c:	88bb      	ldrh	r3, [r7, #4]
2000408e:	83fb      	strh	r3, [r7, #30]
		uint8_t offset;
		uint8_t *c_t;
		uint8_t *pchar;
		uint32_t line=0;
20004090:	2300      	movs	r3, #0
20004092:	61bb      	str	r3, [r7, #24]
		height = lcdprop.pFont->Height;
20004094:	4b70      	ldr	r3, [pc, #448]	; (20004258 <TFTDisplay_ILI9341_DrawChar+0x1f0>)
20004096:	685b      	ldr	r3, [r3, #4]
20004098:	88db      	ldrh	r3, [r3, #6]
2000409a:	82fb      	strh	r3, [r7, #22]
		width  = lcdprop.pFont->Width;
2000409c:	4b6e      	ldr	r3, [pc, #440]	; (20004258 <TFTDisplay_ILI9341_DrawChar+0x1f0>)
2000409e:	685b      	ldr	r3, [r3, #4]
200040a0:	889b      	ldrh	r3, [r3, #4]
200040a2:	82bb      	strh	r3, [r7, #20]
		offset = 8 *((width + 7)/8) -  width ;
200040a4:	8abb      	ldrh	r3, [r7, #20]
200040a6:	3307      	adds	r3, #7
200040a8:	2b00      	cmp	r3, #0
200040aa:	da00      	bge.n	200040ae <TFTDisplay_ILI9341_DrawChar+0x46>
200040ac:	3307      	adds	r3, #7
200040ae:	10db      	asrs	r3, r3, #3
200040b0:	b2db      	uxtb	r3, r3
200040b2:	00db      	lsls	r3, r3, #3
200040b4:	b2da      	uxtb	r2, r3
200040b6:	8abb      	ldrh	r3, [r7, #20]
200040b8:	b2db      	uxtb	r3, r3
200040ba:	1ad3      	subs	r3, r2, r3
200040bc:	74fb      	strb	r3, [r7, #19]
		c_t = (uint8_t*) &(lcdprop.pFont->table[(c-' ') * lcdprop.pFont->Height * ((lcdprop.pFont->Width + 7) / 8)]);
200040be:	4b66      	ldr	r3, [pc, #408]	; (20004258 <TFTDisplay_ILI9341_DrawChar+0x1f0>)
200040c0:	685b      	ldr	r3, [r3, #4]
200040c2:	681a      	ldr	r2, [r3, #0]
200040c4:	78fb      	ldrb	r3, [r7, #3]
200040c6:	3b20      	subs	r3, #32
200040c8:	4963      	ldr	r1, [pc, #396]	; (20004258 <TFTDisplay_ILI9341_DrawChar+0x1f0>)
200040ca:	6849      	ldr	r1, [r1, #4]
200040cc:	88c9      	ldrh	r1, [r1, #6]
200040ce:	fb03 f101 	mul.w	r1, r3, r1
200040d2:	4b61      	ldr	r3, [pc, #388]	; (20004258 <TFTDisplay_ILI9341_DrawChar+0x1f0>)
200040d4:	685b      	ldr	r3, [r3, #4]
200040d6:	889b      	ldrh	r3, [r3, #4]
200040d8:	3307      	adds	r3, #7
200040da:	2b00      	cmp	r3, #0
200040dc:	da00      	bge.n	200040e0 <TFTDisplay_ILI9341_DrawChar+0x78>
200040de:	3307      	adds	r3, #7
200040e0:	10db      	asrs	r3, r3, #3
200040e2:	fb01 f303 	mul.w	r3, r1, r3
200040e6:	4413      	add	r3, r2
200040e8:	60fb      	str	r3, [r7, #12]
		for(i = 0; i < height; i++)
200040ea:	2300      	movs	r3, #0
200040ec:	627b      	str	r3, [r7, #36]	; 0x24
200040ee:	e087      	b.n	20004200 <TFTDisplay_ILI9341_DrawChar+0x198>
		{
		pchar = ((uint8_t *)c_t + (width + 7)/8 * i);
200040f0:	8abb      	ldrh	r3, [r7, #20]
200040f2:	3307      	adds	r3, #7
200040f4:	2b00      	cmp	r3, #0
200040f6:	da00      	bge.n	200040fa <TFTDisplay_ILI9341_DrawChar+0x92>
200040f8:	3307      	adds	r3, #7
200040fa:	10db      	asrs	r3, r3, #3
200040fc:	461a      	mov	r2, r3
200040fe:	6a7b      	ldr	r3, [r7, #36]	; 0x24
20004100:	fb02 f303 	mul.w	r3, r2, r3
20004104:	68fa      	ldr	r2, [r7, #12]
20004106:	4413      	add	r3, r2
20004108:	60bb      	str	r3, [r7, #8]
		switch(((width + 7)/8))
2000410a:	8abb      	ldrh	r3, [r7, #20]
2000410c:	3307      	adds	r3, #7
2000410e:	2b00      	cmp	r3, #0
20004110:	da00      	bge.n	20004114 <TFTDisplay_ILI9341_DrawChar+0xac>
20004112:	3307      	adds	r3, #7
20004114:	10db      	asrs	r3, r3, #3
20004116:	2b01      	cmp	r3, #1
20004118:	d002      	beq.n	20004120 <TFTDisplay_ILI9341_DrawChar+0xb8>
2000411a:	2b02      	cmp	r3, #2
2000411c:	d004      	beq.n	20004128 <TFTDisplay_ILI9341_DrawChar+0xc0>
2000411e:	e00c      	b.n	2000413a <TFTDisplay_ILI9341_DrawChar+0xd2>
		{
		  case 1:
			  line =  pchar[0];
20004120:	68bb      	ldr	r3, [r7, #8]
20004122:	781b      	ldrb	r3, [r3, #0]
20004124:	61bb      	str	r3, [r7, #24]
			  break;
20004126:	e016      	b.n	20004156 <TFTDisplay_ILI9341_DrawChar+0xee>
		  case 2:
			  line =  (pchar[0]<< 8) | pchar[1];
20004128:	68bb      	ldr	r3, [r7, #8]
2000412a:	781b      	ldrb	r3, [r3, #0]
2000412c:	021b      	lsls	r3, r3, #8
2000412e:	68ba      	ldr	r2, [r7, #8]
20004130:	3201      	adds	r2, #1
20004132:	7812      	ldrb	r2, [r2, #0]
20004134:	4313      	orrs	r3, r2
20004136:	61bb      	str	r3, [r7, #24]
			  break;
20004138:	e00d      	b.n	20004156 <TFTDisplay_ILI9341_DrawChar+0xee>
		  case 3:
		  default:
			line =  (pchar[0]<< 16) | (pchar[1]<< 8) | pchar[2];
2000413a:	68bb      	ldr	r3, [r7, #8]
2000413c:	781b      	ldrb	r3, [r3, #0]
2000413e:	041a      	lsls	r2, r3, #16
20004140:	68bb      	ldr	r3, [r7, #8]
20004142:	3301      	adds	r3, #1
20004144:	781b      	ldrb	r3, [r3, #0]
20004146:	021b      	lsls	r3, r3, #8
20004148:	4313      	orrs	r3, r2
2000414a:	68ba      	ldr	r2, [r7, #8]
2000414c:	3202      	adds	r2, #2
2000414e:	7812      	ldrb	r2, [r2, #0]
20004150:	4313      	orrs	r3, r2
20004152:	61bb      	str	r3, [r7, #24]
			break;
20004154:	bf00      	nop
		}
		for (j = 0; j < width; j++)
20004156:	2300      	movs	r3, #0
20004158:	623b      	str	r3, [r7, #32]
2000415a:	e047      	b.n	200041ec <TFTDisplay_ILI9341_DrawChar+0x184>
		{
		  if(line & (1 << (width- j + offset- 1)))
2000415c:	8aba      	ldrh	r2, [r7, #20]
2000415e:	6a3b      	ldr	r3, [r7, #32]
20004160:	1ad2      	subs	r2, r2, r3
20004162:	7cfb      	ldrb	r3, [r7, #19]
20004164:	4413      	add	r3, r2
20004166:	3b01      	subs	r3, #1
20004168:	2201      	movs	r2, #1
2000416a:	fa02 f303 	lsl.w	r3, r2, r3
2000416e:	461a      	mov	r2, r3
20004170:	69bb      	ldr	r3, [r7, #24]
20004172:	4013      	ands	r3, r2
20004174:	2b00      	cmp	r3, #0
20004176:	d01b      	beq.n	200041b0 <TFTDisplay_ILI9341_DrawChar+0x148>
		  {
			DataBuffer[(i*width + j) * 2] = lcdprop.TextColor >> 8;
20004178:	4b37      	ldr	r3, [pc, #220]	; (20004258 <TFTDisplay_ILI9341_DrawChar+0x1f0>)
2000417a:	881b      	ldrh	r3, [r3, #0]
2000417c:	0a1b      	lsrs	r3, r3, #8
2000417e:	b299      	uxth	r1, r3
20004180:	8abb      	ldrh	r3, [r7, #20]
20004182:	6a7a      	ldr	r2, [r7, #36]	; 0x24
20004184:	fb03 f202 	mul.w	r2, r3, r2
20004188:	6a3b      	ldr	r3, [r7, #32]
2000418a:	4413      	add	r3, r2
2000418c:	005b      	lsls	r3, r3, #1
2000418e:	b2c9      	uxtb	r1, r1
20004190:	4a32      	ldr	r2, [pc, #200]	; (2000425c <TFTDisplay_ILI9341_DrawChar+0x1f4>)
20004192:	54d1      	strb	r1, [r2, r3]
			DataBuffer[(i*width + j)*2+1] = lcdprop.TextColor & 0xFF;
20004194:	4b30      	ldr	r3, [pc, #192]	; (20004258 <TFTDisplay_ILI9341_DrawChar+0x1f0>)
20004196:	8819      	ldrh	r1, [r3, #0]
20004198:	8abb      	ldrh	r3, [r7, #20]
2000419a:	6a7a      	ldr	r2, [r7, #36]	; 0x24
2000419c:	fb03 f202 	mul.w	r2, r3, r2
200041a0:	6a3b      	ldr	r3, [r7, #32]
200041a2:	4413      	add	r3, r2
200041a4:	005b      	lsls	r3, r3, #1
200041a6:	3301      	adds	r3, #1
200041a8:	b2c9      	uxtb	r1, r1
200041aa:	4a2c      	ldr	r2, [pc, #176]	; (2000425c <TFTDisplay_ILI9341_DrawChar+0x1f4>)
200041ac:	54d1      	strb	r1, [r2, r3]
200041ae:	e01a      	b.n	200041e6 <TFTDisplay_ILI9341_DrawChar+0x17e>
		  }
		  else
		  {
			DataBuffer[(i*width + j)*2] = lcdprop.BackColor >> 8;
200041b0:	4b29      	ldr	r3, [pc, #164]	; (20004258 <TFTDisplay_ILI9341_DrawChar+0x1f0>)
200041b2:	885b      	ldrh	r3, [r3, #2]
200041b4:	0a1b      	lsrs	r3, r3, #8
200041b6:	b299      	uxth	r1, r3
200041b8:	8abb      	ldrh	r3, [r7, #20]
200041ba:	6a7a      	ldr	r2, [r7, #36]	; 0x24
200041bc:	fb03 f202 	mul.w	r2, r3, r2
200041c0:	6a3b      	ldr	r3, [r7, #32]
200041c2:	4413      	add	r3, r2
200041c4:	005b      	lsls	r3, r3, #1
200041c6:	b2c9      	uxtb	r1, r1
200041c8:	4a24      	ldr	r2, [pc, #144]	; (2000425c <TFTDisplay_ILI9341_DrawChar+0x1f4>)
200041ca:	54d1      	strb	r1, [r2, r3]
			DataBuffer[(i*width + j)*2+1] = lcdprop.BackColor & 0xFF;
200041cc:	4b22      	ldr	r3, [pc, #136]	; (20004258 <TFTDisplay_ILI9341_DrawChar+0x1f0>)
200041ce:	8859      	ldrh	r1, [r3, #2]
200041d0:	8abb      	ldrh	r3, [r7, #20]
200041d2:	6a7a      	ldr	r2, [r7, #36]	; 0x24
200041d4:	fb03 f202 	mul.w	r2, r3, r2
200041d8:	6a3b      	ldr	r3, [r7, #32]
200041da:	4413      	add	r3, r2
200041dc:	005b      	lsls	r3, r3, #1
200041de:	3301      	adds	r3, #1
200041e0:	b2c9      	uxtb	r1, r1
200041e2:	4a1e      	ldr	r2, [pc, #120]	; (2000425c <TFTDisplay_ILI9341_DrawChar+0x1f4>)
200041e4:	54d1      	strb	r1, [r2, r3]
		for (j = 0; j < width; j++)
200041e6:	6a3b      	ldr	r3, [r7, #32]
200041e8:	3301      	adds	r3, #1
200041ea:	623b      	str	r3, [r7, #32]
200041ec:	8abb      	ldrh	r3, [r7, #20]
200041ee:	6a3a      	ldr	r2, [r7, #32]
200041f0:	429a      	cmp	r2, r3
200041f2:	d3b3      	bcc.n	2000415c <TFTDisplay_ILI9341_DrawChar+0xf4>
		  }
		}
		y_cur++;
200041f4:	8bfb      	ldrh	r3, [r7, #30]
200041f6:	3301      	adds	r3, #1
200041f8:	83fb      	strh	r3, [r7, #30]
		for(i = 0; i < height; i++)
200041fa:	6a7b      	ldr	r3, [r7, #36]	; 0x24
200041fc:	3301      	adds	r3, #1
200041fe:	627b      	str	r3, [r7, #36]	; 0x24
20004200:	8afb      	ldrh	r3, [r7, #22]
20004202:	6a7a      	ldr	r2, [r7, #36]	; 0x24
20004204:	429a      	cmp	r2, r3
20004206:	f4ff af73 	bcc.w	200040f0 <TFTDisplay_ILI9341_DrawChar+0x88>
		}

		DmaSpiCnt = 1;
2000420a:	4b15      	ldr	r3, [pc, #84]	; (20004260 <TFTDisplay_ILI9341_DrawChar+0x1f8>)
2000420c:	2201      	movs	r2, #1
2000420e:	601a      	str	r2, [r3, #0]
		tftDisplay_ILI9341_SetAddrWindow(x, y, x+width-1, y+height-1);
20004210:	88fa      	ldrh	r2, [r7, #6]
20004212:	8abb      	ldrh	r3, [r7, #20]
20004214:	4413      	add	r3, r2
20004216:	b29b      	uxth	r3, r3
20004218:	3b01      	subs	r3, #1
2000421a:	b29c      	uxth	r4, r3
2000421c:	88ba      	ldrh	r2, [r7, #4]
2000421e:	8afb      	ldrh	r3, [r7, #22]
20004220:	4413      	add	r3, r2
20004222:	b29b      	uxth	r3, r3
20004224:	3b01      	subs	r3, #1
20004226:	b29b      	uxth	r3, r3
20004228:	88b9      	ldrh	r1, [r7, #4]
2000422a:	88f8      	ldrh	r0, [r7, #6]
2000422c:	4622      	mov	r2, r4
2000422e:	f000 f9dd 	bl	200045ec <tftDisplay_ILI9341_SetAddrWindow>
		tftDisplay_ILI9341_WriteMultipleData((uint32_t*)&DataBuffer[0], width * height * 2, DmaSpiCnt);
20004232:	8abb      	ldrh	r3, [r7, #20]
20004234:	8afa      	ldrh	r2, [r7, #22]
20004236:	fb02 f303 	mul.w	r3, r2, r3
2000423a:	005b      	lsls	r3, r3, #1
2000423c:	4619      	mov	r1, r3
2000423e:	4b08      	ldr	r3, [pc, #32]	; (20004260 <TFTDisplay_ILI9341_DrawChar+0x1f8>)
20004240:	681b      	ldr	r3, [r3, #0]
20004242:	b2db      	uxtb	r3, r3
20004244:	461a      	mov	r2, r3
20004246:	4805      	ldr	r0, [pc, #20]	; (2000425c <TFTDisplay_ILI9341_DrawChar+0x1f4>)
20004248:	f000 f930 	bl	200044ac <tftDisplay_ILI9341_WriteMultipleData>
	}
}
2000424c:	bf00      	nop
2000424e:	372c      	adds	r7, #44	; 0x2c
20004250:	46bd      	mov	sp, r7
20004252:	bd90      	pop	{r4, r7, pc}
20004254:	2000ee20 	.word	0x2000ee20
20004258:	2001ee24 	.word	0x2001ee24
2000425c:	2000ee24 	.word	0x2000ee24
20004260:	2000a368 	.word	0x2000a368

20004264 <TFTDisplay_ILI9341_SetRotation>:
      (void)*str++;
  }
}
//-------------------------------------------------------------------
void TFTDisplay_ILI9341_SetRotation(uint8_t RotationSelectVal)
{
20004264:	b580      	push	{r7, lr}
20004266:	b082      	sub	sp, #8
20004268:	af00      	add	r7, sp, #0
2000426a:	4603      	mov	r3, r0
2000426c:	71fb      	strb	r3, [r7, #7]
	tftDisplay_ILI9341_SendCommand(0x36);
2000426e:	2036      	movs	r0, #54	; 0x36
20004270:	f000 f850 	bl	20004314 <tftDisplay_ILI9341_SendCommand>
	switch(RotationSelectVal)
20004274:	79fb      	ldrb	r3, [r7, #7]
20004276:	2b03      	cmp	r3, #3
20004278:	d842      	bhi.n	20004300 <TFTDisplay_ILI9341_SetRotation+0x9c>
2000427a:	a201      	add	r2, pc, #4	; (adr r2, 20004280 <TFTDisplay_ILI9341_SetRotation+0x1c>)
2000427c:	f852 f023 	ldr.w	pc, [r2, r3, lsl #2]
20004280:	20004291 	.word	0x20004291
20004284:	200042ad 	.word	0x200042ad
20004288:	200042c9 	.word	0x200042c9
2000428c:	200042e5 	.word	0x200042e5
	{
	case 0:
		DataBuffer[0] = ORIENTATION_PORTRAIT;
20004290:	4b1d      	ldr	r3, [pc, #116]	; (20004308 <TFTDisplay_ILI9341_SetRotation+0xa4>)
20004292:	2248      	movs	r2, #72	; 0x48
20004294:	701a      	strb	r2, [r3, #0]
		tftDisplay_ILI9341_SendSingleData((uint32_t*)&DataBuffer[0]);
20004296:	481c      	ldr	r0, [pc, #112]	; (20004308 <TFTDisplay_ILI9341_SetRotation+0xa4>)
20004298:	f000 f8bc 	bl	20004414 <tftDisplay_ILI9341_SendSingleData>
		TFTDisplay_ILI9341_WIDTH = 240;
2000429c:	4b1b      	ldr	r3, [pc, #108]	; (2000430c <TFTDisplay_ILI9341_SetRotation+0xa8>)
2000429e:	22f0      	movs	r2, #240	; 0xf0
200042a0:	801a      	strh	r2, [r3, #0]
		TFTDisplay_ILI9341_HEIGHT = 320;
200042a2:	4b1b      	ldr	r3, [pc, #108]	; (20004310 <TFTDisplay_ILI9341_SetRotation+0xac>)
200042a4:	f44f 72a0 	mov.w	r2, #320	; 0x140
200042a8:	801a      	strh	r2, [r3, #0]
		break;
200042aa:	e029      	b.n	20004300 <TFTDisplay_ILI9341_SetRotation+0x9c>
	case 1:
		DataBuffer[0] = ORIENTATION_LANDSCAPE;
200042ac:	4b16      	ldr	r3, [pc, #88]	; (20004308 <TFTDisplay_ILI9341_SetRotation+0xa4>)
200042ae:	2228      	movs	r2, #40	; 0x28
200042b0:	701a      	strb	r2, [r3, #0]
		tftDisplay_ILI9341_SendSingleData((uint32_t*)&DataBuffer[0]);
200042b2:	4815      	ldr	r0, [pc, #84]	; (20004308 <TFTDisplay_ILI9341_SetRotation+0xa4>)
200042b4:	f000 f8ae 	bl	20004414 <tftDisplay_ILI9341_SendSingleData>
		TFTDisplay_ILI9341_WIDTH = 320;
200042b8:	4b14      	ldr	r3, [pc, #80]	; (2000430c <TFTDisplay_ILI9341_SetRotation+0xa8>)
200042ba:	f44f 72a0 	mov.w	r2, #320	; 0x140
200042be:	801a      	strh	r2, [r3, #0]
		TFTDisplay_ILI9341_HEIGHT = 240;
200042c0:	4b13      	ldr	r3, [pc, #76]	; (20004310 <TFTDisplay_ILI9341_SetRotation+0xac>)
200042c2:	22f0      	movs	r2, #240	; 0xf0
200042c4:	801a      	strh	r2, [r3, #0]
		break;
200042c6:	e01b      	b.n	20004300 <TFTDisplay_ILI9341_SetRotation+0x9c>
	case 2:
		DataBuffer[0] = ORIENTATION_PORTRAIT_MIRROR;
200042c8:	4b0f      	ldr	r3, [pc, #60]	; (20004308 <TFTDisplay_ILI9341_SetRotation+0xa4>)
200042ca:	2288      	movs	r2, #136	; 0x88
200042cc:	701a      	strb	r2, [r3, #0]
		tftDisplay_ILI9341_SendSingleData((uint32_t*)&DataBuffer[0]);
200042ce:	480e      	ldr	r0, [pc, #56]	; (20004308 <TFTDisplay_ILI9341_SetRotation+0xa4>)
200042d0:	f000 f8a0 	bl	20004414 <tftDisplay_ILI9341_SendSingleData>
		TFTDisplay_ILI9341_WIDTH = 240;
200042d4:	4b0d      	ldr	r3, [pc, #52]	; (2000430c <TFTDisplay_ILI9341_SetRotation+0xa8>)
200042d6:	22f0      	movs	r2, #240	; 0xf0
200042d8:	801a      	strh	r2, [r3, #0]
		TFTDisplay_ILI9341_HEIGHT = 320;
200042da:	4b0d      	ldr	r3, [pc, #52]	; (20004310 <TFTDisplay_ILI9341_SetRotation+0xac>)
200042dc:	f44f 72a0 	mov.w	r2, #320	; 0x140
200042e0:	801a      	strh	r2, [r3, #0]
		break;
200042e2:	e00d      	b.n	20004300 <TFTDisplay_ILI9341_SetRotation+0x9c>
	case 3:
		DataBuffer[0] = ORIENTATION_LANDSCAPE_MIRROR;
200042e4:	4b08      	ldr	r3, [pc, #32]	; (20004308 <TFTDisplay_ILI9341_SetRotation+0xa4>)
200042e6:	22e8      	movs	r2, #232	; 0xe8
200042e8:	701a      	strb	r2, [r3, #0]
		tftDisplay_ILI9341_SendSingleData((uint32_t*)&DataBuffer[0]);
200042ea:	4807      	ldr	r0, [pc, #28]	; (20004308 <TFTDisplay_ILI9341_SetRotation+0xa4>)
200042ec:	f000 f892 	bl	20004414 <tftDisplay_ILI9341_SendSingleData>
		TFTDisplay_ILI9341_WIDTH = 320;
200042f0:	4b06      	ldr	r3, [pc, #24]	; (2000430c <TFTDisplay_ILI9341_SetRotation+0xa8>)
200042f2:	f44f 72a0 	mov.w	r2, #320	; 0x140
200042f6:	801a      	strh	r2, [r3, #0]
		TFTDisplay_ILI9341_HEIGHT = 240;
200042f8:	4b05      	ldr	r3, [pc, #20]	; (20004310 <TFTDisplay_ILI9341_SetRotation+0xac>)
200042fa:	22f0      	movs	r2, #240	; 0xf0
200042fc:	801a      	strh	r2, [r3, #0]
		break;
200042fe:	bf00      	nop
	}
}
20004300:	bf00      	nop
20004302:	3708      	adds	r7, #8
20004304:	46bd      	mov	sp, r7
20004306:	bd80      	pop	{r7, pc}
20004308:	2000ee24 	.word	0x2000ee24
2000430c:	2000ee1c 	.word	0x2000ee1c
20004310:	2000ee1e 	.word	0x2000ee1e

20004314 <tftDisplay_ILI9341_SendCommand>:
//-------------------------------------------------------------------
//-------------------------------------------------------------------
static void tftDisplay_ILI9341_SendCommand(uint8_t command)
{
20004314:	b5b0      	push	{r4, r5, r7, lr}
20004316:	b084      	sub	sp, #16
20004318:	af02      	add	r7, sp, #8
2000431a:	4603      	mov	r3, r0
2000431c:	71fb      	strb	r3, [r7, #7]
	CS_ACTIVE();
2000431e:	2104      	movs	r1, #4
20004320:	481d      	ldr	r0, [pc, #116]	; (20004398 <tftDisplay_ILI9341_SendCommand+0x84>)
20004322:	f7ff faf1 	bl	20003908 <LL_GPIO_ResetOutputPin>
	DC_SET_SEND_COMMAND();
20004326:	f44f 5100 	mov.w	r1, #8192	; 0x2000
2000432a:	481c      	ldr	r0, [pc, #112]	; (2000439c <tftDisplay_ILI9341_SendCommand+0x88>)
2000432c:	f7ff faec 	bl	20003908 <LL_GPIO_ResetOutputPin>
	DmaSpiCnt = 1;
20004330:	4b1b      	ldr	r3, [pc, #108]	; (200043a0 <tftDisplay_ILI9341_SendCommand+0x8c>)
20004332:	2201      	movs	r2, #1
20004334:	601a      	str	r2, [r3, #0]
	LL_DMA_DisableStream(DMA2, LL_DMA_STREAM_4);
20004336:	2104      	movs	r1, #4
20004338:	481a      	ldr	r0, [pc, #104]	; (200043a4 <tftDisplay_ILI9341_SendCommand+0x90>)
2000433a:	f7ff fb67 	bl	20003a0c <LL_DMA_DisableStream>
	LL_DMA_SetDataLength(DMA2, LL_DMA_STREAM_4, 1);
2000433e:	2201      	movs	r2, #1
20004340:	2104      	movs	r1, #4
20004342:	4818      	ldr	r0, [pc, #96]	; (200043a4 <tftDisplay_ILI9341_SendCommand+0x90>)
20004344:	f7ff fb9a 	bl	20003a7c <LL_DMA_SetDataLength>
	LL_DMA_ConfigAddresses(DMA2, LL_DMA_STREAM_4, (uint32_t)&command,
20004348:	1dfc      	adds	r4, r7, #7
2000434a:	4817      	ldr	r0, [pc, #92]	; (200043a8 <tftDisplay_ILI9341_SendCommand+0x94>)
2000434c:	f7ff fb11 	bl	20003972 <LL_SPI_DMA_GetRegAddr>
20004350:	4605      	mov	r5, r0
20004352:	2104      	movs	r1, #4
20004354:	4813      	ldr	r0, [pc, #76]	; (200043a4 <tftDisplay_ILI9341_SendCommand+0x90>)
20004356:	f7ff fb79 	bl	20003a4c <LL_DMA_GetDataTransferDirection>
2000435a:	4603      	mov	r3, r0
2000435c:	9300      	str	r3, [sp, #0]
2000435e:	462b      	mov	r3, r5
20004360:	4622      	mov	r2, r4
20004362:	2104      	movs	r1, #4
20004364:	480f      	ldr	r0, [pc, #60]	; (200043a4 <tftDisplay_ILI9341_SendCommand+0x90>)
20004366:	f7ff fbad 	bl	20003ac4 <LL_DMA_ConfigAddresses>
			LL_SPI_DMA_GetRegAddr(SPI5), LL_DMA_GetDataTransferDirection(DMA2, LL_DMA_STREAM_4));
	LL_DMA_EnableStream(DMA2, LL_DMA_STREAM_4);
2000436a:	2104      	movs	r1, #4
2000436c:	480d      	ldr	r0, [pc, #52]	; (200043a4 <tftDisplay_ILI9341_SendCommand+0x90>)
2000436e:	f7ff fb2d 	bl	200039cc <LL_DMA_EnableStream>

	while(((DMA2_Stream4->CR & DMA_SxCR_EN) != 0) || ((DMA2->HISR & DMA_HISR_TCIF4) != 0)) { }
20004372:	bf00      	nop
20004374:	4b0d      	ldr	r3, [pc, #52]	; (200043ac <tftDisplay_ILI9341_SendCommand+0x98>)
20004376:	681b      	ldr	r3, [r3, #0]
20004378:	f003 0301 	and.w	r3, r3, #1
2000437c:	2b00      	cmp	r3, #0
2000437e:	d1f9      	bne.n	20004374 <tftDisplay_ILI9341_SendCommand+0x60>
20004380:	4b08      	ldr	r3, [pc, #32]	; (200043a4 <tftDisplay_ILI9341_SendCommand+0x90>)
20004382:	685b      	ldr	r3, [r3, #4]
20004384:	f003 0320 	and.w	r3, r3, #32
20004388:	2b00      	cmp	r3, #0
2000438a:	d1f3      	bne.n	20004374 <tftDisplay_ILI9341_SendCommand+0x60>
}
2000438c:	bf00      	nop
2000438e:	bf00      	nop
20004390:	3708      	adds	r7, #8
20004392:	46bd      	mov	sp, r7
20004394:	bdb0      	pop	{r4, r5, r7, pc}
20004396:	bf00      	nop
20004398:	40020800 	.word	0x40020800
2000439c:	40020c00 	.word	0x40020c00
200043a0:	2000a368 	.word	0x2000a368
200043a4:	40026400 	.word	0x40026400
200043a8:	40015000 	.word	0x40015000
200043ac:	40026470 	.word	0x40026470

200043b0 <tftDisplay_ILI9341_SendData>:
static void tftDisplay_ILI9341_SendData(uint8_t data)
{
200043b0:	b580      	push	{r7, lr}
200043b2:	b082      	sub	sp, #8
200043b4:	af00      	add	r7, sp, #0
200043b6:	4603      	mov	r3, r0
200043b8:	71fb      	strb	r3, [r7, #7]
//	  LL_DMA_EnableStream(DMA2, LL_DMA_STREAM_4);
//
//	  while(((DMA2_Stream4->CR & DMA_SxCR_EN) != 0) || ((DMA2->HISR & DMA_HISR_TCIF4) != 0)) { }
//	  //CS_DESELECT();

	CS_ACTIVE();
200043ba:	2104      	movs	r1, #4
200043bc:	4812      	ldr	r0, [pc, #72]	; (20004408 <tftDisplay_ILI9341_SendData+0x58>)
200043be:	f7ff faa3 	bl	20003908 <LL_GPIO_ResetOutputPin>
	DC_SET_SEND_DATA();
200043c2:	f44f 5100 	mov.w	r1, #8192	; 0x2000
200043c6:	4811      	ldr	r0, [pc, #68]	; (2000440c <tftDisplay_ILI9341_SendData+0x5c>)
200043c8:	f7ff fa90 	bl	200038ec <LL_GPIO_SetOutputPin>
    while(!LL_SPI_IsActiveFlag_TXE(SPI5)) {}
200043cc:	bf00      	nop
200043ce:	4810      	ldr	r0, [pc, #64]	; (20004410 <tftDisplay_ILI9341_SendData+0x60>)
200043d0:	f7ff fabc 	bl	2000394c <LL_SPI_IsActiveFlag_TXE>
200043d4:	4603      	mov	r3, r0
200043d6:	2b00      	cmp	r3, #0
200043d8:	d0f9      	beq.n	200043ce <tftDisplay_ILI9341_SendData+0x1e>
	LL_SPI_TransmitData8 (SPI5, data);
200043da:	79fb      	ldrb	r3, [r7, #7]
200043dc:	4619      	mov	r1, r3
200043de:	480c      	ldr	r0, [pc, #48]	; (20004410 <tftDisplay_ILI9341_SendData+0x60>)
200043e0:	f7ff fae1 	bl	200039a6 <LL_SPI_TransmitData8>
	while(!LL_SPI_IsActiveFlag_RXNE(SPI5)) {}
200043e4:	bf00      	nop
200043e6:	480a      	ldr	r0, [pc, #40]	; (20004410 <tftDisplay_ILI9341_SendData+0x60>)
200043e8:	f7ff fa9d 	bl	20003926 <LL_SPI_IsActiveFlag_RXNE>
200043ec:	4603      	mov	r3, r0
200043ee:	2b00      	cmp	r3, #0
200043f0:	d0f9      	beq.n	200043e6 <tftDisplay_ILI9341_SendData+0x36>
	LL_SPI_ReceiveData8(SPI5);
200043f2:	4807      	ldr	r0, [pc, #28]	; (20004410 <tftDisplay_ILI9341_SendData+0x60>)
200043f4:	f7ff fac9 	bl	2000398a <LL_SPI_ReceiveData8>
	CS_DESELECT();
200043f8:	2104      	movs	r1, #4
200043fa:	4803      	ldr	r0, [pc, #12]	; (20004408 <tftDisplay_ILI9341_SendData+0x58>)
200043fc:	f7ff fa76 	bl	200038ec <LL_GPIO_SetOutputPin>
}
20004400:	bf00      	nop
20004402:	3708      	adds	r7, #8
20004404:	46bd      	mov	sp, r7
20004406:	bd80      	pop	{r7, pc}
20004408:	40020800 	.word	0x40020800
2000440c:	40020c00 	.word	0x40020c00
20004410:	40015000 	.word	0x40015000

20004414 <tftDisplay_ILI9341_SendSingleData>:

static void tftDisplay_ILI9341_SendSingleData(uint32_t* BufferPtr)
{
20004414:	b5b0      	push	{r4, r5, r7, lr}
20004416:	b084      	sub	sp, #16
20004418:	af02      	add	r7, sp, #8
2000441a:	6078      	str	r0, [r7, #4]
	CS_ACTIVE();
2000441c:	2104      	movs	r1, #4
2000441e:	481d      	ldr	r0, [pc, #116]	; (20004494 <tftDisplay_ILI9341_SendSingleData+0x80>)
20004420:	f7ff fa72 	bl	20003908 <LL_GPIO_ResetOutputPin>
	DC_SET_SEND_DATA();
20004424:	f44f 5100 	mov.w	r1, #8192	; 0x2000
20004428:	481b      	ldr	r0, [pc, #108]	; (20004498 <tftDisplay_ILI9341_SendSingleData+0x84>)
2000442a:	f7ff fa5f 	bl	200038ec <LL_GPIO_SetOutputPin>
	DmaSpiCnt = 1;
2000442e:	4b1b      	ldr	r3, [pc, #108]	; (2000449c <tftDisplay_ILI9341_SendSingleData+0x88>)
20004430:	2201      	movs	r2, #1
20004432:	601a      	str	r2, [r3, #0]
	LL_DMA_DisableStream(DMA2, LL_DMA_STREAM_4);
20004434:	2104      	movs	r1, #4
20004436:	481a      	ldr	r0, [pc, #104]	; (200044a0 <tftDisplay_ILI9341_SendSingleData+0x8c>)
20004438:	f7ff fae8 	bl	20003a0c <LL_DMA_DisableStream>
	LL_DMA_SetDataLength(DMA2, LL_DMA_STREAM_4, 1);
2000443c:	2201      	movs	r2, #1
2000443e:	2104      	movs	r1, #4
20004440:	4817      	ldr	r0, [pc, #92]	; (200044a0 <tftDisplay_ILI9341_SendSingleData+0x8c>)
20004442:	f7ff fb1b 	bl	20003a7c <LL_DMA_SetDataLength>
	LL_DMA_ConfigAddresses(DMA2, LL_DMA_STREAM_4,
20004446:	687c      	ldr	r4, [r7, #4]
20004448:	4816      	ldr	r0, [pc, #88]	; (200044a4 <tftDisplay_ILI9341_SendSingleData+0x90>)
2000444a:	f7ff fa92 	bl	20003972 <LL_SPI_DMA_GetRegAddr>
2000444e:	4605      	mov	r5, r0
20004450:	2104      	movs	r1, #4
20004452:	4813      	ldr	r0, [pc, #76]	; (200044a0 <tftDisplay_ILI9341_SendSingleData+0x8c>)
20004454:	f7ff fafa 	bl	20003a4c <LL_DMA_GetDataTransferDirection>
20004458:	4603      	mov	r3, r0
2000445a:	9300      	str	r3, [sp, #0]
2000445c:	462b      	mov	r3, r5
2000445e:	4622      	mov	r2, r4
20004460:	2104      	movs	r1, #4
20004462:	480f      	ldr	r0, [pc, #60]	; (200044a0 <tftDisplay_ILI9341_SendSingleData+0x8c>)
20004464:	f7ff fb2e 	bl	20003ac4 <LL_DMA_ConfigAddresses>
			(uint32_t)BufferPtr,
			LL_SPI_DMA_GetRegAddr(SPI5),
			LL_DMA_GetDataTransferDirection(DMA2, LL_DMA_STREAM_4));
	LL_DMA_EnableStream(DMA2, LL_DMA_STREAM_4);
20004468:	2104      	movs	r1, #4
2000446a:	480d      	ldr	r0, [pc, #52]	; (200044a0 <tftDisplay_ILI9341_SendSingleData+0x8c>)
2000446c:	f7ff faae 	bl	200039cc <LL_DMA_EnableStream>

	while(((DMA2_Stream4->CR & DMA_SxCR_EN) != 0) || ((DMA2->HISR & DMA_HISR_TCIF4) != 0)) { }
20004470:	bf00      	nop
20004472:	4b0d      	ldr	r3, [pc, #52]	; (200044a8 <tftDisplay_ILI9341_SendSingleData+0x94>)
20004474:	681b      	ldr	r3, [r3, #0]
20004476:	f003 0301 	and.w	r3, r3, #1
2000447a:	2b00      	cmp	r3, #0
2000447c:	d1f9      	bne.n	20004472 <tftDisplay_ILI9341_SendSingleData+0x5e>
2000447e:	4b08      	ldr	r3, [pc, #32]	; (200044a0 <tftDisplay_ILI9341_SendSingleData+0x8c>)
20004480:	685b      	ldr	r3, [r3, #4]
20004482:	f003 0320 	and.w	r3, r3, #32
20004486:	2b00      	cmp	r3, #0
20004488:	d1f3      	bne.n	20004472 <tftDisplay_ILI9341_SendSingleData+0x5e>
}
2000448a:	bf00      	nop
2000448c:	bf00      	nop
2000448e:	3708      	adds	r7, #8
20004490:	46bd      	mov	sp, r7
20004492:	bdb0      	pop	{r4, r5, r7, pc}
20004494:	40020800 	.word	0x40020800
20004498:	40020c00 	.word	0x40020c00
2000449c:	2000a368 	.word	0x2000a368
200044a0:	40026400 	.word	0x40026400
200044a4:	40015000 	.word	0x40015000
200044a8:	40026470 	.word	0x40026470

200044ac <tftDisplay_ILI9341_WriteMultipleData>:

static void tftDisplay_ILI9341_WriteMultipleData(uint32_t* BufferPtr, uint32_t BufferSize, uint8_t DmaCount)
{
200044ac:	b5b0      	push	{r4, r5, r7, lr}
200044ae:	b086      	sub	sp, #24
200044b0:	af02      	add	r7, sp, #8
200044b2:	60f8      	str	r0, [r7, #12]
200044b4:	60b9      	str	r1, [r7, #8]
200044b6:	4613      	mov	r3, r2
200044b8:	71fb      	strb	r3, [r7, #7]
	CS_ACTIVE();
200044ba:	2104      	movs	r1, #4
200044bc:	481d      	ldr	r0, [pc, #116]	; (20004534 <tftDisplay_ILI9341_WriteMultipleData+0x88>)
200044be:	f7ff fa23 	bl	20003908 <LL_GPIO_ResetOutputPin>
	DC_SET_SEND_DATA();
200044c2:	f44f 5100 	mov.w	r1, #8192	; 0x2000
200044c6:	481c      	ldr	r0, [pc, #112]	; (20004538 <tftDisplay_ILI9341_WriteMultipleData+0x8c>)
200044c8:	f7ff fa10 	bl	200038ec <LL_GPIO_SetOutputPin>
	DmaSpiCnt = DmaCount;
200044cc:	79fb      	ldrb	r3, [r7, #7]
200044ce:	4a1b      	ldr	r2, [pc, #108]	; (2000453c <tftDisplay_ILI9341_WriteMultipleData+0x90>)
200044d0:	6013      	str	r3, [r2, #0]
	LL_DMA_DisableStream(DMA2, LL_DMA_STREAM_4);
200044d2:	2104      	movs	r1, #4
200044d4:	481a      	ldr	r0, [pc, #104]	; (20004540 <tftDisplay_ILI9341_WriteMultipleData+0x94>)
200044d6:	f7ff fa99 	bl	20003a0c <LL_DMA_DisableStream>
	LL_DMA_SetDataLength(DMA2, LL_DMA_STREAM_4, BufferSize);
200044da:	68ba      	ldr	r2, [r7, #8]
200044dc:	2104      	movs	r1, #4
200044de:	4818      	ldr	r0, [pc, #96]	; (20004540 <tftDisplay_ILI9341_WriteMultipleData+0x94>)
200044e0:	f7ff facc 	bl	20003a7c <LL_DMA_SetDataLength>
	LL_DMA_ConfigAddresses(DMA2, LL_DMA_STREAM_4,
200044e4:	68fc      	ldr	r4, [r7, #12]
200044e6:	4817      	ldr	r0, [pc, #92]	; (20004544 <tftDisplay_ILI9341_WriteMultipleData+0x98>)
200044e8:	f7ff fa43 	bl	20003972 <LL_SPI_DMA_GetRegAddr>
200044ec:	4605      	mov	r5, r0
200044ee:	2104      	movs	r1, #4
200044f0:	4813      	ldr	r0, [pc, #76]	; (20004540 <tftDisplay_ILI9341_WriteMultipleData+0x94>)
200044f2:	f7ff faab 	bl	20003a4c <LL_DMA_GetDataTransferDirection>
200044f6:	4603      	mov	r3, r0
200044f8:	9300      	str	r3, [sp, #0]
200044fa:	462b      	mov	r3, r5
200044fc:	4622      	mov	r2, r4
200044fe:	2104      	movs	r1, #4
20004500:	480f      	ldr	r0, [pc, #60]	; (20004540 <tftDisplay_ILI9341_WriteMultipleData+0x94>)
20004502:	f7ff fadf 	bl	20003ac4 <LL_DMA_ConfigAddresses>
			(uint32_t)BufferPtr,
			LL_SPI_DMA_GetRegAddr(SPI5),
			LL_DMA_GetDataTransferDirection(DMA2, LL_DMA_STREAM_4));
	LL_DMA_EnableStream(DMA2, LL_DMA_STREAM_4);
20004506:	2104      	movs	r1, #4
20004508:	480d      	ldr	r0, [pc, #52]	; (20004540 <tftDisplay_ILI9341_WriteMultipleData+0x94>)
2000450a:	f7ff fa5f 	bl	200039cc <LL_DMA_EnableStream>

	while(((DMA2_Stream4->CR & DMA_SxCR_EN) != 0) || ((DMA2->HISR & DMA_HISR_TCIF4) != 0)) { }
2000450e:	bf00      	nop
20004510:	4b0d      	ldr	r3, [pc, #52]	; (20004548 <tftDisplay_ILI9341_WriteMultipleData+0x9c>)
20004512:	681b      	ldr	r3, [r3, #0]
20004514:	f003 0301 	and.w	r3, r3, #1
20004518:	2b00      	cmp	r3, #0
2000451a:	d1f9      	bne.n	20004510 <tftDisplay_ILI9341_WriteMultipleData+0x64>
2000451c:	4b08      	ldr	r3, [pc, #32]	; (20004540 <tftDisplay_ILI9341_WriteMultipleData+0x94>)
2000451e:	685b      	ldr	r3, [r3, #4]
20004520:	f003 0320 	and.w	r3, r3, #32
20004524:	2b00      	cmp	r3, #0
20004526:	d1f3      	bne.n	20004510 <tftDisplay_ILI9341_WriteMultipleData+0x64>
}
20004528:	bf00      	nop
2000452a:	bf00      	nop
2000452c:	3710      	adds	r7, #16
2000452e:	46bd      	mov	sp, r7
20004530:	bdb0      	pop	{r4, r5, r7, pc}
20004532:	bf00      	nop
20004534:	40020800 	.word	0x40020800
20004538:	40020c00 	.word	0x40020c00
2000453c:	2000a368 	.word	0x2000a368
20004540:	40026400 	.word	0x40026400
20004544:	40015000 	.word	0x40015000
20004548:	40026470 	.word	0x40026470

2000454c <tftDisplay_ILI9341_Reset>:
static void tftDisplay_ILI9341_Reset(void)
{
2000454c:	b580      	push	{r7, lr}
2000454e:	af00      	add	r7, sp, #0
	RESET_ACTIVE();
20004550:	f44f 5180 	mov.w	r1, #4096	; 0x1000
20004554:	4806      	ldr	r0, [pc, #24]	; (20004570 <tftDisplay_ILI9341_Reset+0x24>)
20004556:	f7ff f9d7 	bl	20003908 <LL_GPIO_ResetOutputPin>
	LL_mDelay(5);
2000455a:	2005      	movs	r0, #5
2000455c:	f7fc fa6a 	bl	20000a34 <LL_mDelay>
	RESET_IDLE();
20004560:	f44f 5180 	mov.w	r1, #4096	; 0x1000
20004564:	4802      	ldr	r0, [pc, #8]	; (20004570 <tftDisplay_ILI9341_Reset+0x24>)
20004566:	f7ff f9c1 	bl	200038ec <LL_GPIO_SetOutputPin>
}
2000456a:	bf00      	nop
2000456c:	bd80      	pop	{r7, pc}
2000456e:	bf00      	nop
20004570:	40020c00 	.word	0x40020c00

20004574 <tftDisplay_ILI9341_FontsInitialization>:
static void tftDisplay_ILI9341_FontsInitialization(void)
{
20004574:	b480      	push	{r7}
20004576:	af00      	add	r7, sp, #0
  Font8.Height = 8;
20004578:	4b16      	ldr	r3, [pc, #88]	; (200045d4 <tftDisplay_ILI9341_FontsInitialization+0x60>)
2000457a:	2208      	movs	r2, #8
2000457c:	80da      	strh	r2, [r3, #6]
  Font8.Width = 5;
2000457e:	4b15      	ldr	r3, [pc, #84]	; (200045d4 <tftDisplay_ILI9341_FontsInitialization+0x60>)
20004580:	2205      	movs	r2, #5
20004582:	809a      	strh	r2, [r3, #4]
  Font12.Height = 12;
20004584:	4b14      	ldr	r3, [pc, #80]	; (200045d8 <tftDisplay_ILI9341_FontsInitialization+0x64>)
20004586:	220c      	movs	r2, #12
20004588:	80da      	strh	r2, [r3, #6]
  Font12.Width = 7;
2000458a:	4b13      	ldr	r3, [pc, #76]	; (200045d8 <tftDisplay_ILI9341_FontsInitialization+0x64>)
2000458c:	2207      	movs	r2, #7
2000458e:	809a      	strh	r2, [r3, #4]
  Font16.Height = 16;
20004590:	4b12      	ldr	r3, [pc, #72]	; (200045dc <tftDisplay_ILI9341_FontsInitialization+0x68>)
20004592:	2210      	movs	r2, #16
20004594:	80da      	strh	r2, [r3, #6]
  Font16.Width = 11;
20004596:	4b11      	ldr	r3, [pc, #68]	; (200045dc <tftDisplay_ILI9341_FontsInitialization+0x68>)
20004598:	220b      	movs	r2, #11
2000459a:	809a      	strh	r2, [r3, #4]
  Font20.Height = 20;
2000459c:	4b10      	ldr	r3, [pc, #64]	; (200045e0 <tftDisplay_ILI9341_FontsInitialization+0x6c>)
2000459e:	2214      	movs	r2, #20
200045a0:	80da      	strh	r2, [r3, #6]
  Font20.Width = 14;
200045a2:	4b0f      	ldr	r3, [pc, #60]	; (200045e0 <tftDisplay_ILI9341_FontsInitialization+0x6c>)
200045a4:	220e      	movs	r2, #14
200045a6:	809a      	strh	r2, [r3, #4]
  Font24.Height = 24;
200045a8:	4b0e      	ldr	r3, [pc, #56]	; (200045e4 <tftDisplay_ILI9341_FontsInitialization+0x70>)
200045aa:	2218      	movs	r2, #24
200045ac:	80da      	strh	r2, [r3, #6]
  Font24.Width = 17;
200045ae:	4b0d      	ldr	r3, [pc, #52]	; (200045e4 <tftDisplay_ILI9341_FontsInitialization+0x70>)
200045b0:	2211      	movs	r2, #17
200045b2:	809a      	strh	r2, [r3, #4]
  lcdprop.BackColor=TFT_COLOR_ILI9341_BLACK;
200045b4:	4b0c      	ldr	r3, [pc, #48]	; (200045e8 <tftDisplay_ILI9341_FontsInitialization+0x74>)
200045b6:	2200      	movs	r2, #0
200045b8:	805a      	strh	r2, [r3, #2]
  lcdprop.TextColor=TFT_COLOR_ILI9341_GREEN;
200045ba:	4b0b      	ldr	r3, [pc, #44]	; (200045e8 <tftDisplay_ILI9341_FontsInitialization+0x74>)
200045bc:	f44f 62fc 	mov.w	r2, #2016	; 0x7e0
200045c0:	801a      	strh	r2, [r3, #0]
  lcdprop.pFont=&Font16;
200045c2:	4b09      	ldr	r3, [pc, #36]	; (200045e8 <tftDisplay_ILI9341_FontsInitialization+0x74>)
200045c4:	4a05      	ldr	r2, [pc, #20]	; (200045dc <tftDisplay_ILI9341_FontsInitialization+0x68>)
200045c6:	605a      	str	r2, [r3, #4]
}
200045c8:	bf00      	nop
200045ca:	46bd      	mov	sp, r7
200045cc:	f85d 7b04 	ldr.w	r7, [sp], #4
200045d0:	4770      	bx	lr
200045d2:	bf00      	nop
200045d4:	2000a35c 	.word	0x2000a35c
200045d8:	2000a354 	.word	0x2000a354
200045dc:	2000a34c 	.word	0x2000a34c
200045e0:	2000a344 	.word	0x2000a344
200045e4:	2000a33c 	.word	0x2000a33c
200045e8:	2001ee24 	.word	0x2001ee24

200045ec <tftDisplay_ILI9341_SetAddrWindow>:
static void tftDisplay_ILI9341_SetAddrWindow(uint16_t x0, uint16_t y0, uint16_t x1, uint16_t y1)
{
200045ec:	b590      	push	{r4, r7, lr}
200045ee:	b083      	sub	sp, #12
200045f0:	af00      	add	r7, sp, #0
200045f2:	4604      	mov	r4, r0
200045f4:	4608      	mov	r0, r1
200045f6:	4611      	mov	r1, r2
200045f8:	461a      	mov	r2, r3
200045fa:	4623      	mov	r3, r4
200045fc:	80fb      	strh	r3, [r7, #6]
200045fe:	4603      	mov	r3, r0
20004600:	80bb      	strh	r3, [r7, #4]
20004602:	460b      	mov	r3, r1
20004604:	807b      	strh	r3, [r7, #2]
20004606:	4613      	mov	r3, r2
20004608:	803b      	strh	r3, [r7, #0]
  tftDisplay_ILI9341_SendCommand(TFT_ILI9341_COLUMN_ADDR);
2000460a:	202a      	movs	r0, #42	; 0x2a
2000460c:	f7ff fe82 	bl	20004314 <tftDisplay_ILI9341_SendCommand>
  DataBuffer[0] = (x0 >> 8) & 0xFF;
20004610:	88fb      	ldrh	r3, [r7, #6]
20004612:	0a1b      	lsrs	r3, r3, #8
20004614:	b29b      	uxth	r3, r3
20004616:	b2da      	uxtb	r2, r3
20004618:	4b1b      	ldr	r3, [pc, #108]	; (20004688 <tftDisplay_ILI9341_SetAddrWindow+0x9c>)
2000461a:	701a      	strb	r2, [r3, #0]
  DataBuffer[1] = x0 & 0xFF;
2000461c:	88fb      	ldrh	r3, [r7, #6]
2000461e:	b2da      	uxtb	r2, r3
20004620:	4b19      	ldr	r3, [pc, #100]	; (20004688 <tftDisplay_ILI9341_SetAddrWindow+0x9c>)
20004622:	705a      	strb	r2, [r3, #1]
  DataBuffer[2] = (x1 >> 8) & 0xFF;
20004624:	887b      	ldrh	r3, [r7, #2]
20004626:	0a1b      	lsrs	r3, r3, #8
20004628:	b29b      	uxth	r3, r3
2000462a:	b2da      	uxtb	r2, r3
2000462c:	4b16      	ldr	r3, [pc, #88]	; (20004688 <tftDisplay_ILI9341_SetAddrWindow+0x9c>)
2000462e:	709a      	strb	r2, [r3, #2]
  DataBuffer[3] = x1 & 0xFF;
20004630:	887b      	ldrh	r3, [r7, #2]
20004632:	b2da      	uxtb	r2, r3
20004634:	4b14      	ldr	r3, [pc, #80]	; (20004688 <tftDisplay_ILI9341_SetAddrWindow+0x9c>)
20004636:	70da      	strb	r2, [r3, #3]
  tftDisplay_ILI9341_WriteMultipleData((uint32_t*)&DataBuffer[0], 4, 1);
20004638:	2201      	movs	r2, #1
2000463a:	2104      	movs	r1, #4
2000463c:	4812      	ldr	r0, [pc, #72]	; (20004688 <tftDisplay_ILI9341_SetAddrWindow+0x9c>)
2000463e:	f7ff ff35 	bl	200044ac <tftDisplay_ILI9341_WriteMultipleData>

  tftDisplay_ILI9341_SendCommand(TFT_ILI9341_PAGE_ADDR);
20004642:	202b      	movs	r0, #43	; 0x2b
20004644:	f7ff fe66 	bl	20004314 <tftDisplay_ILI9341_SendCommand>
  DataBuffer[0] = (y0 >> 8) & 0xFF;
20004648:	88bb      	ldrh	r3, [r7, #4]
2000464a:	0a1b      	lsrs	r3, r3, #8
2000464c:	b29b      	uxth	r3, r3
2000464e:	b2da      	uxtb	r2, r3
20004650:	4b0d      	ldr	r3, [pc, #52]	; (20004688 <tftDisplay_ILI9341_SetAddrWindow+0x9c>)
20004652:	701a      	strb	r2, [r3, #0]
  DataBuffer[1] = y0 & 0xFF;
20004654:	88bb      	ldrh	r3, [r7, #4]
20004656:	b2da      	uxtb	r2, r3
20004658:	4b0b      	ldr	r3, [pc, #44]	; (20004688 <tftDisplay_ILI9341_SetAddrWindow+0x9c>)
2000465a:	705a      	strb	r2, [r3, #1]
  DataBuffer[2] = (y1 >> 8) & 0xFF;
2000465c:	883b      	ldrh	r3, [r7, #0]
2000465e:	0a1b      	lsrs	r3, r3, #8
20004660:	b29b      	uxth	r3, r3
20004662:	b2da      	uxtb	r2, r3
20004664:	4b08      	ldr	r3, [pc, #32]	; (20004688 <tftDisplay_ILI9341_SetAddrWindow+0x9c>)
20004666:	709a      	strb	r2, [r3, #2]
  DataBuffer[3] = y1 & 0xFF;
20004668:	883b      	ldrh	r3, [r7, #0]
2000466a:	b2da      	uxtb	r2, r3
2000466c:	4b06      	ldr	r3, [pc, #24]	; (20004688 <tftDisplay_ILI9341_SetAddrWindow+0x9c>)
2000466e:	70da      	strb	r2, [r3, #3]
  tftDisplay_ILI9341_WriteMultipleData((uint32_t*)&DataBuffer[0], 4, 1);
20004670:	2201      	movs	r2, #1
20004672:	2104      	movs	r1, #4
20004674:	4804      	ldr	r0, [pc, #16]	; (20004688 <tftDisplay_ILI9341_SetAddrWindow+0x9c>)
20004676:	f7ff ff19 	bl	200044ac <tftDisplay_ILI9341_WriteMultipleData>

  tftDisplay_ILI9341_SendCommand(TFT_ILI9341_GRAM);
2000467a:	202c      	movs	r0, #44	; 0x2c
2000467c:	f7ff fe4a 	bl	20004314 <tftDisplay_ILI9341_SendCommand>
}
20004680:	bf00      	nop
20004682:	370c      	adds	r7, #12
20004684:	46bd      	mov	sp, r7
20004686:	bd90      	pop	{r4, r7, pc}
20004688:	2000ee24 	.word	0x2000ee24

2000468c <tftDisplay_ILI9341_Init_PowerControl_A>:
//------------------------------------------------------------------
/* Initialization static functions */
static void tftDisplay_ILI9341_Init_PowerControl_A()
{
2000468c:	b580      	push	{r7, lr}
2000468e:	af00      	add	r7, sp, #0
	DataBuffer[0] = 0x39;
20004690:	4b0c      	ldr	r3, [pc, #48]	; (200046c4 <tftDisplay_ILI9341_Init_PowerControl_A+0x38>)
20004692:	2239      	movs	r2, #57	; 0x39
20004694:	701a      	strb	r2, [r3, #0]
	DataBuffer[1] = 0x2C;
20004696:	4b0b      	ldr	r3, [pc, #44]	; (200046c4 <tftDisplay_ILI9341_Init_PowerControl_A+0x38>)
20004698:	222c      	movs	r2, #44	; 0x2c
2000469a:	705a      	strb	r2, [r3, #1]
	DataBuffer[2] = 0x00;
2000469c:	4b09      	ldr	r3, [pc, #36]	; (200046c4 <tftDisplay_ILI9341_Init_PowerControl_A+0x38>)
2000469e:	2200      	movs	r2, #0
200046a0:	709a      	strb	r2, [r3, #2]
	DataBuffer[3] = 0x34;
200046a2:	4b08      	ldr	r3, [pc, #32]	; (200046c4 <tftDisplay_ILI9341_Init_PowerControl_A+0x38>)
200046a4:	2234      	movs	r2, #52	; 0x34
200046a6:	70da      	strb	r2, [r3, #3]
	DataBuffer[4] = 0x02;
200046a8:	4b06      	ldr	r3, [pc, #24]	; (200046c4 <tftDisplay_ILI9341_Init_PowerControl_A+0x38>)
200046aa:	2202      	movs	r2, #2
200046ac:	711a      	strb	r2, [r3, #4]
	tftDisplay_ILI9341_SendCommand(TFT_ILI9341_POWERA);
200046ae:	20cb      	movs	r0, #203	; 0xcb
200046b0:	f7ff fe30 	bl	20004314 <tftDisplay_ILI9341_SendCommand>
	tftDisplay_ILI9341_WriteMultipleData((uint32_t*)&DataBuffer[0], 5, 1);
200046b4:	2201      	movs	r2, #1
200046b6:	2105      	movs	r1, #5
200046b8:	4802      	ldr	r0, [pc, #8]	; (200046c4 <tftDisplay_ILI9341_Init_PowerControl_A+0x38>)
200046ba:	f7ff fef7 	bl	200044ac <tftDisplay_ILI9341_WriteMultipleData>
}
200046be:	bf00      	nop
200046c0:	bd80      	pop	{r7, pc}
200046c2:	bf00      	nop
200046c4:	2000ee24 	.word	0x2000ee24

200046c8 <tftDisplay_ILI9341_Init_PowerControl_B>:

static void tftDisplay_ILI9341_Init_PowerControl_B()
{
200046c8:	b580      	push	{r7, lr}
200046ca:	af00      	add	r7, sp, #0
	DataBuffer[0] = 0x00;
200046cc:	4b09      	ldr	r3, [pc, #36]	; (200046f4 <tftDisplay_ILI9341_Init_PowerControl_B+0x2c>)
200046ce:	2200      	movs	r2, #0
200046d0:	701a      	strb	r2, [r3, #0]
	DataBuffer[1] = 0xC1;
200046d2:	4b08      	ldr	r3, [pc, #32]	; (200046f4 <tftDisplay_ILI9341_Init_PowerControl_B+0x2c>)
200046d4:	22c1      	movs	r2, #193	; 0xc1
200046d6:	705a      	strb	r2, [r3, #1]
	DataBuffer[2] = 0x30;
200046d8:	4b06      	ldr	r3, [pc, #24]	; (200046f4 <tftDisplay_ILI9341_Init_PowerControl_B+0x2c>)
200046da:	2230      	movs	r2, #48	; 0x30
200046dc:	709a      	strb	r2, [r3, #2]
	tftDisplay_ILI9341_SendCommand(TFT_ILI9341_POWERB);
200046de:	20cf      	movs	r0, #207	; 0xcf
200046e0:	f7ff fe18 	bl	20004314 <tftDisplay_ILI9341_SendCommand>
	tftDisplay_ILI9341_WriteMultipleData((uint32_t*)&DataBuffer[0], 3, 1);
200046e4:	2201      	movs	r2, #1
200046e6:	2103      	movs	r1, #3
200046e8:	4802      	ldr	r0, [pc, #8]	; (200046f4 <tftDisplay_ILI9341_Init_PowerControl_B+0x2c>)
200046ea:	f7ff fedf 	bl	200044ac <tftDisplay_ILI9341_WriteMultipleData>
}
200046ee:	bf00      	nop
200046f0:	bd80      	pop	{r7, pc}
200046f2:	bf00      	nop
200046f4:	2000ee24 	.word	0x2000ee24

200046f8 <tftDisplay_ILI9341_Init_DriverTimingControl_A>:

static void tftDisplay_ILI9341_Init_DriverTimingControl_A()
{
200046f8:	b580      	push	{r7, lr}
200046fa:	af00      	add	r7, sp, #0
	DataBuffer[0] = 0x85;
200046fc:	4b09      	ldr	r3, [pc, #36]	; (20004724 <tftDisplay_ILI9341_Init_DriverTimingControl_A+0x2c>)
200046fe:	2285      	movs	r2, #133	; 0x85
20004700:	701a      	strb	r2, [r3, #0]
	DataBuffer[1] = 0x00;
20004702:	4b08      	ldr	r3, [pc, #32]	; (20004724 <tftDisplay_ILI9341_Init_DriverTimingControl_A+0x2c>)
20004704:	2200      	movs	r2, #0
20004706:	705a      	strb	r2, [r3, #1]
	DataBuffer[2] = 0x78;
20004708:	4b06      	ldr	r3, [pc, #24]	; (20004724 <tftDisplay_ILI9341_Init_DriverTimingControl_A+0x2c>)
2000470a:	2278      	movs	r2, #120	; 0x78
2000470c:	709a      	strb	r2, [r3, #2]
	tftDisplay_ILI9341_SendCommand(TFT_ILI9341_DTCB);
2000470e:	20ea      	movs	r0, #234	; 0xea
20004710:	f7ff fe00 	bl	20004314 <tftDisplay_ILI9341_SendCommand>
	tftDisplay_ILI9341_WriteMultipleData((uint32_t*)&DataBuffer[0], 3, 1);
20004714:	2201      	movs	r2, #1
20004716:	2103      	movs	r1, #3
20004718:	4802      	ldr	r0, [pc, #8]	; (20004724 <tftDisplay_ILI9341_Init_DriverTimingControl_A+0x2c>)
2000471a:	f7ff fec7 	bl	200044ac <tftDisplay_ILI9341_WriteMultipleData>
}
2000471e:	bf00      	nop
20004720:	bd80      	pop	{r7, pc}
20004722:	bf00      	nop
20004724:	2000ee24 	.word	0x2000ee24

20004728 <tftDisplay_ILI9341_Init_DriverTimingControl_B>:

static void tftDisplay_ILI9341_Init_DriverTimingControl_B()
{
20004728:	b580      	push	{r7, lr}
2000472a:	af00      	add	r7, sp, #0
	DataBuffer[0] = 0x00;
2000472c:	4b07      	ldr	r3, [pc, #28]	; (2000474c <tftDisplay_ILI9341_Init_DriverTimingControl_B+0x24>)
2000472e:	2200      	movs	r2, #0
20004730:	701a      	strb	r2, [r3, #0]
	DataBuffer[1] = 0x00;
20004732:	4b06      	ldr	r3, [pc, #24]	; (2000474c <tftDisplay_ILI9341_Init_DriverTimingControl_B+0x24>)
20004734:	2200      	movs	r2, #0
20004736:	705a      	strb	r2, [r3, #1]
	tftDisplay_ILI9341_SendCommand(TFT_ILI9341_DTCB);
20004738:	20ea      	movs	r0, #234	; 0xea
2000473a:	f7ff fdeb 	bl	20004314 <tftDisplay_ILI9341_SendCommand>
	tftDisplay_ILI9341_WriteMultipleData((uint32_t*)&DataBuffer[0], 2, 1);
2000473e:	2201      	movs	r2, #1
20004740:	2102      	movs	r1, #2
20004742:	4802      	ldr	r0, [pc, #8]	; (2000474c <tftDisplay_ILI9341_Init_DriverTimingControl_B+0x24>)
20004744:	f7ff feb2 	bl	200044ac <tftDisplay_ILI9341_WriteMultipleData>
}
20004748:	bf00      	nop
2000474a:	bd80      	pop	{r7, pc}
2000474c:	2000ee24 	.word	0x2000ee24

20004750 <tftDisplay_ILI9341_Init_PowerSequenceControl>:

static void tftDisplay_ILI9341_Init_PowerSequenceControl()
{
20004750:	b580      	push	{r7, lr}
20004752:	af00      	add	r7, sp, #0
	DataBuffer[0] = 0x64;
20004754:	4b0a      	ldr	r3, [pc, #40]	; (20004780 <tftDisplay_ILI9341_Init_PowerSequenceControl+0x30>)
20004756:	2264      	movs	r2, #100	; 0x64
20004758:	701a      	strb	r2, [r3, #0]
	DataBuffer[1] = 0x03;
2000475a:	4b09      	ldr	r3, [pc, #36]	; (20004780 <tftDisplay_ILI9341_Init_PowerSequenceControl+0x30>)
2000475c:	2203      	movs	r2, #3
2000475e:	705a      	strb	r2, [r3, #1]
	DataBuffer[2] = 0x12;
20004760:	4b07      	ldr	r3, [pc, #28]	; (20004780 <tftDisplay_ILI9341_Init_PowerSequenceControl+0x30>)
20004762:	2212      	movs	r2, #18
20004764:	709a      	strb	r2, [r3, #2]
	DataBuffer[3] = 0x81;
20004766:	4b06      	ldr	r3, [pc, #24]	; (20004780 <tftDisplay_ILI9341_Init_PowerSequenceControl+0x30>)
20004768:	2281      	movs	r2, #129	; 0x81
2000476a:	70da      	strb	r2, [r3, #3]
	tftDisplay_ILI9341_SendCommand(TFT_ILI9341_POWER_SEQ);
2000476c:	20ed      	movs	r0, #237	; 0xed
2000476e:	f7ff fdd1 	bl	20004314 <tftDisplay_ILI9341_SendCommand>
	tftDisplay_ILI9341_WriteMultipleData((uint32_t*)&DataBuffer[0], 4, 1);
20004772:	2201      	movs	r2, #1
20004774:	2104      	movs	r1, #4
20004776:	4802      	ldr	r0, [pc, #8]	; (20004780 <tftDisplay_ILI9341_Init_PowerSequenceControl+0x30>)
20004778:	f7ff fe98 	bl	200044ac <tftDisplay_ILI9341_WriteMultipleData>
}
2000477c:	bf00      	nop
2000477e:	bd80      	pop	{r7, pc}
20004780:	2000ee24 	.word	0x2000ee24

20004784 <tftDisplay_ILI9341_Init_PumpRatioControl>:

static void tftDisplay_ILI9341_Init_PumpRatioControl()
{
20004784:	b580      	push	{r7, lr}
20004786:	af00      	add	r7, sp, #0
	DataBuffer[0] = 0x20;
20004788:	4b05      	ldr	r3, [pc, #20]	; (200047a0 <tftDisplay_ILI9341_Init_PumpRatioControl+0x1c>)
2000478a:	2220      	movs	r2, #32
2000478c:	701a      	strb	r2, [r3, #0]
	tftDisplay_ILI9341_SendCommand(TFT_ILI9341_PRC);
2000478e:	20f7      	movs	r0, #247	; 0xf7
20004790:	f7ff fdc0 	bl	20004314 <tftDisplay_ILI9341_SendCommand>
	tftDisplay_ILI9341_SendSingleData((uint32_t*)&DataBuffer[0]);
20004794:	4802      	ldr	r0, [pc, #8]	; (200047a0 <tftDisplay_ILI9341_Init_PumpRatioControl+0x1c>)
20004796:	f7ff fe3d 	bl	20004414 <tftDisplay_ILI9341_SendSingleData>
}
2000479a:	bf00      	nop
2000479c:	bd80      	pop	{r7, pc}
2000479e:	bf00      	nop
200047a0:	2000ee24 	.word	0x2000ee24

200047a4 <tftDisplay_ILI9341_Init_PowerControlVRH>:

static void tftDisplay_ILI9341_Init_PowerControlVRH()
{
200047a4:	b580      	push	{r7, lr}
200047a6:	af00      	add	r7, sp, #0
	DataBuffer[0] = 0x10;
200047a8:	4b05      	ldr	r3, [pc, #20]	; (200047c0 <tftDisplay_ILI9341_Init_PowerControlVRH+0x1c>)
200047aa:	2210      	movs	r2, #16
200047ac:	701a      	strb	r2, [r3, #0]
	tftDisplay_ILI9341_SendCommand(TFT_ILI9341_POWER1);
200047ae:	20c0      	movs	r0, #192	; 0xc0
200047b0:	f7ff fdb0 	bl	20004314 <tftDisplay_ILI9341_SendCommand>
	tftDisplay_ILI9341_SendSingleData((uint32_t*)&DataBuffer[0]);
200047b4:	4802      	ldr	r0, [pc, #8]	; (200047c0 <tftDisplay_ILI9341_Init_PowerControlVRH+0x1c>)
200047b6:	f7ff fe2d 	bl	20004414 <tftDisplay_ILI9341_SendSingleData>
}
200047ba:	bf00      	nop
200047bc:	bd80      	pop	{r7, pc}
200047be:	bf00      	nop
200047c0:	2000ee24 	.word	0x2000ee24

200047c4 <tftDisplay_ILI9341_Init_PowerControlSAP>:

static void tftDisplay_ILI9341_Init_PowerControlSAP()
{
200047c4:	b580      	push	{r7, lr}
200047c6:	af00      	add	r7, sp, #0
	DataBuffer[0] = 0x10;
200047c8:	4b05      	ldr	r3, [pc, #20]	; (200047e0 <tftDisplay_ILI9341_Init_PowerControlSAP+0x1c>)
200047ca:	2210      	movs	r2, #16
200047cc:	701a      	strb	r2, [r3, #0]
	tftDisplay_ILI9341_SendCommand(TFT_ILI9341_POWER2);
200047ce:	20c1      	movs	r0, #193	; 0xc1
200047d0:	f7ff fda0 	bl	20004314 <tftDisplay_ILI9341_SendCommand>
	tftDisplay_ILI9341_SendSingleData((uint32_t*)&DataBuffer[0]);
200047d4:	4802      	ldr	r0, [pc, #8]	; (200047e0 <tftDisplay_ILI9341_Init_PowerControlSAP+0x1c>)
200047d6:	f7ff fe1d 	bl	20004414 <tftDisplay_ILI9341_SendSingleData>
}
200047da:	bf00      	nop
200047dc:	bd80      	pop	{r7, pc}
200047de:	bf00      	nop
200047e0:	2000ee24 	.word	0x2000ee24

200047e4 <tftDisplay_ILI9341_Init_VCOMControl_1>:

static void tftDisplay_ILI9341_Init_VCOMControl_1()
{
200047e4:	b580      	push	{r7, lr}
200047e6:	af00      	add	r7, sp, #0
	DataBuffer[0] = 0x3E;
200047e8:	4b07      	ldr	r3, [pc, #28]	; (20004808 <tftDisplay_ILI9341_Init_VCOMControl_1+0x24>)
200047ea:	223e      	movs	r2, #62	; 0x3e
200047ec:	701a      	strb	r2, [r3, #0]
	DataBuffer[1] = 0x28;
200047ee:	4b06      	ldr	r3, [pc, #24]	; (20004808 <tftDisplay_ILI9341_Init_VCOMControl_1+0x24>)
200047f0:	2228      	movs	r2, #40	; 0x28
200047f2:	705a      	strb	r2, [r3, #1]
	tftDisplay_ILI9341_SendCommand(TFT_ILI9341_VCOM1);
200047f4:	20c5      	movs	r0, #197	; 0xc5
200047f6:	f7ff fd8d 	bl	20004314 <tftDisplay_ILI9341_SendCommand>
	tftDisplay_ILI9341_WriteMultipleData((uint32_t*)&DataBuffer[0], 2, 1);
200047fa:	2201      	movs	r2, #1
200047fc:	2102      	movs	r1, #2
200047fe:	4802      	ldr	r0, [pc, #8]	; (20004808 <tftDisplay_ILI9341_Init_VCOMControl_1+0x24>)
20004800:	f7ff fe54 	bl	200044ac <tftDisplay_ILI9341_WriteMultipleData>
}
20004804:	bf00      	nop
20004806:	bd80      	pop	{r7, pc}
20004808:	2000ee24 	.word	0x2000ee24

2000480c <tftDisplay_ILI9341_Init_VCOMControl_2>:

static void tftDisplay_ILI9341_Init_VCOMControl_2()
{
2000480c:	b580      	push	{r7, lr}
2000480e:	af00      	add	r7, sp, #0
	DataBuffer[0] = 0x86;
20004810:	4b05      	ldr	r3, [pc, #20]	; (20004828 <tftDisplay_ILI9341_Init_VCOMControl_2+0x1c>)
20004812:	2286      	movs	r2, #134	; 0x86
20004814:	701a      	strb	r2, [r3, #0]
	tftDisplay_ILI9341_SendCommand(TFT_ILI9341_VCOM2);
20004816:	20c7      	movs	r0, #199	; 0xc7
20004818:	f7ff fd7c 	bl	20004314 <tftDisplay_ILI9341_SendCommand>
	tftDisplay_ILI9341_SendSingleData((uint32_t*)&DataBuffer[0]);
2000481c:	4802      	ldr	r0, [pc, #8]	; (20004828 <tftDisplay_ILI9341_Init_VCOMControl_2+0x1c>)
2000481e:	f7ff fdf9 	bl	20004414 <tftDisplay_ILI9341_SendSingleData>
}
20004822:	bf00      	nop
20004824:	bd80      	pop	{r7, pc}
20004826:	bf00      	nop
20004828:	2000ee24 	.word	0x2000ee24

2000482c <tftDisplay_ILI9341_Init_MemmoryAccessControl>:

static void tftDisplay_ILI9341_Init_MemmoryAccessControl()
{
2000482c:	b580      	push	{r7, lr}
2000482e:	af00      	add	r7, sp, #0
	DataBuffer[0] = 0x48;
20004830:	4b05      	ldr	r3, [pc, #20]	; (20004848 <tftDisplay_ILI9341_Init_MemmoryAccessControl+0x1c>)
20004832:	2248      	movs	r2, #72	; 0x48
20004834:	701a      	strb	r2, [r3, #0]
	tftDisplay_ILI9341_SendCommand(TFT_ILI9341_MAC);
20004836:	2036      	movs	r0, #54	; 0x36
20004838:	f7ff fd6c 	bl	20004314 <tftDisplay_ILI9341_SendCommand>
	tftDisplay_ILI9341_SendSingleData((uint32_t*)&DataBuffer[0]);
2000483c:	4802      	ldr	r0, [pc, #8]	; (20004848 <tftDisplay_ILI9341_Init_MemmoryAccessControl+0x1c>)
2000483e:	f7ff fde9 	bl	20004414 <tftDisplay_ILI9341_SendSingleData>
}
20004842:	bf00      	nop
20004844:	bd80      	pop	{r7, pc}
20004846:	bf00      	nop
20004848:	2000ee24 	.word	0x2000ee24

2000484c <tftDisplay_ILI9341_Init_PixelFormatSet>:

static void tftDisplay_ILI9341_Init_PixelFormatSet()
{
2000484c:	b580      	push	{r7, lr}
2000484e:	af00      	add	r7, sp, #0
	DataBuffer[0] = 0x55;
20004850:	4b05      	ldr	r3, [pc, #20]	; (20004868 <tftDisplay_ILI9341_Init_PixelFormatSet+0x1c>)
20004852:	2255      	movs	r2, #85	; 0x55
20004854:	701a      	strb	r2, [r3, #0]
	tftDisplay_ILI9341_SendCommand(TFT_ILI9341_PIXEL_FORMAT);
20004856:	203a      	movs	r0, #58	; 0x3a
20004858:	f7ff fd5c 	bl	20004314 <tftDisplay_ILI9341_SendCommand>
	tftDisplay_ILI9341_SendSingleData((uint32_t*)&DataBuffer[0]);
2000485c:	4802      	ldr	r0, [pc, #8]	; (20004868 <tftDisplay_ILI9341_Init_PixelFormatSet+0x1c>)
2000485e:	f7ff fdd9 	bl	20004414 <tftDisplay_ILI9341_SendSingleData>
}
20004862:	bf00      	nop
20004864:	bd80      	pop	{r7, pc}
20004866:	bf00      	nop
20004868:	2000ee24 	.word	0x2000ee24

2000486c <tftDisplay_ILI9341_Init_FrameRationControl>:

static void tftDisplay_ILI9341_Init_FrameRationControl()
{
2000486c:	b580      	push	{r7, lr}
2000486e:	af00      	add	r7, sp, #0
	DataBuffer[0] = 0x00;
20004870:	4b07      	ldr	r3, [pc, #28]	; (20004890 <tftDisplay_ILI9341_Init_FrameRationControl+0x24>)
20004872:	2200      	movs	r2, #0
20004874:	701a      	strb	r2, [r3, #0]
	DataBuffer[1] = 0x18;
20004876:	4b06      	ldr	r3, [pc, #24]	; (20004890 <tftDisplay_ILI9341_Init_FrameRationControl+0x24>)
20004878:	2218      	movs	r2, #24
2000487a:	705a      	strb	r2, [r3, #1]
	tftDisplay_ILI9341_SendCommand(TFT_ILI9341_FRMCTR1);
2000487c:	20b1      	movs	r0, #177	; 0xb1
2000487e:	f7ff fd49 	bl	20004314 <tftDisplay_ILI9341_SendCommand>
	tftDisplay_ILI9341_WriteMultipleData((uint32_t*)&DataBuffer[0], 2, 1);
20004882:	2201      	movs	r2, #1
20004884:	2102      	movs	r1, #2
20004886:	4802      	ldr	r0, [pc, #8]	; (20004890 <tftDisplay_ILI9341_Init_FrameRationControl+0x24>)
20004888:	f7ff fe10 	bl	200044ac <tftDisplay_ILI9341_WriteMultipleData>
}
2000488c:	bf00      	nop
2000488e:	bd80      	pop	{r7, pc}
20004890:	2000ee24 	.word	0x2000ee24

20004894 <tftDisplay_ILI9341_Init_DisplayFunctionControl>:

static void tftDisplay_ILI9341_Init_DisplayFunctionControl()
{
20004894:	b580      	push	{r7, lr}
20004896:	af00      	add	r7, sp, #0
	tftDisplay_ILI9341_SendCommand(TFT_ILI9341_DFC);
20004898:	20b6      	movs	r0, #182	; 0xb6
2000489a:	f7ff fd3b 	bl	20004314 <tftDisplay_ILI9341_SendCommand>
	tftDisplay_ILI9341_SendData(0x08);
2000489e:	2008      	movs	r0, #8
200048a0:	f7ff fd86 	bl	200043b0 <tftDisplay_ILI9341_SendData>
	tftDisplay_ILI9341_SendData(0x82);
200048a4:	2082      	movs	r0, #130	; 0x82
200048a6:	f7ff fd83 	bl	200043b0 <tftDisplay_ILI9341_SendData>
	tftDisplay_ILI9341_SendData(0x27);
200048aa:	2027      	movs	r0, #39	; 0x27
200048ac:	f7ff fd80 	bl	200043b0 <tftDisplay_ILI9341_SendData>
}
200048b0:	bf00      	nop
200048b2:	bd80      	pop	{r7, pc}

200048b4 <tftDisplay_ILI9341_Init_GammaSet>:

static void tftDisplay_ILI9341_Init_GammaSet()
{
200048b4:	b580      	push	{r7, lr}
200048b6:	af00      	add	r7, sp, #0
	DataBuffer[0] = 0x01;
200048b8:	4b05      	ldr	r3, [pc, #20]	; (200048d0 <tftDisplay_ILI9341_Init_GammaSet+0x1c>)
200048ba:	2201      	movs	r2, #1
200048bc:	701a      	strb	r2, [r3, #0]
	tftDisplay_ILI9341_SendCommand(TFT_ILI9341_GAMMA);
200048be:	2026      	movs	r0, #38	; 0x26
200048c0:	f7ff fd28 	bl	20004314 <tftDisplay_ILI9341_SendCommand>
	tftDisplay_ILI9341_SendSingleData((uint32_t*)&DataBuffer[0]);
200048c4:	4802      	ldr	r0, [pc, #8]	; (200048d0 <tftDisplay_ILI9341_Init_GammaSet+0x1c>)
200048c6:	f7ff fda5 	bl	20004414 <tftDisplay_ILI9341_SendSingleData>
}
200048ca:	bf00      	nop
200048cc:	bd80      	pop	{r7, pc}
200048ce:	bf00      	nop
200048d0:	2000ee24 	.word	0x2000ee24

200048d4 <tftDisplay_ILI9341_Init_PositiveGammaCorection>:

static void tftDisplay_ILI9341_Init_PositiveGammaCorection()
{
200048d4:	b580      	push	{r7, lr}
200048d6:	af00      	add	r7, sp, #0
	  DataBuffer[0] = 0x0F;
200048d8:	4b1b      	ldr	r3, [pc, #108]	; (20004948 <tftDisplay_ILI9341_Init_PositiveGammaCorection+0x74>)
200048da:	220f      	movs	r2, #15
200048dc:	701a      	strb	r2, [r3, #0]
	  DataBuffer[1] = 0x31;
200048de:	4b1a      	ldr	r3, [pc, #104]	; (20004948 <tftDisplay_ILI9341_Init_PositiveGammaCorection+0x74>)
200048e0:	2231      	movs	r2, #49	; 0x31
200048e2:	705a      	strb	r2, [r3, #1]
	  DataBuffer[2] = 0x2B;
200048e4:	4b18      	ldr	r3, [pc, #96]	; (20004948 <tftDisplay_ILI9341_Init_PositiveGammaCorection+0x74>)
200048e6:	222b      	movs	r2, #43	; 0x2b
200048e8:	709a      	strb	r2, [r3, #2]
	  DataBuffer[3] = 0x0C;
200048ea:	4b17      	ldr	r3, [pc, #92]	; (20004948 <tftDisplay_ILI9341_Init_PositiveGammaCorection+0x74>)
200048ec:	220c      	movs	r2, #12
200048ee:	70da      	strb	r2, [r3, #3]
	  DataBuffer[4] = 0x0E;
200048f0:	4b15      	ldr	r3, [pc, #84]	; (20004948 <tftDisplay_ILI9341_Init_PositiveGammaCorection+0x74>)
200048f2:	220e      	movs	r2, #14
200048f4:	711a      	strb	r2, [r3, #4]
	  DataBuffer[5] = 0x08;
200048f6:	4b14      	ldr	r3, [pc, #80]	; (20004948 <tftDisplay_ILI9341_Init_PositiveGammaCorection+0x74>)
200048f8:	2208      	movs	r2, #8
200048fa:	715a      	strb	r2, [r3, #5]
	  DataBuffer[6] = 0x4E;
200048fc:	4b12      	ldr	r3, [pc, #72]	; (20004948 <tftDisplay_ILI9341_Init_PositiveGammaCorection+0x74>)
200048fe:	224e      	movs	r2, #78	; 0x4e
20004900:	719a      	strb	r2, [r3, #6]
	  DataBuffer[7] = 0xF1;
20004902:	4b11      	ldr	r3, [pc, #68]	; (20004948 <tftDisplay_ILI9341_Init_PositiveGammaCorection+0x74>)
20004904:	22f1      	movs	r2, #241	; 0xf1
20004906:	71da      	strb	r2, [r3, #7]
	  DataBuffer[8] = 0x37;
20004908:	4b0f      	ldr	r3, [pc, #60]	; (20004948 <tftDisplay_ILI9341_Init_PositiveGammaCorection+0x74>)
2000490a:	2237      	movs	r2, #55	; 0x37
2000490c:	721a      	strb	r2, [r3, #8]
	  DataBuffer[9] = 0x07;
2000490e:	4b0e      	ldr	r3, [pc, #56]	; (20004948 <tftDisplay_ILI9341_Init_PositiveGammaCorection+0x74>)
20004910:	2207      	movs	r2, #7
20004912:	725a      	strb	r2, [r3, #9]
	  DataBuffer[10] = 0x10;
20004914:	4b0c      	ldr	r3, [pc, #48]	; (20004948 <tftDisplay_ILI9341_Init_PositiveGammaCorection+0x74>)
20004916:	2210      	movs	r2, #16
20004918:	729a      	strb	r2, [r3, #10]
	  DataBuffer[11] = 0x03;
2000491a:	4b0b      	ldr	r3, [pc, #44]	; (20004948 <tftDisplay_ILI9341_Init_PositiveGammaCorection+0x74>)
2000491c:	2203      	movs	r2, #3
2000491e:	72da      	strb	r2, [r3, #11]
	  DataBuffer[12] = 0x0E;
20004920:	4b09      	ldr	r3, [pc, #36]	; (20004948 <tftDisplay_ILI9341_Init_PositiveGammaCorection+0x74>)
20004922:	220e      	movs	r2, #14
20004924:	731a      	strb	r2, [r3, #12]
	  DataBuffer[13] = 0x09;
20004926:	4b08      	ldr	r3, [pc, #32]	; (20004948 <tftDisplay_ILI9341_Init_PositiveGammaCorection+0x74>)
20004928:	2209      	movs	r2, #9
2000492a:	735a      	strb	r2, [r3, #13]
	  DataBuffer[14] = 0x00;
2000492c:	4b06      	ldr	r3, [pc, #24]	; (20004948 <tftDisplay_ILI9341_Init_PositiveGammaCorection+0x74>)
2000492e:	2200      	movs	r2, #0
20004930:	739a      	strb	r2, [r3, #14]
	  tftDisplay_ILI9341_SendCommand(TFT_ILI9341_PGAMMA);
20004932:	20e0      	movs	r0, #224	; 0xe0
20004934:	f7ff fcee 	bl	20004314 <tftDisplay_ILI9341_SendCommand>
	  tftDisplay_ILI9341_WriteMultipleData((uint32_t*)&DataBuffer[0], 15, 1);
20004938:	2201      	movs	r2, #1
2000493a:	210f      	movs	r1, #15
2000493c:	4802      	ldr	r0, [pc, #8]	; (20004948 <tftDisplay_ILI9341_Init_PositiveGammaCorection+0x74>)
2000493e:	f7ff fdb5 	bl	200044ac <tftDisplay_ILI9341_WriteMultipleData>
}
20004942:	bf00      	nop
20004944:	bd80      	pop	{r7, pc}
20004946:	bf00      	nop
20004948:	2000ee24 	.word	0x2000ee24

2000494c <tftDisplay_ILI9341_Init_NegativeGammaCorection>:

static void tftDisplay_ILI9341_Init_NegativeGammaCorection()
{
2000494c:	b580      	push	{r7, lr}
2000494e:	af00      	add	r7, sp, #0
	  DataBuffer[0] = 0x00;
20004950:	4b1b      	ldr	r3, [pc, #108]	; (200049c0 <tftDisplay_ILI9341_Init_NegativeGammaCorection+0x74>)
20004952:	2200      	movs	r2, #0
20004954:	701a      	strb	r2, [r3, #0]
	  DataBuffer[1] = 0x0E;
20004956:	4b1a      	ldr	r3, [pc, #104]	; (200049c0 <tftDisplay_ILI9341_Init_NegativeGammaCorection+0x74>)
20004958:	220e      	movs	r2, #14
2000495a:	705a      	strb	r2, [r3, #1]
	  DataBuffer[2] = 0x14;
2000495c:	4b18      	ldr	r3, [pc, #96]	; (200049c0 <tftDisplay_ILI9341_Init_NegativeGammaCorection+0x74>)
2000495e:	2214      	movs	r2, #20
20004960:	709a      	strb	r2, [r3, #2]
	  DataBuffer[3] = 0x03;
20004962:	4b17      	ldr	r3, [pc, #92]	; (200049c0 <tftDisplay_ILI9341_Init_NegativeGammaCorection+0x74>)
20004964:	2203      	movs	r2, #3
20004966:	70da      	strb	r2, [r3, #3]
	  DataBuffer[4] = 0x11;
20004968:	4b15      	ldr	r3, [pc, #84]	; (200049c0 <tftDisplay_ILI9341_Init_NegativeGammaCorection+0x74>)
2000496a:	2211      	movs	r2, #17
2000496c:	711a      	strb	r2, [r3, #4]
	  DataBuffer[5] = 0x07;
2000496e:	4b14      	ldr	r3, [pc, #80]	; (200049c0 <tftDisplay_ILI9341_Init_NegativeGammaCorection+0x74>)
20004970:	2207      	movs	r2, #7
20004972:	715a      	strb	r2, [r3, #5]
	  DataBuffer[6] = 0x31;
20004974:	4b12      	ldr	r3, [pc, #72]	; (200049c0 <tftDisplay_ILI9341_Init_NegativeGammaCorection+0x74>)
20004976:	2231      	movs	r2, #49	; 0x31
20004978:	719a      	strb	r2, [r3, #6]
	  DataBuffer[7] = 0xC1;
2000497a:	4b11      	ldr	r3, [pc, #68]	; (200049c0 <tftDisplay_ILI9341_Init_NegativeGammaCorection+0x74>)
2000497c:	22c1      	movs	r2, #193	; 0xc1
2000497e:	71da      	strb	r2, [r3, #7]
	  DataBuffer[8] = 0x48;
20004980:	4b0f      	ldr	r3, [pc, #60]	; (200049c0 <tftDisplay_ILI9341_Init_NegativeGammaCorection+0x74>)
20004982:	2248      	movs	r2, #72	; 0x48
20004984:	721a      	strb	r2, [r3, #8]
	  DataBuffer[9] = 0x08;
20004986:	4b0e      	ldr	r3, [pc, #56]	; (200049c0 <tftDisplay_ILI9341_Init_NegativeGammaCorection+0x74>)
20004988:	2208      	movs	r2, #8
2000498a:	725a      	strb	r2, [r3, #9]
	  DataBuffer[10] = 0x0F;
2000498c:	4b0c      	ldr	r3, [pc, #48]	; (200049c0 <tftDisplay_ILI9341_Init_NegativeGammaCorection+0x74>)
2000498e:	220f      	movs	r2, #15
20004990:	729a      	strb	r2, [r3, #10]
	  DataBuffer[11] = 0x0C;
20004992:	4b0b      	ldr	r3, [pc, #44]	; (200049c0 <tftDisplay_ILI9341_Init_NegativeGammaCorection+0x74>)
20004994:	220c      	movs	r2, #12
20004996:	72da      	strb	r2, [r3, #11]
	  DataBuffer[12] = 0x31;
20004998:	4b09      	ldr	r3, [pc, #36]	; (200049c0 <tftDisplay_ILI9341_Init_NegativeGammaCorection+0x74>)
2000499a:	2231      	movs	r2, #49	; 0x31
2000499c:	731a      	strb	r2, [r3, #12]
	  DataBuffer[13] = 0x36;
2000499e:	4b08      	ldr	r3, [pc, #32]	; (200049c0 <tftDisplay_ILI9341_Init_NegativeGammaCorection+0x74>)
200049a0:	2236      	movs	r2, #54	; 0x36
200049a2:	735a      	strb	r2, [r3, #13]
	  DataBuffer[14] = 0x0F;
200049a4:	4b06      	ldr	r3, [pc, #24]	; (200049c0 <tftDisplay_ILI9341_Init_NegativeGammaCorection+0x74>)
200049a6:	220f      	movs	r2, #15
200049a8:	739a      	strb	r2, [r3, #14]
	  tftDisplay_ILI9341_SendCommand(TFT_ILI9341_NGAMMA);
200049aa:	20e1      	movs	r0, #225	; 0xe1
200049ac:	f7ff fcb2 	bl	20004314 <tftDisplay_ILI9341_SendCommand>
	  tftDisplay_ILI9341_WriteMultipleData((uint32_t*)&DataBuffer[0], 15, 1);
200049b0:	2201      	movs	r2, #1
200049b2:	210f      	movs	r1, #15
200049b4:	4802      	ldr	r0, [pc, #8]	; (200049c0 <tftDisplay_ILI9341_Init_NegativeGammaCorection+0x74>)
200049b6:	f7ff fd79 	bl	200044ac <tftDisplay_ILI9341_WriteMultipleData>
}
200049ba:	bf00      	nop
200049bc:	bd80      	pop	{r7, pc}
200049be:	bf00      	nop
200049c0:	2000ee24 	.word	0x2000ee24

200049c4 <__NVIC_SetPriorityGrouping>:
           In case of a conflict between priority grouping and available
           priority bits (__NVIC_PRIO_BITS), the smallest possible priority group is set.
  \param [in]      PriorityGroup  Priority grouping field.
 */
__STATIC_INLINE void __NVIC_SetPriorityGrouping(uint32_t PriorityGroup)
{
200049c4:	b480      	push	{r7}
200049c6:	b085      	sub	sp, #20
200049c8:	af00      	add	r7, sp, #0
200049ca:	6078      	str	r0, [r7, #4]
  uint32_t reg_value;
  uint32_t PriorityGroupTmp = (PriorityGroup & (uint32_t)0x07UL);             /* only values 0..7 are used          */
200049cc:	687b      	ldr	r3, [r7, #4]
200049ce:	f003 0307 	and.w	r3, r3, #7
200049d2:	60fb      	str	r3, [r7, #12]

  reg_value  =  SCB->AIRCR;                                                   /* read old register configuration    */
200049d4:	4b0c      	ldr	r3, [pc, #48]	; (20004a08 <__NVIC_SetPriorityGrouping+0x44>)
200049d6:	68db      	ldr	r3, [r3, #12]
200049d8:	60bb      	str	r3, [r7, #8]
  reg_value &= ~((uint32_t)(SCB_AIRCR_VECTKEY_Msk | SCB_AIRCR_PRIGROUP_Msk)); /* clear bits to change               */
200049da:	68ba      	ldr	r2, [r7, #8]
200049dc:	f64f 03ff 	movw	r3, #63743	; 0xf8ff
200049e0:	4013      	ands	r3, r2
200049e2:	60bb      	str	r3, [r7, #8]
  reg_value  =  (reg_value                                   |
                ((uint32_t)0x5FAUL << SCB_AIRCR_VECTKEY_Pos) |
                (PriorityGroupTmp << SCB_AIRCR_PRIGROUP_Pos)  );              /* Insert write key and priority group */
200049e4:	68fb      	ldr	r3, [r7, #12]
200049e6:	021a      	lsls	r2, r3, #8
                ((uint32_t)0x5FAUL << SCB_AIRCR_VECTKEY_Pos) |
200049e8:	68bb      	ldr	r3, [r7, #8]
200049ea:	4313      	orrs	r3, r2
  reg_value  =  (reg_value                                   |
200049ec:	f043 63bf 	orr.w	r3, r3, #100139008	; 0x5f80000
200049f0:	f443 3300 	orr.w	r3, r3, #131072	; 0x20000
200049f4:	60bb      	str	r3, [r7, #8]
  SCB->AIRCR =  reg_value;
200049f6:	4a04      	ldr	r2, [pc, #16]	; (20004a08 <__NVIC_SetPriorityGrouping+0x44>)
200049f8:	68bb      	ldr	r3, [r7, #8]
200049fa:	60d3      	str	r3, [r2, #12]
}
200049fc:	bf00      	nop
200049fe:	3714      	adds	r7, #20
20004a00:	46bd      	mov	sp, r7
20004a02:	f85d 7b04 	ldr.w	r7, [sp], #4
20004a06:	4770      	bx	lr
20004a08:	e000ed00 	.word	0xe000ed00

20004a0c <__NVIC_GetPriorityGrouping>:
  \brief   Get Priority Grouping
  \details Reads the priority grouping field from the NVIC Interrupt Controller.
  \return                Priority grouping field (SCB->AIRCR [10:8] PRIGROUP field).
 */
__STATIC_INLINE uint32_t __NVIC_GetPriorityGrouping(void)
{
20004a0c:	b480      	push	{r7}
20004a0e:	af00      	add	r7, sp, #0
  return ((uint32_t)((SCB->AIRCR & SCB_AIRCR_PRIGROUP_Msk) >> SCB_AIRCR_PRIGROUP_Pos));
20004a10:	4b04      	ldr	r3, [pc, #16]	; (20004a24 <__NVIC_GetPriorityGrouping+0x18>)
20004a12:	68db      	ldr	r3, [r3, #12]
20004a14:	0a1b      	lsrs	r3, r3, #8
20004a16:	f003 0307 	and.w	r3, r3, #7
}
20004a1a:	4618      	mov	r0, r3
20004a1c:	46bd      	mov	sp, r7
20004a1e:	f85d 7b04 	ldr.w	r7, [sp], #4
20004a22:	4770      	bx	lr
20004a24:	e000ed00 	.word	0xe000ed00

20004a28 <__NVIC_EnableIRQ>:
  \details Enables a device specific interrupt in the NVIC interrupt controller.
  \param [in]      IRQn  Device specific interrupt number.
  \note    IRQn must not be negative.
 */
__STATIC_INLINE void __NVIC_EnableIRQ(IRQn_Type IRQn)
{
20004a28:	b480      	push	{r7}
20004a2a:	b083      	sub	sp, #12
20004a2c:	af00      	add	r7, sp, #0
20004a2e:	4603      	mov	r3, r0
20004a30:	71fb      	strb	r3, [r7, #7]
  if ((int32_t)(IRQn) >= 0)
20004a32:	f997 3007 	ldrsb.w	r3, [r7, #7]
20004a36:	2b00      	cmp	r3, #0
20004a38:	db0b      	blt.n	20004a52 <__NVIC_EnableIRQ+0x2a>
  {
    NVIC->ISER[(((uint32_t)IRQn) >> 5UL)] = (uint32_t)(1UL << (((uint32_t)IRQn) & 0x1FUL));
20004a3a:	79fb      	ldrb	r3, [r7, #7]
20004a3c:	f003 021f 	and.w	r2, r3, #31
20004a40:	4907      	ldr	r1, [pc, #28]	; (20004a60 <__NVIC_EnableIRQ+0x38>)
20004a42:	f997 3007 	ldrsb.w	r3, [r7, #7]
20004a46:	095b      	lsrs	r3, r3, #5
20004a48:	2001      	movs	r0, #1
20004a4a:	fa00 f202 	lsl.w	r2, r0, r2
20004a4e:	f841 2023 	str.w	r2, [r1, r3, lsl #2]
  }
}
20004a52:	bf00      	nop
20004a54:	370c      	adds	r7, #12
20004a56:	46bd      	mov	sp, r7
20004a58:	f85d 7b04 	ldr.w	r7, [sp], #4
20004a5c:	4770      	bx	lr
20004a5e:	bf00      	nop
20004a60:	e000e100 	.word	0xe000e100

20004a64 <__NVIC_SetPriority>:
  \param [in]      IRQn  Interrupt number.
  \param [in]  priority  Priority to set.
  \note    The priority cannot be set for every processor exception.
 */
__STATIC_INLINE void __NVIC_SetPriority(IRQn_Type IRQn, uint32_t priority)
{
20004a64:	b480      	push	{r7}
20004a66:	b083      	sub	sp, #12
20004a68:	af00      	add	r7, sp, #0
20004a6a:	4603      	mov	r3, r0
20004a6c:	6039      	str	r1, [r7, #0]
20004a6e:	71fb      	strb	r3, [r7, #7]
  if ((int32_t)(IRQn) >= 0)
20004a70:	f997 3007 	ldrsb.w	r3, [r7, #7]
20004a74:	2b00      	cmp	r3, #0
20004a76:	db0a      	blt.n	20004a8e <__NVIC_SetPriority+0x2a>
  {
    NVIC->IP[((uint32_t)IRQn)]               = (uint8_t)((priority << (8U - __NVIC_PRIO_BITS)) & (uint32_t)0xFFUL);
20004a78:	683b      	ldr	r3, [r7, #0]
20004a7a:	b2da      	uxtb	r2, r3
20004a7c:	490c      	ldr	r1, [pc, #48]	; (20004ab0 <__NVIC_SetPriority+0x4c>)
20004a7e:	f997 3007 	ldrsb.w	r3, [r7, #7]
20004a82:	0112      	lsls	r2, r2, #4
20004a84:	b2d2      	uxtb	r2, r2
20004a86:	440b      	add	r3, r1
20004a88:	f883 2300 	strb.w	r2, [r3, #768]	; 0x300
  }
  else
  {
    SCB->SHP[(((uint32_t)IRQn) & 0xFUL)-4UL] = (uint8_t)((priority << (8U - __NVIC_PRIO_BITS)) & (uint32_t)0xFFUL);
  }
}
20004a8c:	e00a      	b.n	20004aa4 <__NVIC_SetPriority+0x40>
    SCB->SHP[(((uint32_t)IRQn) & 0xFUL)-4UL] = (uint8_t)((priority << (8U - __NVIC_PRIO_BITS)) & (uint32_t)0xFFUL);
20004a8e:	683b      	ldr	r3, [r7, #0]
20004a90:	b2da      	uxtb	r2, r3
20004a92:	4908      	ldr	r1, [pc, #32]	; (20004ab4 <__NVIC_SetPriority+0x50>)
20004a94:	79fb      	ldrb	r3, [r7, #7]
20004a96:	f003 030f 	and.w	r3, r3, #15
20004a9a:	3b04      	subs	r3, #4
20004a9c:	0112      	lsls	r2, r2, #4
20004a9e:	b2d2      	uxtb	r2, r2
20004aa0:	440b      	add	r3, r1
20004aa2:	761a      	strb	r2, [r3, #24]
}
20004aa4:	bf00      	nop
20004aa6:	370c      	adds	r7, #12
20004aa8:	46bd      	mov	sp, r7
20004aaa:	f85d 7b04 	ldr.w	r7, [sp], #4
20004aae:	4770      	bx	lr
20004ab0:	e000e100 	.word	0xe000e100
20004ab4:	e000ed00 	.word	0xe000ed00

20004ab8 <NVIC_EncodePriority>:
  \param [in]   PreemptPriority  Preemptive priority value (starting from 0).
  \param [in]       SubPriority  Subpriority value (starting from 0).
  \return                        Encoded priority. Value can be used in the function \ref NVIC_SetPriority().
 */
__STATIC_INLINE uint32_t NVIC_EncodePriority (uint32_t PriorityGroup, uint32_t PreemptPriority, uint32_t SubPriority)
{
20004ab8:	b480      	push	{r7}
20004aba:	b089      	sub	sp, #36	; 0x24
20004abc:	af00      	add	r7, sp, #0
20004abe:	60f8      	str	r0, [r7, #12]
20004ac0:	60b9      	str	r1, [r7, #8]
20004ac2:	607a      	str	r2, [r7, #4]
  uint32_t PriorityGroupTmp = (PriorityGroup & (uint32_t)0x07UL);   /* only values 0..7 are used          */
20004ac4:	68fb      	ldr	r3, [r7, #12]
20004ac6:	f003 0307 	and.w	r3, r3, #7
20004aca:	61fb      	str	r3, [r7, #28]
  uint32_t PreemptPriorityBits;
  uint32_t SubPriorityBits;

  PreemptPriorityBits = ((7UL - PriorityGroupTmp) > (uint32_t)(__NVIC_PRIO_BITS)) ? (uint32_t)(__NVIC_PRIO_BITS) : (uint32_t)(7UL - PriorityGroupTmp);
20004acc:	69fb      	ldr	r3, [r7, #28]
20004ace:	f1c3 0307 	rsb	r3, r3, #7
20004ad2:	2b04      	cmp	r3, #4
20004ad4:	bf28      	it	cs
20004ad6:	2304      	movcs	r3, #4
20004ad8:	61bb      	str	r3, [r7, #24]
  SubPriorityBits     = ((PriorityGroupTmp + (uint32_t)(__NVIC_PRIO_BITS)) < (uint32_t)7UL) ? (uint32_t)0UL : (uint32_t)((PriorityGroupTmp - 7UL) + (uint32_t)(__NVIC_PRIO_BITS));
20004ada:	69fb      	ldr	r3, [r7, #28]
20004adc:	3304      	adds	r3, #4
20004ade:	2b06      	cmp	r3, #6
20004ae0:	d902      	bls.n	20004ae8 <NVIC_EncodePriority+0x30>
20004ae2:	69fb      	ldr	r3, [r7, #28]
20004ae4:	3b03      	subs	r3, #3
20004ae6:	e000      	b.n	20004aea <NVIC_EncodePriority+0x32>
20004ae8:	2300      	movs	r3, #0
20004aea:	617b      	str	r3, [r7, #20]

  return (
           ((PreemptPriority & (uint32_t)((1UL << (PreemptPriorityBits)) - 1UL)) << SubPriorityBits) |
20004aec:	f04f 32ff 	mov.w	r2, #4294967295
20004af0:	69bb      	ldr	r3, [r7, #24]
20004af2:	fa02 f303 	lsl.w	r3, r2, r3
20004af6:	43da      	mvns	r2, r3
20004af8:	68bb      	ldr	r3, [r7, #8]
20004afa:	401a      	ands	r2, r3
20004afc:	697b      	ldr	r3, [r7, #20]
20004afe:	409a      	lsls	r2, r3
           ((SubPriority     & (uint32_t)((1UL << (SubPriorityBits    )) - 1UL)))
20004b00:	f04f 31ff 	mov.w	r1, #4294967295
20004b04:	697b      	ldr	r3, [r7, #20]
20004b06:	fa01 f303 	lsl.w	r3, r1, r3
20004b0a:	43d9      	mvns	r1, r3
20004b0c:	687b      	ldr	r3, [r7, #4]
20004b0e:	400b      	ands	r3, r1
           ((PreemptPriority & (uint32_t)((1UL << (PreemptPriorityBits)) - 1UL)) << SubPriorityBits) |
20004b10:	4313      	orrs	r3, r2
         );
}
20004b12:	4618      	mov	r0, r3
20004b14:	3724      	adds	r7, #36	; 0x24
20004b16:	46bd      	mov	sp, r7
20004b18:	f85d 7b04 	ldr.w	r7, [sp], #4
20004b1c:	4770      	bx	lr
	...

20004b20 <LL_DMA_DisableStream>:
{
20004b20:	b480      	push	{r7}
20004b22:	b083      	sub	sp, #12
20004b24:	af00      	add	r7, sp, #0
20004b26:	6078      	str	r0, [r7, #4]
20004b28:	6039      	str	r1, [r7, #0]
  CLEAR_BIT(((DMA_Stream_TypeDef *)((uint32_t)((uint32_t)DMAx + STREAM_OFFSET_TAB[Stream])))->CR, DMA_SxCR_EN);
20004b2a:	4a0c      	ldr	r2, [pc, #48]	; (20004b5c <LL_DMA_DisableStream+0x3c>)
20004b2c:	683b      	ldr	r3, [r7, #0]
20004b2e:	4413      	add	r3, r2
20004b30:	781b      	ldrb	r3, [r3, #0]
20004b32:	461a      	mov	r2, r3
20004b34:	687b      	ldr	r3, [r7, #4]
20004b36:	4413      	add	r3, r2
20004b38:	681b      	ldr	r3, [r3, #0]
20004b3a:	4908      	ldr	r1, [pc, #32]	; (20004b5c <LL_DMA_DisableStream+0x3c>)
20004b3c:	683a      	ldr	r2, [r7, #0]
20004b3e:	440a      	add	r2, r1
20004b40:	7812      	ldrb	r2, [r2, #0]
20004b42:	4611      	mov	r1, r2
20004b44:	687a      	ldr	r2, [r7, #4]
20004b46:	440a      	add	r2, r1
20004b48:	f023 0301 	bic.w	r3, r3, #1
20004b4c:	6013      	str	r3, [r2, #0]
}
20004b4e:	bf00      	nop
20004b50:	370c      	adds	r7, #12
20004b52:	46bd      	mov	sp, r7
20004b54:	f85d 7b04 	ldr.w	r7, [sp], #4
20004b58:	4770      	bx	lr
20004b5a:	bf00      	nop
20004b5c:	2000a228 	.word	0x2000a228

20004b60 <LL_DMA_SetDataTransferDirection>:
{
20004b60:	b480      	push	{r7}
20004b62:	b085      	sub	sp, #20
20004b64:	af00      	add	r7, sp, #0
20004b66:	60f8      	str	r0, [r7, #12]
20004b68:	60b9      	str	r1, [r7, #8]
20004b6a:	607a      	str	r2, [r7, #4]
  MODIFY_REG(((DMA_Stream_TypeDef*)((uint32_t)((uint32_t)DMAx + STREAM_OFFSET_TAB[Stream])))->CR, DMA_SxCR_DIR, Direction);
20004b6c:	4a0d      	ldr	r2, [pc, #52]	; (20004ba4 <LL_DMA_SetDataTransferDirection+0x44>)
20004b6e:	68bb      	ldr	r3, [r7, #8]
20004b70:	4413      	add	r3, r2
20004b72:	781b      	ldrb	r3, [r3, #0]
20004b74:	461a      	mov	r2, r3
20004b76:	68fb      	ldr	r3, [r7, #12]
20004b78:	4413      	add	r3, r2
20004b7a:	681b      	ldr	r3, [r3, #0]
20004b7c:	f023 02c0 	bic.w	r2, r3, #192	; 0xc0
20004b80:	4908      	ldr	r1, [pc, #32]	; (20004ba4 <LL_DMA_SetDataTransferDirection+0x44>)
20004b82:	68bb      	ldr	r3, [r7, #8]
20004b84:	440b      	add	r3, r1
20004b86:	781b      	ldrb	r3, [r3, #0]
20004b88:	4619      	mov	r1, r3
20004b8a:	68fb      	ldr	r3, [r7, #12]
20004b8c:	440b      	add	r3, r1
20004b8e:	4619      	mov	r1, r3
20004b90:	687b      	ldr	r3, [r7, #4]
20004b92:	4313      	orrs	r3, r2
20004b94:	600b      	str	r3, [r1, #0]
}
20004b96:	bf00      	nop
20004b98:	3714      	adds	r7, #20
20004b9a:	46bd      	mov	sp, r7
20004b9c:	f85d 7b04 	ldr.w	r7, [sp], #4
20004ba0:	4770      	bx	lr
20004ba2:	bf00      	nop
20004ba4:	2000a228 	.word	0x2000a228

20004ba8 <LL_DMA_SetMode>:
{
20004ba8:	b480      	push	{r7}
20004baa:	b085      	sub	sp, #20
20004bac:	af00      	add	r7, sp, #0
20004bae:	60f8      	str	r0, [r7, #12]
20004bb0:	60b9      	str	r1, [r7, #8]
20004bb2:	607a      	str	r2, [r7, #4]
  MODIFY_REG(((DMA_Stream_TypeDef*)((uint32_t)((uint32_t)DMAx + STREAM_OFFSET_TAB[Stream])))->CR, DMA_SxCR_CIRC | DMA_SxCR_PFCTRL, Mode);
20004bb4:	4a0d      	ldr	r2, [pc, #52]	; (20004bec <LL_DMA_SetMode+0x44>)
20004bb6:	68bb      	ldr	r3, [r7, #8]
20004bb8:	4413      	add	r3, r2
20004bba:	781b      	ldrb	r3, [r3, #0]
20004bbc:	461a      	mov	r2, r3
20004bbe:	68fb      	ldr	r3, [r7, #12]
20004bc0:	4413      	add	r3, r2
20004bc2:	681b      	ldr	r3, [r3, #0]
20004bc4:	f423 7290 	bic.w	r2, r3, #288	; 0x120
20004bc8:	4908      	ldr	r1, [pc, #32]	; (20004bec <LL_DMA_SetMode+0x44>)
20004bca:	68bb      	ldr	r3, [r7, #8]
20004bcc:	440b      	add	r3, r1
20004bce:	781b      	ldrb	r3, [r3, #0]
20004bd0:	4619      	mov	r1, r3
20004bd2:	68fb      	ldr	r3, [r7, #12]
20004bd4:	440b      	add	r3, r1
20004bd6:	4619      	mov	r1, r3
20004bd8:	687b      	ldr	r3, [r7, #4]
20004bda:	4313      	orrs	r3, r2
20004bdc:	600b      	str	r3, [r1, #0]
}
20004bde:	bf00      	nop
20004be0:	3714      	adds	r7, #20
20004be2:	46bd      	mov	sp, r7
20004be4:	f85d 7b04 	ldr.w	r7, [sp], #4
20004be8:	4770      	bx	lr
20004bea:	bf00      	nop
20004bec:	2000a228 	.word	0x2000a228

20004bf0 <LL_DMA_SetPeriphIncMode>:
{
20004bf0:	b480      	push	{r7}
20004bf2:	b085      	sub	sp, #20
20004bf4:	af00      	add	r7, sp, #0
20004bf6:	60f8      	str	r0, [r7, #12]
20004bf8:	60b9      	str	r1, [r7, #8]
20004bfa:	607a      	str	r2, [r7, #4]
  MODIFY_REG(((DMA_Stream_TypeDef*)((uint32_t)((uint32_t)DMAx + STREAM_OFFSET_TAB[Stream])))->CR, DMA_SxCR_PINC, IncrementMode);
20004bfc:	4a0d      	ldr	r2, [pc, #52]	; (20004c34 <LL_DMA_SetPeriphIncMode+0x44>)
20004bfe:	68bb      	ldr	r3, [r7, #8]
20004c00:	4413      	add	r3, r2
20004c02:	781b      	ldrb	r3, [r3, #0]
20004c04:	461a      	mov	r2, r3
20004c06:	68fb      	ldr	r3, [r7, #12]
20004c08:	4413      	add	r3, r2
20004c0a:	681b      	ldr	r3, [r3, #0]
20004c0c:	f423 7200 	bic.w	r2, r3, #512	; 0x200
20004c10:	4908      	ldr	r1, [pc, #32]	; (20004c34 <LL_DMA_SetPeriphIncMode+0x44>)
20004c12:	68bb      	ldr	r3, [r7, #8]
20004c14:	440b      	add	r3, r1
20004c16:	781b      	ldrb	r3, [r3, #0]
20004c18:	4619      	mov	r1, r3
20004c1a:	68fb      	ldr	r3, [r7, #12]
20004c1c:	440b      	add	r3, r1
20004c1e:	4619      	mov	r1, r3
20004c20:	687b      	ldr	r3, [r7, #4]
20004c22:	4313      	orrs	r3, r2
20004c24:	600b      	str	r3, [r1, #0]
}
20004c26:	bf00      	nop
20004c28:	3714      	adds	r7, #20
20004c2a:	46bd      	mov	sp, r7
20004c2c:	f85d 7b04 	ldr.w	r7, [sp], #4
20004c30:	4770      	bx	lr
20004c32:	bf00      	nop
20004c34:	2000a228 	.word	0x2000a228

20004c38 <LL_DMA_SetMemoryIncMode>:
{
20004c38:	b480      	push	{r7}
20004c3a:	b085      	sub	sp, #20
20004c3c:	af00      	add	r7, sp, #0
20004c3e:	60f8      	str	r0, [r7, #12]
20004c40:	60b9      	str	r1, [r7, #8]
20004c42:	607a      	str	r2, [r7, #4]
  MODIFY_REG(((DMA_Stream_TypeDef*)((uint32_t)((uint32_t)DMAx + STREAM_OFFSET_TAB[Stream])))->CR, DMA_SxCR_MINC, IncrementMode);
20004c44:	4a0d      	ldr	r2, [pc, #52]	; (20004c7c <LL_DMA_SetMemoryIncMode+0x44>)
20004c46:	68bb      	ldr	r3, [r7, #8]
20004c48:	4413      	add	r3, r2
20004c4a:	781b      	ldrb	r3, [r3, #0]
20004c4c:	461a      	mov	r2, r3
20004c4e:	68fb      	ldr	r3, [r7, #12]
20004c50:	4413      	add	r3, r2
20004c52:	681b      	ldr	r3, [r3, #0]
20004c54:	f423 6280 	bic.w	r2, r3, #1024	; 0x400
20004c58:	4908      	ldr	r1, [pc, #32]	; (20004c7c <LL_DMA_SetMemoryIncMode+0x44>)
20004c5a:	68bb      	ldr	r3, [r7, #8]
20004c5c:	440b      	add	r3, r1
20004c5e:	781b      	ldrb	r3, [r3, #0]
20004c60:	4619      	mov	r1, r3
20004c62:	68fb      	ldr	r3, [r7, #12]
20004c64:	440b      	add	r3, r1
20004c66:	4619      	mov	r1, r3
20004c68:	687b      	ldr	r3, [r7, #4]
20004c6a:	4313      	orrs	r3, r2
20004c6c:	600b      	str	r3, [r1, #0]
}
20004c6e:	bf00      	nop
20004c70:	3714      	adds	r7, #20
20004c72:	46bd      	mov	sp, r7
20004c74:	f85d 7b04 	ldr.w	r7, [sp], #4
20004c78:	4770      	bx	lr
20004c7a:	bf00      	nop
20004c7c:	2000a228 	.word	0x2000a228

20004c80 <LL_DMA_SetPeriphSize>:
{
20004c80:	b480      	push	{r7}
20004c82:	b085      	sub	sp, #20
20004c84:	af00      	add	r7, sp, #0
20004c86:	60f8      	str	r0, [r7, #12]
20004c88:	60b9      	str	r1, [r7, #8]
20004c8a:	607a      	str	r2, [r7, #4]
  MODIFY_REG(((DMA_Stream_TypeDef*)((uint32_t)((uint32_t)DMAx + STREAM_OFFSET_TAB[Stream])))->CR, DMA_SxCR_PSIZE, Size);
20004c8c:	4a0d      	ldr	r2, [pc, #52]	; (20004cc4 <LL_DMA_SetPeriphSize+0x44>)
20004c8e:	68bb      	ldr	r3, [r7, #8]
20004c90:	4413      	add	r3, r2
20004c92:	781b      	ldrb	r3, [r3, #0]
20004c94:	461a      	mov	r2, r3
20004c96:	68fb      	ldr	r3, [r7, #12]
20004c98:	4413      	add	r3, r2
20004c9a:	681b      	ldr	r3, [r3, #0]
20004c9c:	f423 52c0 	bic.w	r2, r3, #6144	; 0x1800
20004ca0:	4908      	ldr	r1, [pc, #32]	; (20004cc4 <LL_DMA_SetPeriphSize+0x44>)
20004ca2:	68bb      	ldr	r3, [r7, #8]
20004ca4:	440b      	add	r3, r1
20004ca6:	781b      	ldrb	r3, [r3, #0]
20004ca8:	4619      	mov	r1, r3
20004caa:	68fb      	ldr	r3, [r7, #12]
20004cac:	440b      	add	r3, r1
20004cae:	4619      	mov	r1, r3
20004cb0:	687b      	ldr	r3, [r7, #4]
20004cb2:	4313      	orrs	r3, r2
20004cb4:	600b      	str	r3, [r1, #0]
}
20004cb6:	bf00      	nop
20004cb8:	3714      	adds	r7, #20
20004cba:	46bd      	mov	sp, r7
20004cbc:	f85d 7b04 	ldr.w	r7, [sp], #4
20004cc0:	4770      	bx	lr
20004cc2:	bf00      	nop
20004cc4:	2000a228 	.word	0x2000a228

20004cc8 <LL_DMA_SetMemorySize>:
{
20004cc8:	b480      	push	{r7}
20004cca:	b085      	sub	sp, #20
20004ccc:	af00      	add	r7, sp, #0
20004cce:	60f8      	str	r0, [r7, #12]
20004cd0:	60b9      	str	r1, [r7, #8]
20004cd2:	607a      	str	r2, [r7, #4]
  MODIFY_REG(((DMA_Stream_TypeDef*)((uint32_t)((uint32_t)DMAx + STREAM_OFFSET_TAB[Stream])))->CR, DMA_SxCR_MSIZE, Size);
20004cd4:	4a0d      	ldr	r2, [pc, #52]	; (20004d0c <LL_DMA_SetMemorySize+0x44>)
20004cd6:	68bb      	ldr	r3, [r7, #8]
20004cd8:	4413      	add	r3, r2
20004cda:	781b      	ldrb	r3, [r3, #0]
20004cdc:	461a      	mov	r2, r3
20004cde:	68fb      	ldr	r3, [r7, #12]
20004ce0:	4413      	add	r3, r2
20004ce2:	681b      	ldr	r3, [r3, #0]
20004ce4:	f423 42c0 	bic.w	r2, r3, #24576	; 0x6000
20004ce8:	4908      	ldr	r1, [pc, #32]	; (20004d0c <LL_DMA_SetMemorySize+0x44>)
20004cea:	68bb      	ldr	r3, [r7, #8]
20004cec:	440b      	add	r3, r1
20004cee:	781b      	ldrb	r3, [r3, #0]
20004cf0:	4619      	mov	r1, r3
20004cf2:	68fb      	ldr	r3, [r7, #12]
20004cf4:	440b      	add	r3, r1
20004cf6:	4619      	mov	r1, r3
20004cf8:	687b      	ldr	r3, [r7, #4]
20004cfa:	4313      	orrs	r3, r2
20004cfc:	600b      	str	r3, [r1, #0]
}
20004cfe:	bf00      	nop
20004d00:	3714      	adds	r7, #20
20004d02:	46bd      	mov	sp, r7
20004d04:	f85d 7b04 	ldr.w	r7, [sp], #4
20004d08:	4770      	bx	lr
20004d0a:	bf00      	nop
20004d0c:	2000a228 	.word	0x2000a228

20004d10 <LL_DMA_SetStreamPriorityLevel>:
{
20004d10:	b480      	push	{r7}
20004d12:	b085      	sub	sp, #20
20004d14:	af00      	add	r7, sp, #0
20004d16:	60f8      	str	r0, [r7, #12]
20004d18:	60b9      	str	r1, [r7, #8]
20004d1a:	607a      	str	r2, [r7, #4]
  MODIFY_REG(((DMA_Stream_TypeDef*)((uint32_t)((uint32_t)DMAx + STREAM_OFFSET_TAB[Stream])))->CR, DMA_SxCR_PL, Priority);
20004d1c:	4a0d      	ldr	r2, [pc, #52]	; (20004d54 <LL_DMA_SetStreamPriorityLevel+0x44>)
20004d1e:	68bb      	ldr	r3, [r7, #8]
20004d20:	4413      	add	r3, r2
20004d22:	781b      	ldrb	r3, [r3, #0]
20004d24:	461a      	mov	r2, r3
20004d26:	68fb      	ldr	r3, [r7, #12]
20004d28:	4413      	add	r3, r2
20004d2a:	681b      	ldr	r3, [r3, #0]
20004d2c:	f423 3240 	bic.w	r2, r3, #196608	; 0x30000
20004d30:	4908      	ldr	r1, [pc, #32]	; (20004d54 <LL_DMA_SetStreamPriorityLevel+0x44>)
20004d32:	68bb      	ldr	r3, [r7, #8]
20004d34:	440b      	add	r3, r1
20004d36:	781b      	ldrb	r3, [r3, #0]
20004d38:	4619      	mov	r1, r3
20004d3a:	68fb      	ldr	r3, [r7, #12]
20004d3c:	440b      	add	r3, r1
20004d3e:	4619      	mov	r1, r3
20004d40:	687b      	ldr	r3, [r7, #4]
20004d42:	4313      	orrs	r3, r2
20004d44:	600b      	str	r3, [r1, #0]
}
20004d46:	bf00      	nop
20004d48:	3714      	adds	r7, #20
20004d4a:	46bd      	mov	sp, r7
20004d4c:	f85d 7b04 	ldr.w	r7, [sp], #4
20004d50:	4770      	bx	lr
20004d52:	bf00      	nop
20004d54:	2000a228 	.word	0x2000a228

20004d58 <LL_DMA_SetChannelSelection>:
{
20004d58:	b480      	push	{r7}
20004d5a:	b085      	sub	sp, #20
20004d5c:	af00      	add	r7, sp, #0
20004d5e:	60f8      	str	r0, [r7, #12]
20004d60:	60b9      	str	r1, [r7, #8]
20004d62:	607a      	str	r2, [r7, #4]
  MODIFY_REG(((DMA_Stream_TypeDef*)((uint32_t)((uint32_t)DMAx + STREAM_OFFSET_TAB[Stream])))->CR, DMA_SxCR_CHSEL, Channel);
20004d64:	4a0d      	ldr	r2, [pc, #52]	; (20004d9c <LL_DMA_SetChannelSelection+0x44>)
20004d66:	68bb      	ldr	r3, [r7, #8]
20004d68:	4413      	add	r3, r2
20004d6a:	781b      	ldrb	r3, [r3, #0]
20004d6c:	461a      	mov	r2, r3
20004d6e:	68fb      	ldr	r3, [r7, #12]
20004d70:	4413      	add	r3, r2
20004d72:	681b      	ldr	r3, [r3, #0]
20004d74:	f023 6260 	bic.w	r2, r3, #234881024	; 0xe000000
20004d78:	4908      	ldr	r1, [pc, #32]	; (20004d9c <LL_DMA_SetChannelSelection+0x44>)
20004d7a:	68bb      	ldr	r3, [r7, #8]
20004d7c:	440b      	add	r3, r1
20004d7e:	781b      	ldrb	r3, [r3, #0]
20004d80:	4619      	mov	r1, r3
20004d82:	68fb      	ldr	r3, [r7, #12]
20004d84:	440b      	add	r3, r1
20004d86:	4619      	mov	r1, r3
20004d88:	687b      	ldr	r3, [r7, #4]
20004d8a:	4313      	orrs	r3, r2
20004d8c:	600b      	str	r3, [r1, #0]
}
20004d8e:	bf00      	nop
20004d90:	3714      	adds	r7, #20
20004d92:	46bd      	mov	sp, r7
20004d94:	f85d 7b04 	ldr.w	r7, [sp], #4
20004d98:	4770      	bx	lr
20004d9a:	bf00      	nop
20004d9c:	2000a228 	.word	0x2000a228

20004da0 <LL_DMA_DisableFifoMode>:
{
20004da0:	b480      	push	{r7}
20004da2:	b083      	sub	sp, #12
20004da4:	af00      	add	r7, sp, #0
20004da6:	6078      	str	r0, [r7, #4]
20004da8:	6039      	str	r1, [r7, #0]
  CLEAR_BIT(((DMA_Stream_TypeDef *)((uint32_t)((uint32_t)DMAx + STREAM_OFFSET_TAB[Stream])))->FCR, DMA_SxFCR_DMDIS);
20004daa:	4a0c      	ldr	r2, [pc, #48]	; (20004ddc <LL_DMA_DisableFifoMode+0x3c>)
20004dac:	683b      	ldr	r3, [r7, #0]
20004dae:	4413      	add	r3, r2
20004db0:	781b      	ldrb	r3, [r3, #0]
20004db2:	461a      	mov	r2, r3
20004db4:	687b      	ldr	r3, [r7, #4]
20004db6:	4413      	add	r3, r2
20004db8:	695b      	ldr	r3, [r3, #20]
20004dba:	4908      	ldr	r1, [pc, #32]	; (20004ddc <LL_DMA_DisableFifoMode+0x3c>)
20004dbc:	683a      	ldr	r2, [r7, #0]
20004dbe:	440a      	add	r2, r1
20004dc0:	7812      	ldrb	r2, [r2, #0]
20004dc2:	4611      	mov	r1, r2
20004dc4:	687a      	ldr	r2, [r7, #4]
20004dc6:	440a      	add	r2, r1
20004dc8:	f023 0304 	bic.w	r3, r3, #4
20004dcc:	6153      	str	r3, [r2, #20]
}
20004dce:	bf00      	nop
20004dd0:	370c      	adds	r7, #12
20004dd2:	46bd      	mov	sp, r7
20004dd4:	f85d 7b04 	ldr.w	r7, [sp], #4
20004dd8:	4770      	bx	lr
20004dda:	bf00      	nop
20004ddc:	2000a228 	.word	0x2000a228

20004de0 <LL_DMA_ClearFlag_TC4>:
  * @rmtoll HIFCR  CTCIF4    LL_DMA_ClearFlag_TC4
  * @param  DMAx DMAx Instance
  * @retval None
  */
__STATIC_INLINE void LL_DMA_ClearFlag_TC4(DMA_TypeDef *DMAx)
{
20004de0:	b480      	push	{r7}
20004de2:	b083      	sub	sp, #12
20004de4:	af00      	add	r7, sp, #0
20004de6:	6078      	str	r0, [r7, #4]
  WRITE_REG(DMAx->HIFCR , DMA_HIFCR_CTCIF4);
20004de8:	687b      	ldr	r3, [r7, #4]
20004dea:	2220      	movs	r2, #32
20004dec:	60da      	str	r2, [r3, #12]
}
20004dee:	bf00      	nop
20004df0:	370c      	adds	r7, #12
20004df2:	46bd      	mov	sp, r7
20004df4:	f85d 7b04 	ldr.w	r7, [sp], #4
20004df8:	4770      	bx	lr

20004dfa <LL_DMA_ClearFlag_TE4>:
  * @rmtoll HIFCR  CTEIF4    LL_DMA_ClearFlag_TE4
  * @param  DMAx DMAx Instance
  * @retval None
  */
__STATIC_INLINE void LL_DMA_ClearFlag_TE4(DMA_TypeDef *DMAx)
{
20004dfa:	b480      	push	{r7}
20004dfc:	b083      	sub	sp, #12
20004dfe:	af00      	add	r7, sp, #0
20004e00:	6078      	str	r0, [r7, #4]
  WRITE_REG(DMAx->HIFCR , DMA_HIFCR_CTEIF4);
20004e02:	687b      	ldr	r3, [r7, #4]
20004e04:	2208      	movs	r2, #8
20004e06:	60da      	str	r2, [r3, #12]
}
20004e08:	bf00      	nop
20004e0a:	370c      	adds	r7, #12
20004e0c:	46bd      	mov	sp, r7
20004e0e:	f85d 7b04 	ldr.w	r7, [sp], #4
20004e12:	4770      	bx	lr

20004e14 <LL_DMA_EnableIT_TE>:
  *         @arg @ref LL_DMA_STREAM_6
  *         @arg @ref LL_DMA_STREAM_7
  * @retval None
  */
__STATIC_INLINE void LL_DMA_EnableIT_TE(DMA_TypeDef *DMAx, uint32_t Stream)
{
20004e14:	b480      	push	{r7}
20004e16:	b083      	sub	sp, #12
20004e18:	af00      	add	r7, sp, #0
20004e1a:	6078      	str	r0, [r7, #4]
20004e1c:	6039      	str	r1, [r7, #0]
  SET_BIT(((DMA_Stream_TypeDef *)((uint32_t)((uint32_t)DMAx + STREAM_OFFSET_TAB[Stream])))->CR, DMA_SxCR_TEIE);
20004e1e:	4a0c      	ldr	r2, [pc, #48]	; (20004e50 <LL_DMA_EnableIT_TE+0x3c>)
20004e20:	683b      	ldr	r3, [r7, #0]
20004e22:	4413      	add	r3, r2
20004e24:	781b      	ldrb	r3, [r3, #0]
20004e26:	461a      	mov	r2, r3
20004e28:	687b      	ldr	r3, [r7, #4]
20004e2a:	4413      	add	r3, r2
20004e2c:	681b      	ldr	r3, [r3, #0]
20004e2e:	4908      	ldr	r1, [pc, #32]	; (20004e50 <LL_DMA_EnableIT_TE+0x3c>)
20004e30:	683a      	ldr	r2, [r7, #0]
20004e32:	440a      	add	r2, r1
20004e34:	7812      	ldrb	r2, [r2, #0]
20004e36:	4611      	mov	r1, r2
20004e38:	687a      	ldr	r2, [r7, #4]
20004e3a:	440a      	add	r2, r1
20004e3c:	f043 0304 	orr.w	r3, r3, #4
20004e40:	6013      	str	r3, [r2, #0]
}
20004e42:	bf00      	nop
20004e44:	370c      	adds	r7, #12
20004e46:	46bd      	mov	sp, r7
20004e48:	f85d 7b04 	ldr.w	r7, [sp], #4
20004e4c:	4770      	bx	lr
20004e4e:	bf00      	nop
20004e50:	2000a228 	.word	0x2000a228

20004e54 <LL_DMA_EnableIT_TC>:
  *         @arg @ref LL_DMA_STREAM_6
  *         @arg @ref LL_DMA_STREAM_7
  * @retval None
  */
__STATIC_INLINE void LL_DMA_EnableIT_TC(DMA_TypeDef *DMAx, uint32_t Stream)
{
20004e54:	b480      	push	{r7}
20004e56:	b083      	sub	sp, #12
20004e58:	af00      	add	r7, sp, #0
20004e5a:	6078      	str	r0, [r7, #4]
20004e5c:	6039      	str	r1, [r7, #0]
  SET_BIT(((DMA_Stream_TypeDef *)((uint32_t)((uint32_t)DMAx + STREAM_OFFSET_TAB[Stream])))->CR, DMA_SxCR_TCIE);
20004e5e:	4a0c      	ldr	r2, [pc, #48]	; (20004e90 <LL_DMA_EnableIT_TC+0x3c>)
20004e60:	683b      	ldr	r3, [r7, #0]
20004e62:	4413      	add	r3, r2
20004e64:	781b      	ldrb	r3, [r3, #0]
20004e66:	461a      	mov	r2, r3
20004e68:	687b      	ldr	r3, [r7, #4]
20004e6a:	4413      	add	r3, r2
20004e6c:	681b      	ldr	r3, [r3, #0]
20004e6e:	4908      	ldr	r1, [pc, #32]	; (20004e90 <LL_DMA_EnableIT_TC+0x3c>)
20004e70:	683a      	ldr	r2, [r7, #0]
20004e72:	440a      	add	r2, r1
20004e74:	7812      	ldrb	r2, [r2, #0]
20004e76:	4611      	mov	r1, r2
20004e78:	687a      	ldr	r2, [r7, #4]
20004e7a:	440a      	add	r2, r1
20004e7c:	f043 0310 	orr.w	r3, r3, #16
20004e80:	6013      	str	r3, [r2, #0]
}
20004e82:	bf00      	nop
20004e84:	370c      	adds	r7, #12
20004e86:	46bd      	mov	sp, r7
20004e88:	f85d 7b04 	ldr.w	r7, [sp], #4
20004e8c:	4770      	bx	lr
20004e8e:	bf00      	nop
20004e90:	2000a228 	.word	0x2000a228

20004e94 <LL_RCC_HSE_Enable>:
  * @brief  Enable HSE crystal oscillator (HSE ON)
  * @rmtoll CR           HSEON         LL_RCC_HSE_Enable
  * @retval None
  */
__STATIC_INLINE void LL_RCC_HSE_Enable(void)
{
20004e94:	b480      	push	{r7}
20004e96:	af00      	add	r7, sp, #0
  SET_BIT(RCC->CR, RCC_CR_HSEON);
20004e98:	4b05      	ldr	r3, [pc, #20]	; (20004eb0 <LL_RCC_HSE_Enable+0x1c>)
20004e9a:	681b      	ldr	r3, [r3, #0]
20004e9c:	4a04      	ldr	r2, [pc, #16]	; (20004eb0 <LL_RCC_HSE_Enable+0x1c>)
20004e9e:	f443 3380 	orr.w	r3, r3, #65536	; 0x10000
20004ea2:	6013      	str	r3, [r2, #0]
}
20004ea4:	bf00      	nop
20004ea6:	46bd      	mov	sp, r7
20004ea8:	f85d 7b04 	ldr.w	r7, [sp], #4
20004eac:	4770      	bx	lr
20004eae:	bf00      	nop
20004eb0:	40023800 	.word	0x40023800

20004eb4 <LL_RCC_HSE_IsReady>:
  * @brief  Check if HSE oscillator Ready
  * @rmtoll CR           HSERDY        LL_RCC_HSE_IsReady
  * @retval State of bit (1 or 0).
  */
__STATIC_INLINE uint32_t LL_RCC_HSE_IsReady(void)
{
20004eb4:	b480      	push	{r7}
20004eb6:	af00      	add	r7, sp, #0
  return (READ_BIT(RCC->CR, RCC_CR_HSERDY) == (RCC_CR_HSERDY));
20004eb8:	4b07      	ldr	r3, [pc, #28]	; (20004ed8 <LL_RCC_HSE_IsReady+0x24>)
20004eba:	681b      	ldr	r3, [r3, #0]
20004ebc:	f403 3300 	and.w	r3, r3, #131072	; 0x20000
20004ec0:	f5b3 3f00 	cmp.w	r3, #131072	; 0x20000
20004ec4:	bf0c      	ite	eq
20004ec6:	2301      	moveq	r3, #1
20004ec8:	2300      	movne	r3, #0
20004eca:	b2db      	uxtb	r3, r3
}
20004ecc:	4618      	mov	r0, r3
20004ece:	46bd      	mov	sp, r7
20004ed0:	f85d 7b04 	ldr.w	r7, [sp], #4
20004ed4:	4770      	bx	lr
20004ed6:	bf00      	nop
20004ed8:	40023800 	.word	0x40023800

20004edc <LL_RCC_SetSysClkSource>:
  *
  *         (*) value not defined in all devices.
  * @retval None
  */
__STATIC_INLINE void LL_RCC_SetSysClkSource(uint32_t Source)
{
20004edc:	b480      	push	{r7}
20004ede:	b083      	sub	sp, #12
20004ee0:	af00      	add	r7, sp, #0
20004ee2:	6078      	str	r0, [r7, #4]
  MODIFY_REG(RCC->CFGR, RCC_CFGR_SW, Source);
20004ee4:	4b06      	ldr	r3, [pc, #24]	; (20004f00 <LL_RCC_SetSysClkSource+0x24>)
20004ee6:	689b      	ldr	r3, [r3, #8]
20004ee8:	f023 0203 	bic.w	r2, r3, #3
20004eec:	4904      	ldr	r1, [pc, #16]	; (20004f00 <LL_RCC_SetSysClkSource+0x24>)
20004eee:	687b      	ldr	r3, [r7, #4]
20004ef0:	4313      	orrs	r3, r2
20004ef2:	608b      	str	r3, [r1, #8]
}
20004ef4:	bf00      	nop
20004ef6:	370c      	adds	r7, #12
20004ef8:	46bd      	mov	sp, r7
20004efa:	f85d 7b04 	ldr.w	r7, [sp], #4
20004efe:	4770      	bx	lr
20004f00:	40023800 	.word	0x40023800

20004f04 <LL_RCC_GetSysClkSource>:
  *         @arg @ref LL_RCC_SYS_CLKSOURCE_STATUS_PLLR (*)
  *
  *         (*) value not defined in all devices.
  */
__STATIC_INLINE uint32_t LL_RCC_GetSysClkSource(void)
{
20004f04:	b480      	push	{r7}
20004f06:	af00      	add	r7, sp, #0
  return (uint32_t)(READ_BIT(RCC->CFGR, RCC_CFGR_SWS));
20004f08:	4b04      	ldr	r3, [pc, #16]	; (20004f1c <LL_RCC_GetSysClkSource+0x18>)
20004f0a:	689b      	ldr	r3, [r3, #8]
20004f0c:	f003 030c 	and.w	r3, r3, #12
}
20004f10:	4618      	mov	r0, r3
20004f12:	46bd      	mov	sp, r7
20004f14:	f85d 7b04 	ldr.w	r7, [sp], #4
20004f18:	4770      	bx	lr
20004f1a:	bf00      	nop
20004f1c:	40023800 	.word	0x40023800

20004f20 <LL_RCC_SetAHBPrescaler>:
  *         @arg @ref LL_RCC_SYSCLK_DIV_256
  *         @arg @ref LL_RCC_SYSCLK_DIV_512
  * @retval None
  */
__STATIC_INLINE void LL_RCC_SetAHBPrescaler(uint32_t Prescaler)
{
20004f20:	b480      	push	{r7}
20004f22:	b083      	sub	sp, #12
20004f24:	af00      	add	r7, sp, #0
20004f26:	6078      	str	r0, [r7, #4]
  MODIFY_REG(RCC->CFGR, RCC_CFGR_HPRE, Prescaler);
20004f28:	4b06      	ldr	r3, [pc, #24]	; (20004f44 <LL_RCC_SetAHBPrescaler+0x24>)
20004f2a:	689b      	ldr	r3, [r3, #8]
20004f2c:	f023 02f0 	bic.w	r2, r3, #240	; 0xf0
20004f30:	4904      	ldr	r1, [pc, #16]	; (20004f44 <LL_RCC_SetAHBPrescaler+0x24>)
20004f32:	687b      	ldr	r3, [r7, #4]
20004f34:	4313      	orrs	r3, r2
20004f36:	608b      	str	r3, [r1, #8]
}
20004f38:	bf00      	nop
20004f3a:	370c      	adds	r7, #12
20004f3c:	46bd      	mov	sp, r7
20004f3e:	f85d 7b04 	ldr.w	r7, [sp], #4
20004f42:	4770      	bx	lr
20004f44:	40023800 	.word	0x40023800

20004f48 <LL_RCC_SetAPB1Prescaler>:
  *         @arg @ref LL_RCC_APB1_DIV_8
  *         @arg @ref LL_RCC_APB1_DIV_16
  * @retval None
  */
__STATIC_INLINE void LL_RCC_SetAPB1Prescaler(uint32_t Prescaler)
{
20004f48:	b480      	push	{r7}
20004f4a:	b083      	sub	sp, #12
20004f4c:	af00      	add	r7, sp, #0
20004f4e:	6078      	str	r0, [r7, #4]
  MODIFY_REG(RCC->CFGR, RCC_CFGR_PPRE1, Prescaler);
20004f50:	4b06      	ldr	r3, [pc, #24]	; (20004f6c <LL_RCC_SetAPB1Prescaler+0x24>)
20004f52:	689b      	ldr	r3, [r3, #8]
20004f54:	f423 52e0 	bic.w	r2, r3, #7168	; 0x1c00
20004f58:	4904      	ldr	r1, [pc, #16]	; (20004f6c <LL_RCC_SetAPB1Prescaler+0x24>)
20004f5a:	687b      	ldr	r3, [r7, #4]
20004f5c:	4313      	orrs	r3, r2
20004f5e:	608b      	str	r3, [r1, #8]
}
20004f60:	bf00      	nop
20004f62:	370c      	adds	r7, #12
20004f64:	46bd      	mov	sp, r7
20004f66:	f85d 7b04 	ldr.w	r7, [sp], #4
20004f6a:	4770      	bx	lr
20004f6c:	40023800 	.word	0x40023800

20004f70 <LL_RCC_SetAPB2Prescaler>:
  *         @arg @ref LL_RCC_APB2_DIV_8
  *         @arg @ref LL_RCC_APB2_DIV_16
  * @retval None
  */
__STATIC_INLINE void LL_RCC_SetAPB2Prescaler(uint32_t Prescaler)
{
20004f70:	b480      	push	{r7}
20004f72:	b083      	sub	sp, #12
20004f74:	af00      	add	r7, sp, #0
20004f76:	6078      	str	r0, [r7, #4]
  MODIFY_REG(RCC->CFGR, RCC_CFGR_PPRE2, Prescaler);
20004f78:	4b06      	ldr	r3, [pc, #24]	; (20004f94 <LL_RCC_SetAPB2Prescaler+0x24>)
20004f7a:	689b      	ldr	r3, [r3, #8]
20004f7c:	f423 4260 	bic.w	r2, r3, #57344	; 0xe000
20004f80:	4904      	ldr	r1, [pc, #16]	; (20004f94 <LL_RCC_SetAPB2Prescaler+0x24>)
20004f82:	687b      	ldr	r3, [r7, #4]
20004f84:	4313      	orrs	r3, r2
20004f86:	608b      	str	r3, [r1, #8]
}
20004f88:	bf00      	nop
20004f8a:	370c      	adds	r7, #12
20004f8c:	46bd      	mov	sp, r7
20004f8e:	f85d 7b04 	ldr.w	r7, [sp], #4
20004f92:	4770      	bx	lr
20004f94:	40023800 	.word	0x40023800

20004f98 <LL_RCC_SetTIMPrescaler>:
  *         @arg @ref LL_RCC_TIM_PRESCALER_TWICE
  *         @arg @ref LL_RCC_TIM_PRESCALER_FOUR_TIMES
  * @retval None
  */
__STATIC_INLINE void LL_RCC_SetTIMPrescaler(uint32_t Prescaler)
{
20004f98:	b480      	push	{r7}
20004f9a:	b083      	sub	sp, #12
20004f9c:	af00      	add	r7, sp, #0
20004f9e:	6078      	str	r0, [r7, #4]
  MODIFY_REG(RCC->DCKCFGR, RCC_DCKCFGR_TIMPRE, Prescaler);
20004fa0:	4b07      	ldr	r3, [pc, #28]	; (20004fc0 <LL_RCC_SetTIMPrescaler+0x28>)
20004fa2:	f8d3 308c 	ldr.w	r3, [r3, #140]	; 0x8c
20004fa6:	f023 7280 	bic.w	r2, r3, #16777216	; 0x1000000
20004faa:	4905      	ldr	r1, [pc, #20]	; (20004fc0 <LL_RCC_SetTIMPrescaler+0x28>)
20004fac:	687b      	ldr	r3, [r7, #4]
20004fae:	4313      	orrs	r3, r2
20004fb0:	f8c1 308c 	str.w	r3, [r1, #140]	; 0x8c
}
20004fb4:	bf00      	nop
20004fb6:	370c      	adds	r7, #12
20004fb8:	46bd      	mov	sp, r7
20004fba:	f85d 7b04 	ldr.w	r7, [sp], #4
20004fbe:	4770      	bx	lr
20004fc0:	40023800 	.word	0x40023800

20004fc4 <LL_RCC_PLL_Enable>:
  * @brief  Enable PLL
  * @rmtoll CR           PLLON         LL_RCC_PLL_Enable
  * @retval None
  */
__STATIC_INLINE void LL_RCC_PLL_Enable(void)
{
20004fc4:	b480      	push	{r7}
20004fc6:	af00      	add	r7, sp, #0
  SET_BIT(RCC->CR, RCC_CR_PLLON);
20004fc8:	4b05      	ldr	r3, [pc, #20]	; (20004fe0 <LL_RCC_PLL_Enable+0x1c>)
20004fca:	681b      	ldr	r3, [r3, #0]
20004fcc:	4a04      	ldr	r2, [pc, #16]	; (20004fe0 <LL_RCC_PLL_Enable+0x1c>)
20004fce:	f043 7380 	orr.w	r3, r3, #16777216	; 0x1000000
20004fd2:	6013      	str	r3, [r2, #0]
}
20004fd4:	bf00      	nop
20004fd6:	46bd      	mov	sp, r7
20004fd8:	f85d 7b04 	ldr.w	r7, [sp], #4
20004fdc:	4770      	bx	lr
20004fde:	bf00      	nop
20004fe0:	40023800 	.word	0x40023800

20004fe4 <LL_RCC_PLL_IsReady>:
  * @brief  Check if PLL Ready
  * @rmtoll CR           PLLRDY        LL_RCC_PLL_IsReady
  * @retval State of bit (1 or 0).
  */
__STATIC_INLINE uint32_t LL_RCC_PLL_IsReady(void)
{
20004fe4:	b480      	push	{r7}
20004fe6:	af00      	add	r7, sp, #0
  return (READ_BIT(RCC->CR, RCC_CR_PLLRDY) == (RCC_CR_PLLRDY));
20004fe8:	4b07      	ldr	r3, [pc, #28]	; (20005008 <LL_RCC_PLL_IsReady+0x24>)
20004fea:	681b      	ldr	r3, [r3, #0]
20004fec:	f003 7300 	and.w	r3, r3, #33554432	; 0x2000000
20004ff0:	f1b3 7f00 	cmp.w	r3, #33554432	; 0x2000000
20004ff4:	bf0c      	ite	eq
20004ff6:	2301      	moveq	r3, #1
20004ff8:	2300      	movne	r3, #0
20004ffa:	b2db      	uxtb	r3, r3
}
20004ffc:	4618      	mov	r0, r3
20004ffe:	46bd      	mov	sp, r7
20005000:	f85d 7b04 	ldr.w	r7, [sp], #4
20005004:	4770      	bx	lr
20005006:	bf00      	nop
20005008:	40023800 	.word	0x40023800

2000500c <LL_RCC_PLL_ConfigDomain_SYS>:
  *
  *         (*) value not defined in all devices.
  * @retval None
  */
__STATIC_INLINE void LL_RCC_PLL_ConfigDomain_SYS(uint32_t Source, uint32_t PLLM, uint32_t PLLN, uint32_t PLLP_R)
{
2000500c:	b480      	push	{r7}
2000500e:	b085      	sub	sp, #20
20005010:	af00      	add	r7, sp, #0
20005012:	60f8      	str	r0, [r7, #12]
20005014:	60b9      	str	r1, [r7, #8]
20005016:	607a      	str	r2, [r7, #4]
20005018:	603b      	str	r3, [r7, #0]
  MODIFY_REG(RCC->PLLCFGR, RCC_PLLCFGR_PLLSRC | RCC_PLLCFGR_PLLM | RCC_PLLCFGR_PLLN,
2000501a:	4b0d      	ldr	r3, [pc, #52]	; (20005050 <LL_RCC_PLL_ConfigDomain_SYS+0x44>)
2000501c:	685a      	ldr	r2, [r3, #4]
2000501e:	4b0d      	ldr	r3, [pc, #52]	; (20005054 <LL_RCC_PLL_ConfigDomain_SYS+0x48>)
20005020:	4013      	ands	r3, r2
20005022:	68f9      	ldr	r1, [r7, #12]
20005024:	68ba      	ldr	r2, [r7, #8]
20005026:	4311      	orrs	r1, r2
20005028:	687a      	ldr	r2, [r7, #4]
2000502a:	0192      	lsls	r2, r2, #6
2000502c:	430a      	orrs	r2, r1
2000502e:	4908      	ldr	r1, [pc, #32]	; (20005050 <LL_RCC_PLL_ConfigDomain_SYS+0x44>)
20005030:	4313      	orrs	r3, r2
20005032:	604b      	str	r3, [r1, #4]
             Source | PLLM | PLLN << RCC_PLLCFGR_PLLN_Pos);
  MODIFY_REG(RCC->PLLCFGR, RCC_PLLCFGR_PLLP, PLLP_R);
20005034:	4b06      	ldr	r3, [pc, #24]	; (20005050 <LL_RCC_PLL_ConfigDomain_SYS+0x44>)
20005036:	685b      	ldr	r3, [r3, #4]
20005038:	f423 3240 	bic.w	r2, r3, #196608	; 0x30000
2000503c:	4904      	ldr	r1, [pc, #16]	; (20005050 <LL_RCC_PLL_ConfigDomain_SYS+0x44>)
2000503e:	683b      	ldr	r3, [r7, #0]
20005040:	4313      	orrs	r3, r2
20005042:	604b      	str	r3, [r1, #4]
#if defined(RCC_PLLR_SYSCLK_SUPPORT)
  MODIFY_REG(RCC->PLLCFGR, RCC_PLLCFGR_PLLR, PLLP_R);
#endif /* RCC_PLLR_SYSCLK_SUPPORT */
}
20005044:	bf00      	nop
20005046:	3714      	adds	r7, #20
20005048:	46bd      	mov	sp, r7
2000504a:	f85d 7b04 	ldr.w	r7, [sp], #4
2000504e:	4770      	bx	lr
20005050:	40023800 	.word	0x40023800
20005054:	ffbf8000 	.word	0xffbf8000

20005058 <LL_RCC_PLL_ConfigDomain_48M>:
  *         @arg @ref LL_RCC_PLLQ_DIV_14
  *         @arg @ref LL_RCC_PLLQ_DIV_15
  * @retval None
  */
__STATIC_INLINE void LL_RCC_PLL_ConfigDomain_48M(uint32_t Source, uint32_t PLLM, uint32_t PLLN, uint32_t PLLQ)
{
20005058:	b480      	push	{r7}
2000505a:	b085      	sub	sp, #20
2000505c:	af00      	add	r7, sp, #0
2000505e:	60f8      	str	r0, [r7, #12]
20005060:	60b9      	str	r1, [r7, #8]
20005062:	607a      	str	r2, [r7, #4]
20005064:	603b      	str	r3, [r7, #0]
  MODIFY_REG(RCC->PLLCFGR, RCC_PLLCFGR_PLLSRC | RCC_PLLCFGR_PLLM | RCC_PLLCFGR_PLLN | RCC_PLLCFGR_PLLQ,
20005066:	4b0a      	ldr	r3, [pc, #40]	; (20005090 <LL_RCC_PLL_ConfigDomain_48M+0x38>)
20005068:	685a      	ldr	r2, [r3, #4]
2000506a:	4b0a      	ldr	r3, [pc, #40]	; (20005094 <LL_RCC_PLL_ConfigDomain_48M+0x3c>)
2000506c:	4013      	ands	r3, r2
2000506e:	68f9      	ldr	r1, [r7, #12]
20005070:	68ba      	ldr	r2, [r7, #8]
20005072:	4311      	orrs	r1, r2
20005074:	687a      	ldr	r2, [r7, #4]
20005076:	0192      	lsls	r2, r2, #6
20005078:	4311      	orrs	r1, r2
2000507a:	683a      	ldr	r2, [r7, #0]
2000507c:	430a      	orrs	r2, r1
2000507e:	4904      	ldr	r1, [pc, #16]	; (20005090 <LL_RCC_PLL_ConfigDomain_48M+0x38>)
20005080:	4313      	orrs	r3, r2
20005082:	604b      	str	r3, [r1, #4]
             Source | PLLM | PLLN << RCC_PLLCFGR_PLLN_Pos | PLLQ);
}
20005084:	bf00      	nop
20005086:	3714      	adds	r7, #20
20005088:	46bd      	mov	sp, r7
2000508a:	f85d 7b04 	ldr.w	r7, [sp], #4
2000508e:	4770      	bx	lr
20005090:	40023800 	.word	0x40023800
20005094:	f0bf8000 	.word	0xf0bf8000

20005098 <LL_AHB1_GRP1_EnableClock>:
  *
  *         (*) value not defined in all devices.
  * @retval None
*/
__STATIC_INLINE void LL_AHB1_GRP1_EnableClock(uint32_t Periphs)
{
20005098:	b480      	push	{r7}
2000509a:	b085      	sub	sp, #20
2000509c:	af00      	add	r7, sp, #0
2000509e:	6078      	str	r0, [r7, #4]
  __IO uint32_t tmpreg;
  SET_BIT(RCC->AHB1ENR, Periphs);
200050a0:	4b08      	ldr	r3, [pc, #32]	; (200050c4 <LL_AHB1_GRP1_EnableClock+0x2c>)
200050a2:	6b1a      	ldr	r2, [r3, #48]	; 0x30
200050a4:	4907      	ldr	r1, [pc, #28]	; (200050c4 <LL_AHB1_GRP1_EnableClock+0x2c>)
200050a6:	687b      	ldr	r3, [r7, #4]
200050a8:	4313      	orrs	r3, r2
200050aa:	630b      	str	r3, [r1, #48]	; 0x30
  /* Delay after an RCC peripheral clock enabling */
  tmpreg = READ_BIT(RCC->AHB1ENR, Periphs);
200050ac:	4b05      	ldr	r3, [pc, #20]	; (200050c4 <LL_AHB1_GRP1_EnableClock+0x2c>)
200050ae:	6b1a      	ldr	r2, [r3, #48]	; 0x30
200050b0:	687b      	ldr	r3, [r7, #4]
200050b2:	4013      	ands	r3, r2
200050b4:	60fb      	str	r3, [r7, #12]
  (void)tmpreg;
200050b6:	68fb      	ldr	r3, [r7, #12]
}
200050b8:	bf00      	nop
200050ba:	3714      	adds	r7, #20
200050bc:	46bd      	mov	sp, r7
200050be:	f85d 7b04 	ldr.w	r7, [sp], #4
200050c2:	4770      	bx	lr
200050c4:	40023800 	.word	0x40023800

200050c8 <LL_AHB2_GRP1_EnableClock>:
  *
  *         (*) value not defined in all devices.
  * @retval None
*/
__STATIC_INLINE void LL_AHB2_GRP1_EnableClock(uint32_t Periphs)
{
200050c8:	b480      	push	{r7}
200050ca:	b085      	sub	sp, #20
200050cc:	af00      	add	r7, sp, #0
200050ce:	6078      	str	r0, [r7, #4]
  __IO uint32_t tmpreg;
  SET_BIT(RCC->AHB2ENR, Periphs);
200050d0:	4b08      	ldr	r3, [pc, #32]	; (200050f4 <LL_AHB2_GRP1_EnableClock+0x2c>)
200050d2:	6b5a      	ldr	r2, [r3, #52]	; 0x34
200050d4:	4907      	ldr	r1, [pc, #28]	; (200050f4 <LL_AHB2_GRP1_EnableClock+0x2c>)
200050d6:	687b      	ldr	r3, [r7, #4]
200050d8:	4313      	orrs	r3, r2
200050da:	634b      	str	r3, [r1, #52]	; 0x34
  /* Delay after an RCC peripheral clock enabling */
  tmpreg = READ_BIT(RCC->AHB2ENR, Periphs);
200050dc:	4b05      	ldr	r3, [pc, #20]	; (200050f4 <LL_AHB2_GRP1_EnableClock+0x2c>)
200050de:	6b5a      	ldr	r2, [r3, #52]	; 0x34
200050e0:	687b      	ldr	r3, [r7, #4]
200050e2:	4013      	ands	r3, r2
200050e4:	60fb      	str	r3, [r7, #12]
  (void)tmpreg;
200050e6:	68fb      	ldr	r3, [r7, #12]
}
200050e8:	bf00      	nop
200050ea:	3714      	adds	r7, #20
200050ec:	46bd      	mov	sp, r7
200050ee:	f85d 7b04 	ldr.w	r7, [sp], #4
200050f2:	4770      	bx	lr
200050f4:	40023800 	.word	0x40023800

200050f8 <LL_APB1_GRP1_EnableClock>:
  *
  *         (*) value not defined in all devices.
  * @retval None
*/
__STATIC_INLINE void LL_APB1_GRP1_EnableClock(uint32_t Periphs)
{
200050f8:	b480      	push	{r7}
200050fa:	b085      	sub	sp, #20
200050fc:	af00      	add	r7, sp, #0
200050fe:	6078      	str	r0, [r7, #4]
  __IO uint32_t tmpreg;
  SET_BIT(RCC->APB1ENR, Periphs);
20005100:	4b08      	ldr	r3, [pc, #32]	; (20005124 <LL_APB1_GRP1_EnableClock+0x2c>)
20005102:	6c1a      	ldr	r2, [r3, #64]	; 0x40
20005104:	4907      	ldr	r1, [pc, #28]	; (20005124 <LL_APB1_GRP1_EnableClock+0x2c>)
20005106:	687b      	ldr	r3, [r7, #4]
20005108:	4313      	orrs	r3, r2
2000510a:	640b      	str	r3, [r1, #64]	; 0x40
  /* Delay after an RCC peripheral clock enabling */
  tmpreg = READ_BIT(RCC->APB1ENR, Periphs);
2000510c:	4b05      	ldr	r3, [pc, #20]	; (20005124 <LL_APB1_GRP1_EnableClock+0x2c>)
2000510e:	6c1a      	ldr	r2, [r3, #64]	; 0x40
20005110:	687b      	ldr	r3, [r7, #4]
20005112:	4013      	ands	r3, r2
20005114:	60fb      	str	r3, [r7, #12]
  (void)tmpreg;
20005116:	68fb      	ldr	r3, [r7, #12]
}
20005118:	bf00      	nop
2000511a:	3714      	adds	r7, #20
2000511c:	46bd      	mov	sp, r7
2000511e:	f85d 7b04 	ldr.w	r7, [sp], #4
20005122:	4770      	bx	lr
20005124:	40023800 	.word	0x40023800

20005128 <LL_APB2_GRP1_EnableClock>:
  *
  *         (*) value not defined in all devices.
  * @retval None
*/
__STATIC_INLINE void LL_APB2_GRP1_EnableClock(uint32_t Periphs)
{
20005128:	b480      	push	{r7}
2000512a:	b085      	sub	sp, #20
2000512c:	af00      	add	r7, sp, #0
2000512e:	6078      	str	r0, [r7, #4]
  __IO uint32_t tmpreg;
  SET_BIT(RCC->APB2ENR, Periphs);
20005130:	4b08      	ldr	r3, [pc, #32]	; (20005154 <LL_APB2_GRP1_EnableClock+0x2c>)
20005132:	6c5a      	ldr	r2, [r3, #68]	; 0x44
20005134:	4907      	ldr	r1, [pc, #28]	; (20005154 <LL_APB2_GRP1_EnableClock+0x2c>)
20005136:	687b      	ldr	r3, [r7, #4]
20005138:	4313      	orrs	r3, r2
2000513a:	644b      	str	r3, [r1, #68]	; 0x44
  /* Delay after an RCC peripheral clock enabling */
  tmpreg = READ_BIT(RCC->APB2ENR, Periphs);
2000513c:	4b05      	ldr	r3, [pc, #20]	; (20005154 <LL_APB2_GRP1_EnableClock+0x2c>)
2000513e:	6c5a      	ldr	r2, [r3, #68]	; 0x44
20005140:	687b      	ldr	r3, [r7, #4]
20005142:	4013      	ands	r3, r2
20005144:	60fb      	str	r3, [r7, #12]
  (void)tmpreg;
20005146:	68fb      	ldr	r3, [r7, #12]
}
20005148:	bf00      	nop
2000514a:	3714      	adds	r7, #20
2000514c:	46bd      	mov	sp, r7
2000514e:	f85d 7b04 	ldr.w	r7, [sp], #4
20005152:	4770      	bx	lr
20005154:	40023800 	.word	0x40023800

20005158 <LL_FLASH_SetLatency>:
  *         @arg @ref LL_FLASH_LATENCY_14
  *         @arg @ref LL_FLASH_LATENCY_15
  * @retval None
  */
__STATIC_INLINE void LL_FLASH_SetLatency(uint32_t Latency)
{
20005158:	b480      	push	{r7}
2000515a:	b083      	sub	sp, #12
2000515c:	af00      	add	r7, sp, #0
2000515e:	6078      	str	r0, [r7, #4]
  MODIFY_REG(FLASH->ACR, FLASH_ACR_LATENCY, Latency);
20005160:	4b06      	ldr	r3, [pc, #24]	; (2000517c <LL_FLASH_SetLatency+0x24>)
20005162:	681b      	ldr	r3, [r3, #0]
20005164:	f023 020f 	bic.w	r2, r3, #15
20005168:	4904      	ldr	r1, [pc, #16]	; (2000517c <LL_FLASH_SetLatency+0x24>)
2000516a:	687b      	ldr	r3, [r7, #4]
2000516c:	4313      	orrs	r3, r2
2000516e:	600b      	str	r3, [r1, #0]
}
20005170:	bf00      	nop
20005172:	370c      	adds	r7, #12
20005174:	46bd      	mov	sp, r7
20005176:	f85d 7b04 	ldr.w	r7, [sp], #4
2000517a:	4770      	bx	lr
2000517c:	40023c00 	.word	0x40023c00

20005180 <LL_FLASH_GetLatency>:
  *         @arg @ref LL_FLASH_LATENCY_13
  *         @arg @ref LL_FLASH_LATENCY_14
  *         @arg @ref LL_FLASH_LATENCY_15
  */
__STATIC_INLINE uint32_t LL_FLASH_GetLatency(void)
{
20005180:	b480      	push	{r7}
20005182:	af00      	add	r7, sp, #0
  return (uint32_t)(READ_BIT(FLASH->ACR, FLASH_ACR_LATENCY));
20005184:	4b04      	ldr	r3, [pc, #16]	; (20005198 <LL_FLASH_GetLatency+0x18>)
20005186:	681b      	ldr	r3, [r3, #0]
20005188:	f003 030f 	and.w	r3, r3, #15
}
2000518c:	4618      	mov	r0, r3
2000518e:	46bd      	mov	sp, r7
20005190:	f85d 7b04 	ldr.w	r7, [sp], #4
20005194:	4770      	bx	lr
20005196:	bf00      	nop
20005198:	40023c00 	.word	0x40023c00

2000519c <LL_PWR_EnableOverDriveMode>:
  * @brief  Enable Over drive Mode
  * @rmtoll CR    ODEN       LL_PWR_EnableOverDriveMode
  * @retval None
  */
__STATIC_INLINE void LL_PWR_EnableOverDriveMode(void)
{
2000519c:	b480      	push	{r7}
2000519e:	af00      	add	r7, sp, #0
  SET_BIT(PWR->CR, PWR_CR_ODEN);
200051a0:	4b05      	ldr	r3, [pc, #20]	; (200051b8 <LL_PWR_EnableOverDriveMode+0x1c>)
200051a2:	681b      	ldr	r3, [r3, #0]
200051a4:	4a04      	ldr	r2, [pc, #16]	; (200051b8 <LL_PWR_EnableOverDriveMode+0x1c>)
200051a6:	f443 3380 	orr.w	r3, r3, #65536	; 0x10000
200051aa:	6013      	str	r3, [r2, #0]
}
200051ac:	bf00      	nop
200051ae:	46bd      	mov	sp, r7
200051b0:	f85d 7b04 	ldr.w	r7, [sp], #4
200051b4:	4770      	bx	lr
200051b6:	bf00      	nop
200051b8:	40007000 	.word	0x40007000

200051bc <LL_PWR_SetRegulVoltageScaling>:
  *         @arg @ref LL_PWR_REGU_VOLTAGE_SCALE3
  *         (*) LL_PWR_REGU_VOLTAGE_SCALE1 is not available for STM32F401xx devices
  * @retval None
  */
__STATIC_INLINE void LL_PWR_SetRegulVoltageScaling(uint32_t VoltageScaling)
{
200051bc:	b480      	push	{r7}
200051be:	b083      	sub	sp, #12
200051c0:	af00      	add	r7, sp, #0
200051c2:	6078      	str	r0, [r7, #4]
  MODIFY_REG(PWR->CR, PWR_CR_VOS, VoltageScaling);
200051c4:	4b06      	ldr	r3, [pc, #24]	; (200051e0 <LL_PWR_SetRegulVoltageScaling+0x24>)
200051c6:	681b      	ldr	r3, [r3, #0]
200051c8:	f423 4240 	bic.w	r2, r3, #49152	; 0xc000
200051cc:	4904      	ldr	r1, [pc, #16]	; (200051e0 <LL_PWR_SetRegulVoltageScaling+0x24>)
200051ce:	687b      	ldr	r3, [r7, #4]
200051d0:	4313      	orrs	r3, r2
200051d2:	600b      	str	r3, [r1, #0]
}
200051d4:	bf00      	nop
200051d6:	370c      	adds	r7, #12
200051d8:	46bd      	mov	sp, r7
200051da:	f85d 7b04 	ldr.w	r7, [sp], #4
200051de:	4770      	bx	lr
200051e0:	40007000 	.word	0x40007000

200051e4 <LL_RNG_Enable>:
  * @rmtoll CR           RNGEN         LL_RNG_Enable
  * @param  RNGx RNG Instance
  * @retval None
  */
__STATIC_INLINE void LL_RNG_Enable(RNG_TypeDef *RNGx)
{
200051e4:	b480      	push	{r7}
200051e6:	b083      	sub	sp, #12
200051e8:	af00      	add	r7, sp, #0
200051ea:	6078      	str	r0, [r7, #4]
  SET_BIT(RNGx->CR, RNG_CR_RNGEN);
200051ec:	687b      	ldr	r3, [r7, #4]
200051ee:	681b      	ldr	r3, [r3, #0]
200051f0:	f043 0204 	orr.w	r2, r3, #4
200051f4:	687b      	ldr	r3, [r7, #4]
200051f6:	601a      	str	r2, [r3, #0]
}
200051f8:	bf00      	nop
200051fa:	370c      	adds	r7, #12
200051fc:	46bd      	mov	sp, r7
200051fe:	f85d 7b04 	ldr.w	r7, [sp], #4
20005202:	4770      	bx	lr

20005204 <LL_SPI_Enable>:
{
20005204:	b480      	push	{r7}
20005206:	b083      	sub	sp, #12
20005208:	af00      	add	r7, sp, #0
2000520a:	6078      	str	r0, [r7, #4]
  SET_BIT(SPIx->CR1, SPI_CR1_SPE);
2000520c:	687b      	ldr	r3, [r7, #4]
2000520e:	681b      	ldr	r3, [r3, #0]
20005210:	f043 0240 	orr.w	r2, r3, #64	; 0x40
20005214:	687b      	ldr	r3, [r7, #4]
20005216:	601a      	str	r2, [r3, #0]
}
20005218:	bf00      	nop
2000521a:	370c      	adds	r7, #12
2000521c:	46bd      	mov	sp, r7
2000521e:	f85d 7b04 	ldr.w	r7, [sp], #4
20005222:	4770      	bx	lr

20005224 <LL_SPI_SetStandard>:
{
20005224:	b480      	push	{r7}
20005226:	b083      	sub	sp, #12
20005228:	af00      	add	r7, sp, #0
2000522a:	6078      	str	r0, [r7, #4]
2000522c:	6039      	str	r1, [r7, #0]
  MODIFY_REG(SPIx->CR2, SPI_CR2_FRF, Standard);
2000522e:	687b      	ldr	r3, [r7, #4]
20005230:	685b      	ldr	r3, [r3, #4]
20005232:	f023 0210 	bic.w	r2, r3, #16
20005236:	683b      	ldr	r3, [r7, #0]
20005238:	431a      	orrs	r2, r3
2000523a:	687b      	ldr	r3, [r7, #4]
2000523c:	605a      	str	r2, [r3, #4]
}
2000523e:	bf00      	nop
20005240:	370c      	adds	r7, #12
20005242:	46bd      	mov	sp, r7
20005244:	f85d 7b04 	ldr.w	r7, [sp], #4
20005248:	4770      	bx	lr

2000524a <LL_SPI_EnableDMAReq_TX>:
{
2000524a:	b480      	push	{r7}
2000524c:	b083      	sub	sp, #12
2000524e:	af00      	add	r7, sp, #0
20005250:	6078      	str	r0, [r7, #4]
  SET_BIT(SPIx->CR2, SPI_CR2_TXDMAEN);
20005252:	687b      	ldr	r3, [r7, #4]
20005254:	685b      	ldr	r3, [r3, #4]
20005256:	f043 0202 	orr.w	r2, r3, #2
2000525a:	687b      	ldr	r3, [r7, #4]
2000525c:	605a      	str	r2, [r3, #4]
}
2000525e:	bf00      	nop
20005260:	370c      	adds	r7, #12
20005262:	46bd      	mov	sp, r7
20005264:	f85d 7b04 	ldr.w	r7, [sp], #4
20005268:	4770      	bx	lr

2000526a <LL_GPIO_SetOutputPin>:
{
2000526a:	b480      	push	{r7}
2000526c:	b083      	sub	sp, #12
2000526e:	af00      	add	r7, sp, #0
20005270:	6078      	str	r0, [r7, #4]
20005272:	6039      	str	r1, [r7, #0]
  WRITE_REG(GPIOx->BSRR, PinMask);
20005274:	687b      	ldr	r3, [r7, #4]
20005276:	683a      	ldr	r2, [r7, #0]
20005278:	619a      	str	r2, [r3, #24]
}
2000527a:	bf00      	nop
2000527c:	370c      	adds	r7, #12
2000527e:	46bd      	mov	sp, r7
20005280:	f85d 7b04 	ldr.w	r7, [sp], #4
20005284:	4770      	bx	lr

20005286 <LL_GPIO_ResetOutputPin>:
{
20005286:	b480      	push	{r7}
20005288:	b083      	sub	sp, #12
2000528a:	af00      	add	r7, sp, #0
2000528c:	6078      	str	r0, [r7, #4]
2000528e:	6039      	str	r1, [r7, #0]
  WRITE_REG(GPIOx->BSRR, (PinMask << 16));
20005290:	683b      	ldr	r3, [r7, #0]
20005292:	041a      	lsls	r2, r3, #16
20005294:	687b      	ldr	r3, [r7, #4]
20005296:	619a      	str	r2, [r3, #24]
}
20005298:	bf00      	nop
2000529a:	370c      	adds	r7, #12
2000529c:	46bd      	mov	sp, r7
2000529e:	f85d 7b04 	ldr.w	r7, [sp], #4
200052a2:	4770      	bx	lr

200052a4 <main>:
/**
  * @brief  The application entry point.
  * @retval int
  */
int main(void)
{
200052a4:	b580      	push	{r7, lr}
200052a6:	af00      	add	r7, sp, #0
  /* USER CODE BEGIN 1 */

	ptr = napis;
200052a8:	4b3c      	ldr	r3, [pc, #240]	; (2000539c <main+0xf8>)
200052aa:	4a3d      	ldr	r2, [pc, #244]	; (200053a0 <main+0xfc>)
200052ac:	601a      	str	r2, [r3, #0]
  /* USER CODE END 1 */

  /* MCU Configuration--------------------------------------------------------*/

  /* Reset of all peripherals, Initializes the Flash interface and the Systick. */
  LL_APB2_GRP1_EnableClock(LL_APB2_GRP1_PERIPH_SYSCFG);
200052ae:	f44f 4080 	mov.w	r0, #16384	; 0x4000
200052b2:	f7ff ff39 	bl	20005128 <LL_APB2_GRP1_EnableClock>
  LL_APB1_GRP1_EnableClock(LL_APB1_GRP1_PERIPH_PWR);
200052b6:	f04f 5080 	mov.w	r0, #268435456	; 0x10000000
200052ba:	f7ff ff1d 	bl	200050f8 <LL_APB1_GRP1_EnableClock>

  /* System interrupt init*/
  NVIC_SetPriorityGrouping(NVIC_PRIORITYGROUP_4);
200052be:	2003      	movs	r0, #3
200052c0:	f7ff fb80 	bl	200049c4 <__NVIC_SetPriorityGrouping>

  /* PendSV_IRQn interrupt configuration */
  NVIC_SetPriority(PendSV_IRQn, NVIC_EncodePriority(NVIC_GetPriorityGrouping(),15, 0));
200052c4:	f7ff fba2 	bl	20004a0c <__NVIC_GetPriorityGrouping>
200052c8:	4603      	mov	r3, r0
200052ca:	2200      	movs	r2, #0
200052cc:	210f      	movs	r1, #15
200052ce:	4618      	mov	r0, r3
200052d0:	f7ff fbf2 	bl	20004ab8 <NVIC_EncodePriority>
200052d4:	4603      	mov	r3, r0
200052d6:	4619      	mov	r1, r3
200052d8:	f06f 0001 	mvn.w	r0, #1
200052dc:	f7ff fbc2 	bl	20004a64 <__NVIC_SetPriority>
  /* SysTick_IRQn interrupt configuration */
  NVIC_SetPriority(SysTick_IRQn, NVIC_EncodePriority(NVIC_GetPriorityGrouping(),15, 0));
200052e0:	f7ff fb94 	bl	20004a0c <__NVIC_GetPriorityGrouping>
200052e4:	4603      	mov	r3, r0
200052e6:	2200      	movs	r2, #0
200052e8:	210f      	movs	r1, #15
200052ea:	4618      	mov	r0, r3
200052ec:	f7ff fbe4 	bl	20004ab8 <NVIC_EncodePriority>
200052f0:	4603      	mov	r3, r0
200052f2:	4619      	mov	r1, r3
200052f4:	f04f 30ff 	mov.w	r0, #4294967295
200052f8:	f7ff fbb4 	bl	20004a64 <__NVIC_SetPriority>
  /* USER CODE BEGIN Init */

  /* USER CODE END Init */

  /* Configure the system clock */
  SystemClock_Config();
200052fc:	f000 f872 	bl	200053e4 <SystemClock_Config>
  /* USER CODE BEGIN SysInit */

  /* USER CODE END SysInit */

  /* Initialize all configured peripherals */
  MX_GPIO_Init();
20005300:	f000 f96a 	bl	200055d8 <MX_GPIO_Init>
  MX_DMA_Init();
20005304:	f000 f950 	bl	200055a8 <MX_DMA_Init>
  MX_RNG_Init();
20005308:	f000 f8be 	bl	20005488 <MX_RNG_Init>
  MX_SPI5_Init();
2000530c:	f000 f8c8 	bl	200054a0 <MX_SPI5_Init>
  /* USER CODE BEGIN 2 */
  LL_DMA_DisableStream(DMA2, LL_DMA_STREAM_4);
20005310:	2104      	movs	r1, #4
20005312:	4824      	ldr	r0, [pc, #144]	; (200053a4 <main+0x100>)
20005314:	f7ff fc04 	bl	20004b20 <LL_DMA_DisableStream>
  LL_DMA_ClearFlag_TC4(DMA2);
20005318:	4822      	ldr	r0, [pc, #136]	; (200053a4 <main+0x100>)
2000531a:	f7ff fd61 	bl	20004de0 <LL_DMA_ClearFlag_TC4>
  LL_DMA_ClearFlag_TE4(DMA2);
2000531e:	4821      	ldr	r0, [pc, #132]	; (200053a4 <main+0x100>)
20005320:	f7ff fd6b 	bl	20004dfa <LL_DMA_ClearFlag_TE4>
  LL_SPI_EnableDMAReq_TX(SPI5);
20005324:	4820      	ldr	r0, [pc, #128]	; (200053a8 <main+0x104>)
20005326:	f7ff ff90 	bl	2000524a <LL_SPI_EnableDMAReq_TX>
  LL_DMA_EnableIT_TC(DMA2, LL_DMA_STREAM_4);
2000532a:	2104      	movs	r1, #4
2000532c:	481d      	ldr	r0, [pc, #116]	; (200053a4 <main+0x100>)
2000532e:	f7ff fd91 	bl	20004e54 <LL_DMA_EnableIT_TC>
  LL_DMA_EnableIT_TE(DMA2, LL_DMA_STREAM_4);
20005332:	2104      	movs	r1, #4
20005334:	481b      	ldr	r0, [pc, #108]	; (200053a4 <main+0x100>)
20005336:	f7ff fd6d 	bl	20004e14 <LL_DMA_EnableIT_TE>
  LL_SPI_Enable(SPI5);
2000533a:	481b      	ldr	r0, [pc, #108]	; (200053a8 <main+0x104>)
2000533c:	f7ff ff62 	bl	20005204 <LL_SPI_Enable>


  /* USER CODE END 2 */

  /* Init scheduler */
  osKernelInitialize();
20005340:	f7fb fbe2 	bl	20000b08 <osKernelInitialize>
  /* add mutexes, ... */
  /* USER CODE END RTOS_MUTEX */

  /* Create the semaphores(s) */
  /* creation of BinarySem01 */
  BinarySem01Handle = osSemaphoreNew(1, 1, &BinarySem01_attributes);
20005344:	4a19      	ldr	r2, [pc, #100]	; (200053ac <main+0x108>)
20005346:	2101      	movs	r1, #1
20005348:	2001      	movs	r0, #1
2000534a:	f7fb fcd4 	bl	20000cf6 <osSemaphoreNew>
2000534e:	4603      	mov	r3, r0
20005350:	4a17      	ldr	r2, [pc, #92]	; (200053b0 <main+0x10c>)
20005352:	6013      	str	r3, [r2, #0]
  /* add queues, ... */
  /* USER CODE END RTOS_QUEUES */

  /* Create the thread(s) */
  /* creation of LCD_Task */
  LCD_TaskHandle = osThreadNew(StartLCDTask, NULL, &LCD_Task_attributes);
20005354:	4a17      	ldr	r2, [pc, #92]	; (200053b4 <main+0x110>)
20005356:	2100      	movs	r1, #0
20005358:	4817      	ldr	r0, [pc, #92]	; (200053b8 <main+0x114>)
2000535a:	f7fb fc1f 	bl	20000b9c <osThreadNew>
2000535e:	4603      	mov	r3, r0
20005360:	4a16      	ldr	r2, [pc, #88]	; (200053bc <main+0x118>)
20005362:	6013      	str	r3, [r2, #0]

  /* creation of myTask04 */
  myTask04Handle = osThreadNew(StartTask04, NULL, &myTask04_attributes);
20005364:	4a16      	ldr	r2, [pc, #88]	; (200053c0 <main+0x11c>)
20005366:	2100      	movs	r1, #0
20005368:	4816      	ldr	r0, [pc, #88]	; (200053c4 <main+0x120>)
2000536a:	f7fb fc17 	bl	20000b9c <osThreadNew>
2000536e:	4603      	mov	r3, r0
20005370:	4a15      	ldr	r2, [pc, #84]	; (200053c8 <main+0x124>)
20005372:	6013      	str	r3, [r2, #0]

  /* creation of myTask05 */
  myTask05Handle = osThreadNew(StartTask05, NULL, &myTask05_attributes);
20005374:	4a15      	ldr	r2, [pc, #84]	; (200053cc <main+0x128>)
20005376:	2100      	movs	r1, #0
20005378:	4815      	ldr	r0, [pc, #84]	; (200053d0 <main+0x12c>)
2000537a:	f7fb fc0f 	bl	20000b9c <osThreadNew>
2000537e:	4603      	mov	r3, r0
20005380:	4a14      	ldr	r2, [pc, #80]	; (200053d4 <main+0x130>)
20005382:	6013      	str	r3, [r2, #0]

  /* creation of LCD_Task_cd */
  LCD_Task_cdHandle = osThreadNew(StartLCDTask_cd, NULL, &LCD_Task_cd_attributes);
20005384:	4a14      	ldr	r2, [pc, #80]	; (200053d8 <main+0x134>)
20005386:	2100      	movs	r1, #0
20005388:	4814      	ldr	r0, [pc, #80]	; (200053dc <main+0x138>)
2000538a:	f7fb fc07 	bl	20000b9c <osThreadNew>
2000538e:	4603      	mov	r3, r0
20005390:	4a13      	ldr	r2, [pc, #76]	; (200053e0 <main+0x13c>)
20005392:	6013      	str	r3, [r2, #0]
  /* USER CODE BEGIN RTOS_EVENTS */
  /* add events, ... */
  /* USER CODE END RTOS_EVENTS */

  /* Start scheduler */
  osKernelStart();
20005394:	f7fb fbdc 	bl	20000b50 <osKernelStart>

  /* We should never get here as control is now taken by the scheduler */
  /* Infinite loop */
  /* USER CODE BEGIN WHILE */
  while (1)
20005398:	e7fe      	b.n	20005398 <main+0xf4>
2000539a:	bf00      	nop
2000539c:	2001f94c 	.word	0x2001f94c
200053a0:	2000a36c 	.word	0x2000a36c
200053a4:	40026400 	.word	0x40026400
200053a8:	40015000 	.word	0x40015000
200053ac:	2000a2c0 	.word	0x2000a2c0
200053b0:	2001f948 	.word	0x2001f948
200053b4:	2000a230 	.word	0x2000a230
200053b8:	20005719 	.word	0x20005719
200053bc:	2001f938 	.word	0x2001f938
200053c0:	2000a254 	.word	0x2000a254
200053c4:	20005771 	.word	0x20005771
200053c8:	2001f93c 	.word	0x2001f93c
200053cc:	2000a278 	.word	0x2000a278
200053d0:	2000588d 	.word	0x2000588d
200053d4:	2001f940 	.word	0x2001f940
200053d8:	2000a29c 	.word	0x2000a29c
200053dc:	200059b5 	.word	0x200059b5
200053e0:	2001f944 	.word	0x2001f944

200053e4 <SystemClock_Config>:
/**
  * @brief System Clock Configuration
  * @retval None
  */
void SystemClock_Config(void)
{
200053e4:	b580      	push	{r7, lr}
200053e6:	af00      	add	r7, sp, #0
  LL_FLASH_SetLatency(LL_FLASH_LATENCY_5);
200053e8:	2005      	movs	r0, #5
200053ea:	f7ff feb5 	bl	20005158 <LL_FLASH_SetLatency>
  while(LL_FLASH_GetLatency()!= LL_FLASH_LATENCY_5)
200053ee:	bf00      	nop
200053f0:	f7ff fec6 	bl	20005180 <LL_FLASH_GetLatency>
200053f4:	4603      	mov	r3, r0
200053f6:	2b05      	cmp	r3, #5
200053f8:	d1fa      	bne.n	200053f0 <SystemClock_Config+0xc>
  {
  }
  LL_PWR_SetRegulVoltageScaling(LL_PWR_REGU_VOLTAGE_SCALE1);
200053fa:	f44f 4040 	mov.w	r0, #49152	; 0xc000
200053fe:	f7ff fedd 	bl	200051bc <LL_PWR_SetRegulVoltageScaling>
  LL_PWR_EnableOverDriveMode();
20005402:	f7ff fecb 	bl	2000519c <LL_PWR_EnableOverDriveMode>
  LL_RCC_HSE_Enable();
20005406:	f7ff fd45 	bl	20004e94 <LL_RCC_HSE_Enable>

   /* Wait till HSE is ready */
  while(LL_RCC_HSE_IsReady() != 1)
2000540a:	bf00      	nop
2000540c:	f7ff fd52 	bl	20004eb4 <LL_RCC_HSE_IsReady>
20005410:	4603      	mov	r3, r0
20005412:	2b01      	cmp	r3, #1
20005414:	d1fa      	bne.n	2000540c <SystemClock_Config+0x28>
  {

  }
  LL_RCC_PLL_ConfigDomain_SYS(LL_RCC_PLLSOURCE_HSE, LL_RCC_PLLM_DIV_4, 180, LL_RCC_PLLP_DIV_2);
20005416:	2300      	movs	r3, #0
20005418:	22b4      	movs	r2, #180	; 0xb4
2000541a:	2104      	movs	r1, #4
2000541c:	f44f 0080 	mov.w	r0, #4194304	; 0x400000
20005420:	f7ff fdf4 	bl	2000500c <LL_RCC_PLL_ConfigDomain_SYS>
  LL_RCC_PLL_ConfigDomain_48M(LL_RCC_PLLSOURCE_HSE, LL_RCC_PLLM_DIV_4, 180, LL_RCC_PLLQ_DIV_8);
20005424:	f04f 6300 	mov.w	r3, #134217728	; 0x8000000
20005428:	22b4      	movs	r2, #180	; 0xb4
2000542a:	2104      	movs	r1, #4
2000542c:	f44f 0080 	mov.w	r0, #4194304	; 0x400000
20005430:	f7ff fe12 	bl	20005058 <LL_RCC_PLL_ConfigDomain_48M>
  LL_RCC_PLL_Enable();
20005434:	f7ff fdc6 	bl	20004fc4 <LL_RCC_PLL_Enable>

   /* Wait till PLL is ready */
  while(LL_RCC_PLL_IsReady() != 1)
20005438:	bf00      	nop
2000543a:	f7ff fdd3 	bl	20004fe4 <LL_RCC_PLL_IsReady>
2000543e:	4603      	mov	r3, r0
20005440:	2b01      	cmp	r3, #1
20005442:	d1fa      	bne.n	2000543a <SystemClock_Config+0x56>
  {

  }
  LL_RCC_SetAHBPrescaler(LL_RCC_SYSCLK_DIV_1);
20005444:	2000      	movs	r0, #0
20005446:	f7ff fd6b 	bl	20004f20 <LL_RCC_SetAHBPrescaler>
  LL_RCC_SetAPB1Prescaler(LL_RCC_APB1_DIV_4);
2000544a:	f44f 50a0 	mov.w	r0, #5120	; 0x1400
2000544e:	f7ff fd7b 	bl	20004f48 <LL_RCC_SetAPB1Prescaler>
  LL_RCC_SetAPB2Prescaler(LL_RCC_APB2_DIV_2);
20005452:	f44f 4000 	mov.w	r0, #32768	; 0x8000
20005456:	f7ff fd8b 	bl	20004f70 <LL_RCC_SetAPB2Prescaler>
  LL_RCC_SetSysClkSource(LL_RCC_SYS_CLKSOURCE_PLL);
2000545a:	2002      	movs	r0, #2
2000545c:	f7ff fd3e 	bl	20004edc <LL_RCC_SetSysClkSource>

   /* Wait till System clock is ready */
  while(LL_RCC_GetSysClkSource() != LL_RCC_SYS_CLKSOURCE_STATUS_PLL)
20005460:	bf00      	nop
20005462:	f7ff fd4f 	bl	20004f04 <LL_RCC_GetSysClkSource>
20005466:	4603      	mov	r3, r0
20005468:	2b08      	cmp	r3, #8
2000546a:	d1fa      	bne.n	20005462 <SystemClock_Config+0x7e>
  {

  }
  LL_Init1msTick(180000000);
2000546c:	4805      	ldr	r0, [pc, #20]	; (20005484 <SystemClock_Config+0xa0>)
2000546e:	f7fb fad3 	bl	20000a18 <LL_Init1msTick>
  LL_SetSystemCoreClock(180000000);
20005472:	4804      	ldr	r0, [pc, #16]	; (20005484 <SystemClock_Config+0xa0>)
20005474:	f7fb fb04 	bl	20000a80 <LL_SetSystemCoreClock>
  LL_RCC_SetTIMPrescaler(LL_RCC_TIM_PRESCALER_TWICE);
20005478:	2000      	movs	r0, #0
2000547a:	f7ff fd8d 	bl	20004f98 <LL_RCC_SetTIMPrescaler>
}
2000547e:	bf00      	nop
20005480:	bd80      	pop	{r7, pc}
20005482:	bf00      	nop
20005484:	0aba9500 	.word	0x0aba9500

20005488 <MX_RNG_Init>:
  * @brief RNG Initialization Function
  * @param None
  * @retval None
  */
static void MX_RNG_Init(void)
{
20005488:	b580      	push	{r7, lr}
2000548a:	af00      	add	r7, sp, #0
  /* USER CODE BEGIN RNG_Init 0 */

  /* USER CODE END RNG_Init 0 */

  /* Peripheral clock enable */
  LL_AHB2_GRP1_EnableClock(LL_AHB2_GRP1_PERIPH_RNG);
2000548c:	2040      	movs	r0, #64	; 0x40
2000548e:	f7ff fe1b 	bl	200050c8 <LL_AHB2_GRP1_EnableClock>

  /* USER CODE BEGIN RNG_Init 1 */

  /* USER CODE END RNG_Init 1 */
  LL_RNG_Enable(RNG);
20005492:	4802      	ldr	r0, [pc, #8]	; (2000549c <MX_RNG_Init+0x14>)
20005494:	f7ff fea6 	bl	200051e4 <LL_RNG_Enable>
  /* USER CODE BEGIN RNG_Init 2 */

  /* USER CODE END RNG_Init 2 */

}
20005498:	bf00      	nop
2000549a:	bd80      	pop	{r7, pc}
2000549c:	50060800 	.word	0x50060800

200054a0 <MX_SPI5_Init>:
  * @brief SPI5 Initialization Function
  * @param None
  * @retval None
  */
static void MX_SPI5_Init(void)
{
200054a0:	b580      	push	{r7, lr}
200054a2:	b090      	sub	sp, #64	; 0x40
200054a4:	af00      	add	r7, sp, #0

  /* USER CODE BEGIN SPI5_Init 0 */

  /* USER CODE END SPI5_Init 0 */

  LL_SPI_InitTypeDef SPI_InitStruct = {0};
200054a6:	f107 0318 	add.w	r3, r7, #24
200054aa:	2228      	movs	r2, #40	; 0x28
200054ac:	2100      	movs	r1, #0
200054ae:	4618      	mov	r0, r3
200054b0:	f000 ff36 	bl	20006320 <memset>

  LL_GPIO_InitTypeDef GPIO_InitStruct = {0};
200054b4:	463b      	mov	r3, r7
200054b6:	2200      	movs	r2, #0
200054b8:	601a      	str	r2, [r3, #0]
200054ba:	605a      	str	r2, [r3, #4]
200054bc:	609a      	str	r2, [r3, #8]
200054be:	60da      	str	r2, [r3, #12]
200054c0:	611a      	str	r2, [r3, #16]
200054c2:	615a      	str	r2, [r3, #20]

  /* Peripheral clock enable */
  LL_APB2_GRP1_EnableClock(LL_APB2_GRP1_PERIPH_SPI5);
200054c4:	f44f 1080 	mov.w	r0, #1048576	; 0x100000
200054c8:	f7ff fe2e 	bl	20005128 <LL_APB2_GRP1_EnableClock>

  LL_AHB1_GRP1_EnableClock(LL_AHB1_GRP1_PERIPH_GPIOF);
200054cc:	2020      	movs	r0, #32
200054ce:	f7ff fde3 	bl	20005098 <LL_AHB1_GRP1_EnableClock>
  /**SPI5 GPIO Configuration
  PF7   ------> SPI5_SCK
  PF8   ------> SPI5_MISO
  PF9   ------> SPI5_MOSI
  */
  GPIO_InitStruct.Pin = LL_GPIO_PIN_7|LL_GPIO_PIN_8|LL_GPIO_PIN_9;
200054d2:	f44f 7360 	mov.w	r3, #896	; 0x380
200054d6:	603b      	str	r3, [r7, #0]
  GPIO_InitStruct.Mode = LL_GPIO_MODE_ALTERNATE;
200054d8:	2302      	movs	r3, #2
200054da:	607b      	str	r3, [r7, #4]
  GPIO_InitStruct.Speed = LL_GPIO_SPEED_FREQ_VERY_HIGH;
200054dc:	2303      	movs	r3, #3
200054de:	60bb      	str	r3, [r7, #8]
  GPIO_InitStruct.OutputType = LL_GPIO_OUTPUT_PUSHPULL;
200054e0:	2300      	movs	r3, #0
200054e2:	60fb      	str	r3, [r7, #12]
  GPIO_InitStruct.Pull = LL_GPIO_PULL_NO;
200054e4:	2300      	movs	r3, #0
200054e6:	613b      	str	r3, [r7, #16]
  GPIO_InitStruct.Alternate = LL_GPIO_AF_5;
200054e8:	2305      	movs	r3, #5
200054ea:	617b      	str	r3, [r7, #20]
  LL_GPIO_Init(GPIOF, &GPIO_InitStruct);
200054ec:	463b      	mov	r3, r7
200054ee:	4619      	mov	r1, r3
200054f0:	482a      	ldr	r0, [pc, #168]	; (2000559c <MX_SPI5_Init+0xfc>)
200054f2:	f7fb f98e 	bl	20000812 <LL_GPIO_Init>

  /* SPI5 DMA Init */

  /* SPI5_TX Init */
  LL_DMA_SetChannelSelection(DMA2, LL_DMA_STREAM_4, LL_DMA_CHANNEL_2);
200054f6:	f04f 6280 	mov.w	r2, #67108864	; 0x4000000
200054fa:	2104      	movs	r1, #4
200054fc:	4828      	ldr	r0, [pc, #160]	; (200055a0 <MX_SPI5_Init+0x100>)
200054fe:	f7ff fc2b 	bl	20004d58 <LL_DMA_SetChannelSelection>

  LL_DMA_SetDataTransferDirection(DMA2, LL_DMA_STREAM_4, LL_DMA_DIRECTION_MEMORY_TO_PERIPH);
20005502:	2240      	movs	r2, #64	; 0x40
20005504:	2104      	movs	r1, #4
20005506:	4826      	ldr	r0, [pc, #152]	; (200055a0 <MX_SPI5_Init+0x100>)
20005508:	f7ff fb2a 	bl	20004b60 <LL_DMA_SetDataTransferDirection>

  LL_DMA_SetStreamPriorityLevel(DMA2, LL_DMA_STREAM_4, LL_DMA_PRIORITY_LOW);
2000550c:	2200      	movs	r2, #0
2000550e:	2104      	movs	r1, #4
20005510:	4823      	ldr	r0, [pc, #140]	; (200055a0 <MX_SPI5_Init+0x100>)
20005512:	f7ff fbfd 	bl	20004d10 <LL_DMA_SetStreamPriorityLevel>

  LL_DMA_SetMode(DMA2, LL_DMA_STREAM_4, LL_DMA_MODE_CIRCULAR);
20005516:	f44f 7280 	mov.w	r2, #256	; 0x100
2000551a:	2104      	movs	r1, #4
2000551c:	4820      	ldr	r0, [pc, #128]	; (200055a0 <MX_SPI5_Init+0x100>)
2000551e:	f7ff fb43 	bl	20004ba8 <LL_DMA_SetMode>

  LL_DMA_SetPeriphIncMode(DMA2, LL_DMA_STREAM_4, LL_DMA_PERIPH_NOINCREMENT);
20005522:	2200      	movs	r2, #0
20005524:	2104      	movs	r1, #4
20005526:	481e      	ldr	r0, [pc, #120]	; (200055a0 <MX_SPI5_Init+0x100>)
20005528:	f7ff fb62 	bl	20004bf0 <LL_DMA_SetPeriphIncMode>

  LL_DMA_SetMemoryIncMode(DMA2, LL_DMA_STREAM_4, LL_DMA_MEMORY_INCREMENT);
2000552c:	f44f 6280 	mov.w	r2, #1024	; 0x400
20005530:	2104      	movs	r1, #4
20005532:	481b      	ldr	r0, [pc, #108]	; (200055a0 <MX_SPI5_Init+0x100>)
20005534:	f7ff fb80 	bl	20004c38 <LL_DMA_SetMemoryIncMode>

  LL_DMA_SetPeriphSize(DMA2, LL_DMA_STREAM_4, LL_DMA_PDATAALIGN_BYTE);
20005538:	2200      	movs	r2, #0
2000553a:	2104      	movs	r1, #4
2000553c:	4818      	ldr	r0, [pc, #96]	; (200055a0 <MX_SPI5_Init+0x100>)
2000553e:	f7ff fb9f 	bl	20004c80 <LL_DMA_SetPeriphSize>

  LL_DMA_SetMemorySize(DMA2, LL_DMA_STREAM_4, LL_DMA_MDATAALIGN_BYTE);
20005542:	2200      	movs	r2, #0
20005544:	2104      	movs	r1, #4
20005546:	4816      	ldr	r0, [pc, #88]	; (200055a0 <MX_SPI5_Init+0x100>)
20005548:	f7ff fbbe 	bl	20004cc8 <LL_DMA_SetMemorySize>

  LL_DMA_DisableFifoMode(DMA2, LL_DMA_STREAM_4);
2000554c:	2104      	movs	r1, #4
2000554e:	4814      	ldr	r0, [pc, #80]	; (200055a0 <MX_SPI5_Init+0x100>)
20005550:	f7ff fc26 	bl	20004da0 <LL_DMA_DisableFifoMode>

  /* USER CODE BEGIN SPI5_Init 1 */

  /* USER CODE END SPI5_Init 1 */
  /* SPI5 parameter configuration*/
  SPI_InitStruct.TransferDirection = LL_SPI_FULL_DUPLEX;
20005554:	2300      	movs	r3, #0
20005556:	61bb      	str	r3, [r7, #24]
  SPI_InitStruct.Mode = LL_SPI_MODE_MASTER;
20005558:	f44f 7382 	mov.w	r3, #260	; 0x104
2000555c:	61fb      	str	r3, [r7, #28]
  SPI_InitStruct.DataWidth = LL_SPI_DATAWIDTH_8BIT;
2000555e:	2300      	movs	r3, #0
20005560:	623b      	str	r3, [r7, #32]
  SPI_InitStruct.ClockPolarity = LL_SPI_POLARITY_LOW;
20005562:	2300      	movs	r3, #0
20005564:	627b      	str	r3, [r7, #36]	; 0x24
  SPI_InitStruct.ClockPhase = LL_SPI_PHASE_1EDGE;
20005566:	2300      	movs	r3, #0
20005568:	62bb      	str	r3, [r7, #40]	; 0x28
  SPI_InitStruct.NSS = LL_SPI_NSS_SOFT;
2000556a:	f44f 7300 	mov.w	r3, #512	; 0x200
2000556e:	62fb      	str	r3, [r7, #44]	; 0x2c
  SPI_InitStruct.BaudRate = LL_SPI_BAUDRATEPRESCALER_DIV2;
20005570:	2300      	movs	r3, #0
20005572:	633b      	str	r3, [r7, #48]	; 0x30
  SPI_InitStruct.BitOrder = LL_SPI_MSB_FIRST;
20005574:	2300      	movs	r3, #0
20005576:	637b      	str	r3, [r7, #52]	; 0x34
  SPI_InitStruct.CRCCalculation = LL_SPI_CRCCALCULATION_DISABLE;
20005578:	2300      	movs	r3, #0
2000557a:	63bb      	str	r3, [r7, #56]	; 0x38
  SPI_InitStruct.CRCPoly = 10;
2000557c:	230a      	movs	r3, #10
2000557e:	63fb      	str	r3, [r7, #60]	; 0x3c
  LL_SPI_Init(SPI5, &SPI_InitStruct);
20005580:	f107 0318 	add.w	r3, r7, #24
20005584:	4619      	mov	r1, r3
20005586:	4807      	ldr	r0, [pc, #28]	; (200055a4 <MX_SPI5_Init+0x104>)
20005588:	f7fb f9d9 	bl	2000093e <LL_SPI_Init>
  LL_SPI_SetStandard(SPI5, LL_SPI_PROTOCOL_MOTOROLA);
2000558c:	2100      	movs	r1, #0
2000558e:	4805      	ldr	r0, [pc, #20]	; (200055a4 <MX_SPI5_Init+0x104>)
20005590:	f7ff fe48 	bl	20005224 <LL_SPI_SetStandard>
  /* USER CODE BEGIN SPI5_Init 2 */

  /* USER CODE END SPI5_Init 2 */

}
20005594:	bf00      	nop
20005596:	3740      	adds	r7, #64	; 0x40
20005598:	46bd      	mov	sp, r7
2000559a:	bd80      	pop	{r7, pc}
2000559c:	40021400 	.word	0x40021400
200055a0:	40026400 	.word	0x40026400
200055a4:	40015000 	.word	0x40015000

200055a8 <MX_DMA_Init>:

/**
  * Enable DMA controller clock
  */
static void MX_DMA_Init(void)
{
200055a8:	b580      	push	{r7, lr}
200055aa:	af00      	add	r7, sp, #0

  /* Init with LL driver */
  /* DMA controller clock enable */
  LL_AHB1_GRP1_EnableClock(LL_AHB1_GRP1_PERIPH_DMA2);
200055ac:	f44f 0080 	mov.w	r0, #4194304	; 0x400000
200055b0:	f7ff fd72 	bl	20005098 <LL_AHB1_GRP1_EnableClock>

  /* DMA interrupt init */
  /* DMA2_Stream4_IRQn interrupt configuration */
  NVIC_SetPriority(DMA2_Stream4_IRQn, NVIC_EncodePriority(NVIC_GetPriorityGrouping(),5, 0));
200055b4:	f7ff fa2a 	bl	20004a0c <__NVIC_GetPriorityGrouping>
200055b8:	4603      	mov	r3, r0
200055ba:	2200      	movs	r2, #0
200055bc:	2105      	movs	r1, #5
200055be:	4618      	mov	r0, r3
200055c0:	f7ff fa7a 	bl	20004ab8 <NVIC_EncodePriority>
200055c4:	4603      	mov	r3, r0
200055c6:	4619      	mov	r1, r3
200055c8:	203c      	movs	r0, #60	; 0x3c
200055ca:	f7ff fa4b 	bl	20004a64 <__NVIC_SetPriority>
  NVIC_EnableIRQ(DMA2_Stream4_IRQn);
200055ce:	203c      	movs	r0, #60	; 0x3c
200055d0:	f7ff fa2a 	bl	20004a28 <__NVIC_EnableIRQ>

}
200055d4:	bf00      	nop
200055d6:	bd80      	pop	{r7, pc}

200055d8 <MX_GPIO_Init>:
  * @brief GPIO Initialization Function
  * @param None
  * @retval None
  */
static void MX_GPIO_Init(void)
{
200055d8:	b580      	push	{r7, lr}
200055da:	b086      	sub	sp, #24
200055dc:	af00      	add	r7, sp, #0
  LL_GPIO_InitTypeDef GPIO_InitStruct = {0};
200055de:	463b      	mov	r3, r7
200055e0:	2200      	movs	r2, #0
200055e2:	601a      	str	r2, [r3, #0]
200055e4:	605a      	str	r2, [r3, #4]
200055e6:	609a      	str	r2, [r3, #8]
200055e8:	60da      	str	r2, [r3, #12]
200055ea:	611a      	str	r2, [r3, #16]
200055ec:	615a      	str	r2, [r3, #20]

  /* GPIO Ports Clock Enable */
  LL_AHB1_GRP1_EnableClock(LL_AHB1_GRP1_PERIPH_GPIOC);
200055ee:	2004      	movs	r0, #4
200055f0:	f7ff fd52 	bl	20005098 <LL_AHB1_GRP1_EnableClock>
  LL_AHB1_GRP1_EnableClock(LL_AHB1_GRP1_PERIPH_GPIOF);
200055f4:	2020      	movs	r0, #32
200055f6:	f7ff fd4f 	bl	20005098 <LL_AHB1_GRP1_EnableClock>
  LL_AHB1_GRP1_EnableClock(LL_AHB1_GRP1_PERIPH_GPIOH);
200055fa:	2080      	movs	r0, #128	; 0x80
200055fc:	f7ff fd4c 	bl	20005098 <LL_AHB1_GRP1_EnableClock>
  LL_AHB1_GRP1_EnableClock(LL_AHB1_GRP1_PERIPH_GPIOA);
20005600:	2001      	movs	r0, #1
20005602:	f7ff fd49 	bl	20005098 <LL_AHB1_GRP1_EnableClock>
  LL_AHB1_GRP1_EnableClock(LL_AHB1_GRP1_PERIPH_GPIOD);
20005606:	2008      	movs	r0, #8
20005608:	f7ff fd46 	bl	20005098 <LL_AHB1_GRP1_EnableClock>
  LL_AHB1_GRP1_EnableClock(LL_AHB1_GRP1_PERIPH_GPIOG);
2000560c:	2040      	movs	r0, #64	; 0x40
2000560e:	f7ff fd43 	bl	20005098 <LL_AHB1_GRP1_EnableClock>

  /**/
  LL_GPIO_ResetOutputPin(GPIOC, LL_GPIO_PIN_2);
20005612:	2104      	movs	r1, #4
20005614:	482b      	ldr	r0, [pc, #172]	; (200056c4 <MX_GPIO_Init+0xec>)
20005616:	f7ff fe36 	bl	20005286 <LL_GPIO_ResetOutputPin>

  /**/
  LL_GPIO_ResetOutputPin(GPIOD, LL_GPIO_PIN_12|LL_GPIO_PIN_13);
2000561a:	f44f 5140 	mov.w	r1, #12288	; 0x3000
2000561e:	482a      	ldr	r0, [pc, #168]	; (200056c8 <MX_GPIO_Init+0xf0>)
20005620:	f7ff fe31 	bl	20005286 <LL_GPIO_ResetOutputPin>

  /**/
  LL_GPIO_ResetOutputPin(GPIOG, LL_GPIO_PIN_13|LL_GPIO_PIN_14);
20005624:	f44f 41c0 	mov.w	r1, #24576	; 0x6000
20005628:	4828      	ldr	r0, [pc, #160]	; (200056cc <MX_GPIO_Init+0xf4>)
2000562a:	f7ff fe2c 	bl	20005286 <LL_GPIO_ResetOutputPin>

  /**/
  GPIO_InitStruct.Pin = LL_GPIO_PIN_13|LL_GPIO_PIN_11|LL_GPIO_PIN_12;
2000562e:	f44f 5360 	mov.w	r3, #14336	; 0x3800
20005632:	603b      	str	r3, [r7, #0]
  GPIO_InitStruct.Mode = LL_GPIO_MODE_INPUT;
20005634:	2300      	movs	r3, #0
20005636:	607b      	str	r3, [r7, #4]
  GPIO_InitStruct.Pull = LL_GPIO_PULL_UP;
20005638:	2301      	movs	r3, #1
2000563a:	613b      	str	r3, [r7, #16]
  LL_GPIO_Init(GPIOC, &GPIO_InitStruct);
2000563c:	463b      	mov	r3, r7
2000563e:	4619      	mov	r1, r3
20005640:	4820      	ldr	r0, [pc, #128]	; (200056c4 <MX_GPIO_Init+0xec>)
20005642:	f7fb f8e6 	bl	20000812 <LL_GPIO_Init>

  /**/
  GPIO_InitStruct.Pin = LL_GPIO_PIN_2;
20005646:	2304      	movs	r3, #4
20005648:	603b      	str	r3, [r7, #0]
  GPIO_InitStruct.Mode = LL_GPIO_MODE_OUTPUT;
2000564a:	2301      	movs	r3, #1
2000564c:	607b      	str	r3, [r7, #4]
  GPIO_InitStruct.Speed = LL_GPIO_SPEED_FREQ_VERY_HIGH;
2000564e:	2303      	movs	r3, #3
20005650:	60bb      	str	r3, [r7, #8]
  GPIO_InitStruct.OutputType = LL_GPIO_OUTPUT_PUSHPULL;
20005652:	2300      	movs	r3, #0
20005654:	60fb      	str	r3, [r7, #12]
  GPIO_InitStruct.Pull = LL_GPIO_PULL_NO;
20005656:	2300      	movs	r3, #0
20005658:	613b      	str	r3, [r7, #16]
  LL_GPIO_Init(GPIOC, &GPIO_InitStruct);
2000565a:	463b      	mov	r3, r7
2000565c:	4619      	mov	r1, r3
2000565e:	4819      	ldr	r0, [pc, #100]	; (200056c4 <MX_GPIO_Init+0xec>)
20005660:	f7fb f8d7 	bl	20000812 <LL_GPIO_Init>

  /**/
  GPIO_InitStruct.Pin = LL_GPIO_PIN_0;
20005664:	2301      	movs	r3, #1
20005666:	603b      	str	r3, [r7, #0]
  GPIO_InitStruct.Mode = LL_GPIO_MODE_INPUT;
20005668:	2300      	movs	r3, #0
2000566a:	607b      	str	r3, [r7, #4]
  GPIO_InitStruct.Pull = LL_GPIO_PULL_NO;
2000566c:	2300      	movs	r3, #0
2000566e:	613b      	str	r3, [r7, #16]
  LL_GPIO_Init(GPIOA, &GPIO_InitStruct);
20005670:	463b      	mov	r3, r7
20005672:	4619      	mov	r1, r3
20005674:	4816      	ldr	r0, [pc, #88]	; (200056d0 <MX_GPIO_Init+0xf8>)
20005676:	f7fb f8cc 	bl	20000812 <LL_GPIO_Init>

  /**/
  GPIO_InitStruct.Pin = LL_GPIO_PIN_12|LL_GPIO_PIN_13;
2000567a:	f44f 5340 	mov.w	r3, #12288	; 0x3000
2000567e:	603b      	str	r3, [r7, #0]
  GPIO_InitStruct.Mode = LL_GPIO_MODE_OUTPUT;
20005680:	2301      	movs	r3, #1
20005682:	607b      	str	r3, [r7, #4]
  GPIO_InitStruct.Speed = LL_GPIO_SPEED_FREQ_VERY_HIGH;
20005684:	2303      	movs	r3, #3
20005686:	60bb      	str	r3, [r7, #8]
  GPIO_InitStruct.OutputType = LL_GPIO_OUTPUT_PUSHPULL;
20005688:	2300      	movs	r3, #0
2000568a:	60fb      	str	r3, [r7, #12]
  GPIO_InitStruct.Pull = LL_GPIO_PULL_NO;
2000568c:	2300      	movs	r3, #0
2000568e:	613b      	str	r3, [r7, #16]
  LL_GPIO_Init(GPIOD, &GPIO_InitStruct);
20005690:	463b      	mov	r3, r7
20005692:	4619      	mov	r1, r3
20005694:	480c      	ldr	r0, [pc, #48]	; (200056c8 <MX_GPIO_Init+0xf0>)
20005696:	f7fb f8bc 	bl	20000812 <LL_GPIO_Init>

  /**/
  GPIO_InitStruct.Pin = LL_GPIO_PIN_13|LL_GPIO_PIN_14;
2000569a:	f44f 43c0 	mov.w	r3, #24576	; 0x6000
2000569e:	603b      	str	r3, [r7, #0]
  GPIO_InitStruct.Mode = LL_GPIO_MODE_OUTPUT;
200056a0:	2301      	movs	r3, #1
200056a2:	607b      	str	r3, [r7, #4]
  GPIO_InitStruct.Speed = LL_GPIO_SPEED_FREQ_LOW;
200056a4:	2300      	movs	r3, #0
200056a6:	60bb      	str	r3, [r7, #8]
  GPIO_InitStruct.OutputType = LL_GPIO_OUTPUT_PUSHPULL;
200056a8:	2300      	movs	r3, #0
200056aa:	60fb      	str	r3, [r7, #12]
  GPIO_InitStruct.Pull = LL_GPIO_PULL_NO;
200056ac:	2300      	movs	r3, #0
200056ae:	613b      	str	r3, [r7, #16]
  LL_GPIO_Init(GPIOG, &GPIO_InitStruct);
200056b0:	463b      	mov	r3, r7
200056b2:	4619      	mov	r1, r3
200056b4:	4805      	ldr	r0, [pc, #20]	; (200056cc <MX_GPIO_Init+0xf4>)
200056b6:	f7fb f8ac 	bl	20000812 <LL_GPIO_Init>

}
200056ba:	bf00      	nop
200056bc:	3718      	adds	r7, #24
200056be:	46bd      	mov	sp, r7
200056c0:	bd80      	pop	{r7, pc}
200056c2:	bf00      	nop
200056c4:	40020800 	.word	0x40020800
200056c8:	40020c00 	.word	0x40020c00
200056cc:	40021800 	.word	0x40021800
200056d0:	40020000 	.word	0x40020000

200056d4 <DMA1_Stream4_TransferComplete>:

/* USER CODE BEGIN 4 */
void DMA1_Stream4_TransferComplete(void)
{
200056d4:	b580      	push	{r7, lr}
200056d6:	af00      	add	r7, sp, #0
  LL_DMA_ClearFlag_TC4(DMA2);
200056d8:	480c      	ldr	r0, [pc, #48]	; (2000570c <DMA1_Stream4_TransferComplete+0x38>)
200056da:	f7ff fb81 	bl	20004de0 <LL_DMA_ClearFlag_TC4>
  DmaSpiCnt--;
200056de:	4b0c      	ldr	r3, [pc, #48]	; (20005710 <DMA1_Stream4_TransferComplete+0x3c>)
200056e0:	781b      	ldrb	r3, [r3, #0]
200056e2:	3b01      	subs	r3, #1
200056e4:	b2da      	uxtb	r2, r3
200056e6:	4b0a      	ldr	r3, [pc, #40]	; (20005710 <DMA1_Stream4_TransferComplete+0x3c>)
200056e8:	701a      	strb	r2, [r3, #0]

  if(DmaSpiCnt == 0)
200056ea:	4b09      	ldr	r3, [pc, #36]	; (20005710 <DMA1_Stream4_TransferComplete+0x3c>)
200056ec:	781b      	ldrb	r3, [r3, #0]
200056ee:	2b00      	cmp	r3, #0
200056f0:	d10a      	bne.n	20005708 <DMA1_Stream4_TransferComplete+0x34>
  {
    LL_DMA_DisableStream(DMA2, LL_DMA_STREAM_4);
200056f2:	2104      	movs	r1, #4
200056f4:	4805      	ldr	r0, [pc, #20]	; (2000570c <DMA1_Stream4_TransferComplete+0x38>)
200056f6:	f7ff fa13 	bl	20004b20 <LL_DMA_DisableStream>
    DmaSpiCnt=1;
200056fa:	4b05      	ldr	r3, [pc, #20]	; (20005710 <DMA1_Stream4_TransferComplete+0x3c>)
200056fc:	2201      	movs	r2, #1
200056fe:	701a      	strb	r2, [r3, #0]
    CS_DESELECT();
20005700:	2104      	movs	r1, #4
20005702:	4804      	ldr	r0, [pc, #16]	; (20005714 <DMA1_Stream4_TransferComplete+0x40>)
20005704:	f7ff fdb1 	bl	2000526a <LL_GPIO_SetOutputPin>
  }
}
20005708:	bf00      	nop
2000570a:	bd80      	pop	{r7, pc}
2000570c:	40026400 	.word	0x40026400
20005710:	2000a368 	.word	0x2000a368
20005714:	40020800 	.word	0x40020800

20005718 <StartLCDTask>:
  * @param  argument: Not used
  * @retval None
  */
/* USER CODE END Header_StartLCDTask */
void StartLCDTask(void *argument)
{
20005718:	b580      	push	{r7, lr}
2000571a:	b084      	sub	sp, #16
2000571c:	af02      	add	r7, sp, #8
2000571e:	6078      	str	r0, [r7, #4]
  /* USER CODE BEGIN 5 */
	TFTDisplay_ILI9341_Initialization(240, 320);
20005720:	f44f 71a0 	mov.w	r1, #320	; 0x140
20005724:	20f0      	movs	r0, #240	; 0xf0
20005726:	f7fe fa09 	bl	20003b3c <TFTDisplay_ILI9341_Initialization>
    TFTDisplay_ILI9341_SetRotation(2);
2000572a:	2002      	movs	r0, #2
2000572c:	f7fe fd9a 	bl	20004264 <TFTDisplay_ILI9341_SetRotation>
    led_inited = true;
20005730:	4b0c      	ldr	r3, [pc, #48]	; (20005764 <StartLCDTask+0x4c>)
20005732:	2201      	movs	r2, #1
20005734:	701a      	strb	r2, [r3, #0]


	  TFTDisplay_ILI9341_DrawLine(0, 20, 240, 20, TFT_COLOR_ILI9341_RED);
20005736:	f44f 4378 	mov.w	r3, #63488	; 0xf800
2000573a:	9300      	str	r3, [sp, #0]
2000573c:	2314      	movs	r3, #20
2000573e:	22f0      	movs	r2, #240	; 0xf0
20005740:	2114      	movs	r1, #20
20005742:	2000      	movs	r0, #0
20005744:	f7fe fb44 	bl	20003dd0 <TFTDisplay_ILI9341_DrawLine>


	while(!(GPIOA -> IDR & 0x0001)) //sprawdzanie klawisza pod PA0
20005748:	e002      	b.n	20005750 <StartLCDTask+0x38>
	{
		osDelay(2);					//aby nie blokowa innych taskw
2000574a:	2002      	movs	r0, #2
2000574c:	f7fb fab8 	bl	20000cc0 <osDelay>
	while(!(GPIOA -> IDR & 0x0001)) //sprawdzanie klawisza pod PA0
20005750:	4b05      	ldr	r3, [pc, #20]	; (20005768 <StartLCDTask+0x50>)
20005752:	691b      	ldr	r3, [r3, #16]
20005754:	f003 0301 	and.w	r3, r3, #1
20005758:	2b00      	cmp	r3, #0
2000575a:	d0f6      	beq.n	2000574a <StartLCDTask+0x32>
//			  Draw_info((int)in4.output * 10, (int)pid.expected * 10, true);
//		TFTDisplay_ILI9341_FillRect(2, 71, 230, 140, 0x001F);
//		osDelay(100);
//		TFTDisplay_ILI9341_DrawLine(2, 71, 230, 140, 0x001F);

		osDelay(100);
2000575c:	2064      	movs	r0, #100	; 0x64
2000575e:	f7fb faaf 	bl	20000cc0 <osDelay>
20005762:	e7fb      	b.n	2000575c <StartLCDTask+0x44>
20005764:	2000ee20 	.word	0x2000ee20
20005768:	40020000 	.word	0x40020000
2000576c:	00000000 	.word	0x00000000

20005770 <StartTask04>:
* @param argument: Not used
* @retval None
*/
/* USER CODE END Header_StartTask04 */
void StartTask04(void *argument)
{
20005770:	b580      	push	{r7, lr}
20005772:	b082      	sub	sp, #8
20005774:	af00      	add	r7, sp, #0
20005776:	6078      	str	r0, [r7, #4]
  /* USER CODE BEGIN StartTask04 */

  /* Infinite loop */
  for(;;)
  {
	    if(!(GPIOC -> IDR & 0x0800)){
20005778:	4b41      	ldr	r3, [pc, #260]	; (20005880 <StartTask04+0x110>)
2000577a:	691b      	ldr	r3, [r3, #16]
2000577c:	f403 6300 	and.w	r3, r3, #2048	; 0x800
20005780:	2b00      	cmp	r3, #0
20005782:	d131      	bne.n	200057e8 <StartTask04+0x78>
	    	if(pid.expected < 50){
20005784:	4b3f      	ldr	r3, [pc, #252]	; (20005884 <StartTask04+0x114>)
20005786:	edd3 7a07 	vldr	s15, [r3, #28]
2000578a:	ed9f 7a3f 	vldr	s14, [pc, #252]	; 20005888 <StartTask04+0x118>
2000578e:	eef4 7ac7 	vcmpe.f32	s15, s14
20005792:	eef1 fa10 	vmrs	APSR_nzcv, fpscr
20005796:	d51f      	bpl.n	200057d8 <StartTask04+0x68>
	    		pid.expected += 0.1;
20005798:	4b3a      	ldr	r3, [pc, #232]	; (20005884 <StartTask04+0x114>)
2000579a:	69db      	ldr	r3, [r3, #28]
2000579c:	4618      	mov	r0, r3
2000579e:	f7fa fe8b 	bl	200004b8 <__aeabi_f2d>
200057a2:	a335      	add	r3, pc, #212	; (adr r3, 20005878 <StartTask04+0x108>)
200057a4:	e9d3 2300 	ldrd	r2, r3, [r3]
200057a8:	f7fa fd28 	bl	200001fc <__adddf3>
200057ac:	4602      	mov	r2, r0
200057ae:	460b      	mov	r3, r1
200057b0:	4610      	mov	r0, r2
200057b2:	4619      	mov	r1, r3
200057b4:	f7fa fed8 	bl	20000568 <__aeabi_d2f>
200057b8:	4603      	mov	r3, r0
200057ba:	4a32      	ldr	r2, [pc, #200]	; (20005884 <StartTask04+0x114>)
200057bc:	61d3      	str	r3, [r2, #28]
	    		pid.expected_i = (int)(10 * pid.expected);
200057be:	4b31      	ldr	r3, [pc, #196]	; (20005884 <StartTask04+0x114>)
200057c0:	edd3 7a07 	vldr	s15, [r3, #28]
200057c4:	eeb2 7a04 	vmov.f32	s14, #36	; 0x41200000  10.0
200057c8:	ee67 7a87 	vmul.f32	s15, s15, s14
200057cc:	eefd 7ae7 	vcvt.s32.f32	s15, s15
200057d0:	ee17 2a90 	vmov	r2, s15
200057d4:	4b2b      	ldr	r3, [pc, #172]	; (20005884 <StartTask04+0x114>)
200057d6:	625a      	str	r2, [r3, #36]	; 0x24
	    	}
	        TFTDisplay_ILI9341_DrawChar(100, 150, 0x31);
200057d8:	2231      	movs	r2, #49	; 0x31
200057da:	2196      	movs	r1, #150	; 0x96
200057dc:	2064      	movs	r0, #100	; 0x64
200057de:	f7fe fc43 	bl	20004068 <TFTDisplay_ILI9341_DrawChar>
	        osDelay(40);
200057e2:	2028      	movs	r0, #40	; 0x28
200057e4:	f7fb fa6c 	bl	20000cc0 <osDelay>
	    }
	    if(!(GPIOC -> IDR & 0x1000)){
200057e8:	4b25      	ldr	r3, [pc, #148]	; (20005880 <StartTask04+0x110>)
200057ea:	691b      	ldr	r3, [r3, #16]
200057ec:	f403 5380 	and.w	r3, r3, #4096	; 0x1000
200057f0:	2b00      	cmp	r3, #0
200057f2:	d12f      	bne.n	20005854 <StartTask04+0xe4>
	    	if(pid.expected >0){
200057f4:	4b23      	ldr	r3, [pc, #140]	; (20005884 <StartTask04+0x114>)
200057f6:	edd3 7a07 	vldr	s15, [r3, #28]
200057fa:	eef5 7ac0 	vcmpe.f32	s15, #0.0
200057fe:	eef1 fa10 	vmrs	APSR_nzcv, fpscr
20005802:	dd1f      	ble.n	20005844 <StartTask04+0xd4>
	    		pid.expected -= 0.1;
20005804:	4b1f      	ldr	r3, [pc, #124]	; (20005884 <StartTask04+0x114>)
20005806:	69db      	ldr	r3, [r3, #28]
20005808:	4618      	mov	r0, r3
2000580a:	f7fa fe55 	bl	200004b8 <__aeabi_f2d>
2000580e:	a31a      	add	r3, pc, #104	; (adr r3, 20005878 <StartTask04+0x108>)
20005810:	e9d3 2300 	ldrd	r2, r3, [r3]
20005814:	f7fa fcf0 	bl	200001f8 <__aeabi_dsub>
20005818:	4602      	mov	r2, r0
2000581a:	460b      	mov	r3, r1
2000581c:	4610      	mov	r0, r2
2000581e:	4619      	mov	r1, r3
20005820:	f7fa fea2 	bl	20000568 <__aeabi_d2f>
20005824:	4603      	mov	r3, r0
20005826:	4a17      	ldr	r2, [pc, #92]	; (20005884 <StartTask04+0x114>)
20005828:	61d3      	str	r3, [r2, #28]
	    		pid.expected_i = (int)(10 * pid.expected);
2000582a:	4b16      	ldr	r3, [pc, #88]	; (20005884 <StartTask04+0x114>)
2000582c:	edd3 7a07 	vldr	s15, [r3, #28]
20005830:	eeb2 7a04 	vmov.f32	s14, #36	; 0x41200000  10.0
20005834:	ee67 7a87 	vmul.f32	s15, s15, s14
20005838:	eefd 7ae7 	vcvt.s32.f32	s15, s15
2000583c:	ee17 2a90 	vmov	r2, s15
20005840:	4b10      	ldr	r3, [pc, #64]	; (20005884 <StartTask04+0x114>)
20005842:	625a      	str	r2, [r3, #36]	; 0x24
	    	}

	        TFTDisplay_ILI9341_DrawChar(100, 150, 0x32);
20005844:	2232      	movs	r2, #50	; 0x32
20005846:	2196      	movs	r1, #150	; 0x96
20005848:	2064      	movs	r0, #100	; 0x64
2000584a:	f7fe fc0d 	bl	20004068 <TFTDisplay_ILI9341_DrawChar>
	        osDelay(40);
2000584e:	2028      	movs	r0, #40	; 0x28
20005850:	f7fb fa36 	bl	20000cc0 <osDelay>
	    }
	    if(!(GPIOC -> IDR & 0x2000)){
20005854:	4b0a      	ldr	r3, [pc, #40]	; (20005880 <StartTask04+0x110>)
20005856:	691b      	ldr	r3, [r3, #16]
20005858:	f403 5300 	and.w	r3, r3, #8192	; 0x2000
2000585c:	2b00      	cmp	r3, #0
2000585e:	d104      	bne.n	2000586a <StartTask04+0xfa>
	    	TFTDisplay_ILI9341_DrawChar(100, 150, 0x30);
20005860:	2230      	movs	r2, #48	; 0x30
20005862:	2196      	movs	r1, #150	; 0x96
20005864:	2064      	movs	r0, #100	; 0x64
20005866:	f7fe fbff 	bl	20004068 <TFTDisplay_ILI9341_DrawChar>
//	    if (lcdprop.pFont != NULL && lcdprop.pFont->table != NULL) { //chat idea
//	        TFTDisplay_ILI9341_DrawChar(100, 120, 0x31);
//	    }
//		TFTDisplay_ILI9341_DrawChar(100, 120, 0x31); //wedug fizyki czarnej dziury tu to nie dziaa

	    osDelay(10);
2000586a:	200a      	movs	r0, #10
2000586c:	f7fb fa28 	bl	20000cc0 <osDelay>
	    if(!(GPIOC -> IDR & 0x0800)){
20005870:	e782      	b.n	20005778 <StartTask04+0x8>
20005872:	bf00      	nop
20005874:	f3af 8000 	nop.w
20005878:	9999999a 	.word	0x9999999a
2000587c:	3fb99999 	.word	0x3fb99999
20005880:	40020800 	.word	0x40020800
20005884:	2001ee2c 	.word	0x2001ee2c
20005888:	42480000 	.word	0x42480000

2000588c <StartTask05>:
* @param argument: Not used
* @retval None
*/
/* USER CODE END Header_StartTask05 */
void StartTask05(void *argument)
{
2000588c:	b580      	push	{r7, lr}
2000588e:	b082      	sub	sp, #8
20005890:	af00      	add	r7, sp, #0
20005892:	6078      	str	r0, [r7, #4]
  /* USER CODE BEGIN StartTask05 */
	   // PID_s_init(&pid, 10, 3, 0.9, tp);
	    PID_s_init(&pid, 6.0, 5.6, 0.8, tp);
20005894:	4b3b      	ldr	r3, [pc, #236]	; (20005984 <StartTask05+0xf8>)
20005896:	edd3 7a00 	vldr	s15, [r3]
2000589a:	eef0 1a67 	vmov.f32	s3, s15
2000589e:	ed9f 1a3a 	vldr	s2, [pc, #232]	; 20005988 <StartTask05+0xfc>
200058a2:	eddf 0a3a 	vldr	s1, [pc, #232]	; 2000598c <StartTask05+0x100>
200058a6:	eeb1 0a08 	vmov.f32	s0, #24	; 0x40c00000  6.0
200058aa:	4839      	ldr	r0, [pc, #228]	; (20005990 <StartTask05+0x104>)
200058ac:	f000 fb38 	bl	20005f20 <PID_s_init>
	    Inercja_s_init(&in3, 1, tp, 5);
200058b0:	4b34      	ldr	r3, [pc, #208]	; (20005984 <StartTask05+0xf8>)
200058b2:	edd3 7a00 	vldr	s15, [r3]
200058b6:	eeb1 1a04 	vmov.f32	s2, #20	; 0x40a00000  5.0
200058ba:	eef0 0a67 	vmov.f32	s1, s15
200058be:	eeb7 0a00 	vmov.f32	s0, #112	; 0x3f800000  1.0
200058c2:	4834      	ldr	r0, [pc, #208]	; (20005994 <StartTask05+0x108>)
200058c4:	f000 fbdc 	bl	20006080 <Inercja_s_init>
	    Inercja_s_init(&in4, 2, tp, 10);
200058c8:	4b2e      	ldr	r3, [pc, #184]	; (20005984 <StartTask05+0xf8>)
200058ca:	edd3 7a00 	vldr	s15, [r3]
200058ce:	eeb2 1a04 	vmov.f32	s2, #36	; 0x41200000  10.0
200058d2:	eef0 0a67 	vmov.f32	s1, s15
200058d6:	eeb0 0a00 	vmov.f32	s0, #0	; 0x40000000  2.0
200058da:	482f      	ldr	r0, [pc, #188]	; (20005998 <StartTask05+0x10c>)
200058dc:	f000 fbd0 	bl	20006080 <Inercja_s_init>
	    pid.expected = 18;
200058e0:	4b2b      	ldr	r3, [pc, #172]	; (20005990 <StartTask05+0x104>)
200058e2:	4a2e      	ldr	r2, [pc, #184]	; (2000599c <StartTask05+0x110>)
200058e4:	61da      	str	r2, [r3, #28]
	    in3.last_input = 17.5;
200058e6:	4b2b      	ldr	r3, [pc, #172]	; (20005994 <StartTask05+0x108>)
200058e8:	4a2d      	ldr	r2, [pc, #180]	; (200059a0 <StartTask05+0x114>)
200058ea:	601a      	str	r2, [r3, #0]
	    in4.last_input = 17.5;
200058ec:	4b2a      	ldr	r3, [pc, #168]	; (20005998 <StartTask05+0x10c>)
200058ee:	4a2c      	ldr	r2, [pc, #176]	; (200059a0 <StartTask05+0x114>)
200058f0:	601a      	str	r2, [r3, #0]
	    in4.output = 17.5;
200058f2:	4b29      	ldr	r3, [pc, #164]	; (20005998 <StartTask05+0x10c>)
200058f4:	4a2a      	ldr	r2, [pc, #168]	; (200059a0 <StartTask05+0x114>)
200058f6:	611a      	str	r2, [r3, #16]
	  /* Infinite loop */
	  for(;;)
	  {
//		printf("%d.\t", i);
		pid.input = in4.output;
200058f8:	4b27      	ldr	r3, [pc, #156]	; (20005998 <StartTask05+0x10c>)
200058fa:	691b      	ldr	r3, [r3, #16]
200058fc:	4a24      	ldr	r2, [pc, #144]	; (20005990 <StartTask05+0x104>)
200058fe:	6193      	str	r3, [r2, #24]
		Reg_s_step(&pid);
20005900:	4823      	ldr	r0, [pc, #140]	; (20005990 <StartTask05+0x104>)
20005902:	f000 fb33 	bl	20005f6c <Reg_s_step>
		//output = pid.output;
		in3.input = pid.output;
20005906:	4b22      	ldr	r3, [pc, #136]	; (20005990 <StartTask05+0x104>)
20005908:	6a1b      	ldr	r3, [r3, #32]
2000590a:	4a22      	ldr	r2, [pc, #136]	; (20005994 <StartTask05+0x108>)
2000590c:	6153      	str	r3, [r2, #20]
		Inercja_s_step(&in3);
2000590e:	4821      	ldr	r0, [pc, #132]	; (20005994 <StartTask05+0x108>)
20005910:	f000 fbd3 	bl	200060ba <Inercja_s_step>
		in4.input = in3.output;
20005914:	4b1f      	ldr	r3, [pc, #124]	; (20005994 <StartTask05+0x108>)
20005916:	691b      	ldr	r3, [r3, #16]
20005918:	4a1f      	ldr	r2, [pc, #124]	; (20005998 <StartTask05+0x10c>)
2000591a:	6153      	str	r3, [r2, #20]
		Inercja_s_step(&in4);
2000591c:	481e      	ldr	r0, [pc, #120]	; (20005998 <StartTask05+0x10c>)
2000591e:	f000 fbcc 	bl	200060ba <Inercja_s_step>
		Draw_info((int)(in4.output * 10), (int)(pid.expected * 10), false);
20005922:	4b1d      	ldr	r3, [pc, #116]	; (20005998 <StartTask05+0x10c>)
20005924:	edd3 7a04 	vldr	s15, [r3, #16]
20005928:	eeb2 7a04 	vmov.f32	s14, #36	; 0x41200000  10.0
2000592c:	ee67 7a87 	vmul.f32	s15, s15, s14
20005930:	eefd 6ae7 	vcvt.s32.f32	s13, s15
20005934:	4b16      	ldr	r3, [pc, #88]	; (20005990 <StartTask05+0x104>)
20005936:	edd3 7a07 	vldr	s15, [r3, #28]
2000593a:	eeb2 7a04 	vmov.f32	s14, #36	; 0x41200000  10.0
2000593e:	ee67 7a87 	vmul.f32	s15, s15, s14
20005942:	eefd 7ae7 	vcvt.s32.f32	s15, s15
20005946:	2200      	movs	r2, #0
20005948:	ee17 1a90 	vmov	r1, s15
2000594c:	ee16 0a90 	vmov	r0, s13
20005950:	f000 f94c 	bl	20005bec <Draw_info>
		err = abs(pid.expected_i - in4.output_i);
20005954:	4b0e      	ldr	r3, [pc, #56]	; (20005990 <StartTask05+0x104>)
20005956:	6a5a      	ldr	r2, [r3, #36]	; 0x24
20005958:	4b0f      	ldr	r3, [pc, #60]	; (20005998 <StartTask05+0x10c>)
2000595a:	699b      	ldr	r3, [r3, #24]
2000595c:	1ad3      	subs	r3, r2, r3
2000595e:	2b00      	cmp	r3, #0
20005960:	bfb8      	it	lt
20005962:	425b      	neglt	r3, r3
20005964:	4a0f      	ldr	r2, [pc, #60]	; (200059a4 <StartTask05+0x118>)
20005966:	6013      	str	r3, [r2, #0]
		wykres_draw(&entry);
20005968:	480f      	ldr	r0, [pc, #60]	; (200059a8 <StartTask05+0x11c>)
2000596a:	f000 fa5c 	bl	20005e26 <wykres_draw>
		wykres_draw(&out);
2000596e:	480f      	ldr	r0, [pc, #60]	; (200059ac <StartTask05+0x120>)
20005970:	f000 fa59 	bl	20005e26 <wykres_draw>
		wykres_draw(&errdr);
20005974:	480e      	ldr	r0, [pc, #56]	; (200059b0 <StartTask05+0x124>)
20005976:	f000 fa56 	bl	20005e26 <wykres_draw>
//	    Draw_info(104, 152, false);

		osDelay(50);
2000597a:	2032      	movs	r0, #50	; 0x32
2000597c:	f7fb f9a0 	bl	20000cc0 <osDelay>
		pid.input = in4.output;
20005980:	e7ba      	b.n	200058f8 <StartTask05+0x6c>
20005982:	bf00      	nop
20005984:	2000a364 	.word	0x2000a364
20005988:	3f4ccccd 	.word	0x3f4ccccd
2000598c:	40b33333 	.word	0x40b33333
20005990:	2001ee2c 	.word	0x2001ee2c
20005994:	2001ee58 	.word	0x2001ee58
20005998:	2001ee74 	.word	0x2001ee74
2000599c:	41900000 	.word	0x41900000
200059a0:	418c0000 	.word	0x418c0000
200059a4:	2001f5a8 	.word	0x2001f5a8
200059a8:	2001ee90 	.word	0x2001ee90
200059ac:	2001f21c 	.word	0x2001f21c
200059b0:	2001f5ac 	.word	0x2001f5ac

200059b4 <StartLCDTask_cd>:
* @param argument: Not used
* @retval None
*/
/* USER CODE END Header_StartLCDTask_cd */
void StartLCDTask_cd(void *argument)
{
200059b4:	b580      	push	{r7, lr}
200059b6:	b084      	sub	sp, #16
200059b8:	af02      	add	r7, sp, #8
200059ba:	6078      	str	r0, [r7, #4]
  /* USER CODE BEGIN StartLCDTask_cd */
	wykres_init(&entry, "in", &pid.expected_i, 0, 0xF800);
200059bc:	f44f 4378 	mov.w	r3, #63488	; 0xf800
200059c0:	9300      	str	r3, [sp, #0]
200059c2:	2300      	movs	r3, #0
200059c4:	4a7f      	ldr	r2, [pc, #508]	; (20005bc4 <StartLCDTask_cd+0x210>)
200059c6:	4980      	ldr	r1, [pc, #512]	; (20005bc8 <StartLCDTask_cd+0x214>)
200059c8:	4880      	ldr	r0, [pc, #512]	; (20005bcc <StartLCDTask_cd+0x218>)
200059ca:	f000 f9ea 	bl	20005da2 <wykres_init>
	wykres_init(&out, "out", &in4.output_i, 0, 0x001F);
200059ce:	231f      	movs	r3, #31
200059d0:	9300      	str	r3, [sp, #0]
200059d2:	2300      	movs	r3, #0
200059d4:	4a7e      	ldr	r2, [pc, #504]	; (20005bd0 <StartLCDTask_cd+0x21c>)
200059d6:	497f      	ldr	r1, [pc, #508]	; (20005bd4 <StartLCDTask_cd+0x220>)
200059d8:	487f      	ldr	r0, [pc, #508]	; (20005bd8 <StartLCDTask_cd+0x224>)
200059da:	f000 f9e2 	bl	20005da2 <wykres_init>
	wykres_init(&errdr, "err", &err, 0, 0x07E0);
200059de:	f44f 63fc 	mov.w	r3, #2016	; 0x7e0
200059e2:	9300      	str	r3, [sp, #0]
200059e4:	2300      	movs	r3, #0
200059e6:	4a7d      	ldr	r2, [pc, #500]	; (20005bdc <StartLCDTask_cd+0x228>)
200059e8:	497d      	ldr	r1, [pc, #500]	; (20005be0 <StartLCDTask_cd+0x22c>)
200059ea:	487e      	ldr	r0, [pc, #504]	; (20005be4 <StartLCDTask_cd+0x230>)
200059ec:	f000 f9d9 	bl	20005da2 <wykres_init>
  /* Infinite loop */
  for(;;)
  {
		if(in4.output_i < 83){
200059f0:	4b7d      	ldr	r3, [pc, #500]	; (20005be8 <StartLCDTask_cd+0x234>)
200059f2:	699b      	ldr	r3, [r3, #24]
200059f4:	2b52      	cmp	r3, #82	; 0x52
200059f6:	dc16      	bgt.n	20005a26 <StartLCDTask_cd+0x72>
			TFTDisplay_ILI9341_FillRect(100, 280, 140, 317, TFT_COLOR_ILI9341_CLAY);
200059f8:	f64b 43f0 	movw	r3, #48368	; 0xbcf0
200059fc:	9300      	str	r3, [sp, #0]
200059fe:	f240 133d 	movw	r3, #317	; 0x13d
20005a02:	228c      	movs	r2, #140	; 0x8c
20005a04:	f44f 718c 	mov.w	r1, #280	; 0x118
20005a08:	2064      	movs	r0, #100	; 0x64
20005a0a:	f7fe f8ed 	bl	20003be8 <TFTDisplay_ILI9341_FillRect>
			TFTDisplay_ILI9341_FillRect(80, 280, 160, 300, TFT_COLOR_ILI9341_CLAY);
20005a0e:	f64b 43f0 	movw	r3, #48368	; 0xbcf0
20005a12:	9300      	str	r3, [sp, #0]
20005a14:	f44f 7396 	mov.w	r3, #300	; 0x12c
20005a18:	22a0      	movs	r2, #160	; 0xa0
20005a1a:	f44f 718c 	mov.w	r1, #280	; 0x118
20005a1e:	2050      	movs	r0, #80	; 0x50
20005a20:	f7fe f8e2 	bl	20003be8 <TFTDisplay_ILI9341_FillRect>
20005a24:	e0b7      	b.n	20005b96 <StartLCDTask_cd+0x1e2>
		}else if(in4.output_i < 166){
20005a26:	4b70      	ldr	r3, [pc, #448]	; (20005be8 <StartLCDTask_cd+0x234>)
20005a28:	699b      	ldr	r3, [r3, #24]
20005a2a:	2ba5      	cmp	r3, #165	; 0xa5
20005a2c:	dc1e      	bgt.n	20005a6c <StartLCDTask_cd+0xb8>
			TFTDisplay_ILI9341_FillRect(100, 280, 140, 317, TFT_COLOR_ILI9341_CLAY);
20005a2e:	f64b 43f0 	movw	r3, #48368	; 0xbcf0
20005a32:	9300      	str	r3, [sp, #0]
20005a34:	f240 133d 	movw	r3, #317	; 0x13d
20005a38:	228c      	movs	r2, #140	; 0x8c
20005a3a:	f44f 718c 	mov.w	r1, #280	; 0x118
20005a3e:	2064      	movs	r0, #100	; 0x64
20005a40:	f7fe f8d2 	bl	20003be8 <TFTDisplay_ILI9341_FillRect>
			TFTDisplay_ILI9341_FillRect(80, 280, 160, 300, TFT_COLOR_ILI9341_CLAY);
20005a44:	f64b 43f0 	movw	r3, #48368	; 0xbcf0
20005a48:	9300      	str	r3, [sp, #0]
20005a4a:	f44f 7396 	mov.w	r3, #300	; 0x12c
20005a4e:	22a0      	movs	r2, #160	; 0xa0
20005a50:	f44f 718c 	mov.w	r1, #280	; 0x118
20005a54:	2050      	movs	r0, #80	; 0x50
20005a56:	f7fe f8c7 	bl	20003be8 <TFTDisplay_ILI9341_FillRect>
			TFTDisplay_ILI9341_FillCircle(120, 280, 6, TFT_COLOR_ILI9341_GREEN);
20005a5a:	f44f 63fc 	mov.w	r3, #2016	; 0x7e0
20005a5e:	2206      	movs	r2, #6
20005a60:	f44f 718c 	mov.w	r1, #280	; 0x118
20005a64:	2078      	movs	r0, #120	; 0x78
20005a66:	f7fe fa49 	bl	20003efc <TFTDisplay_ILI9341_FillCircle>
20005a6a:	e094      	b.n	20005b96 <StartLCDTask_cd+0x1e2>
		}else if (in4.output_i < 250){
20005a6c:	4b5e      	ldr	r3, [pc, #376]	; (20005be8 <StartLCDTask_cd+0x234>)
20005a6e:	699b      	ldr	r3, [r3, #24]
20005a70:	2bf9      	cmp	r3, #249	; 0xf9
20005a72:	dc20      	bgt.n	20005ab6 <StartLCDTask_cd+0x102>
			TFTDisplay_ILI9341_FillRect(100, 280, 140, 317, TFT_COLOR_ILI9341_GREEN);
20005a74:	f44f 63fc 	mov.w	r3, #2016	; 0x7e0
20005a78:	9300      	str	r3, [sp, #0]
20005a7a:	f240 133d 	movw	r3, #317	; 0x13d
20005a7e:	228c      	movs	r2, #140	; 0x8c
20005a80:	f44f 718c 	mov.w	r1, #280	; 0x118
20005a84:	2064      	movs	r0, #100	; 0x64
20005a86:	f7fe f8af 	bl	20003be8 <TFTDisplay_ILI9341_FillRect>
			TFTDisplay_ILI9341_FillRect(100, 280, 140, 317, TFT_COLOR_ILI9341_CLAY);
20005a8a:	f64b 43f0 	movw	r3, #48368	; 0xbcf0
20005a8e:	9300      	str	r3, [sp, #0]
20005a90:	f240 133d 	movw	r3, #317	; 0x13d
20005a94:	228c      	movs	r2, #140	; 0x8c
20005a96:	f44f 718c 	mov.w	r1, #280	; 0x118
20005a9a:	2064      	movs	r0, #100	; 0x64
20005a9c:	f7fe f8a4 	bl	20003be8 <TFTDisplay_ILI9341_FillRect>
			TFTDisplay_ILI9341_FillRect(115, 240, 125, 280, TFT_COLOR_ILI9341_CLAY);
20005aa0:	f64b 43f0 	movw	r3, #48368	; 0xbcf0
20005aa4:	9300      	str	r3, [sp, #0]
20005aa6:	f44f 738c 	mov.w	r3, #280	; 0x118
20005aaa:	227d      	movs	r2, #125	; 0x7d
20005aac:	21f0      	movs	r1, #240	; 0xf0
20005aae:	2073      	movs	r0, #115	; 0x73
20005ab0:	f7fe f89a 	bl	20003be8 <TFTDisplay_ILI9341_FillRect>
20005ab4:	e06f      	b.n	20005b96 <StartLCDTask_cd+0x1e2>
		}else if(in4.output_i < 333){
20005ab6:	4b4c      	ldr	r3, [pc, #304]	; (20005be8 <StartLCDTask_cd+0x234>)
20005ab8:	699b      	ldr	r3, [r3, #24]
20005aba:	f5b3 7fa6 	cmp.w	r3, #332	; 0x14c
20005abe:	dc27      	bgt.n	20005b10 <StartLCDTask_cd+0x15c>
			TFTDisplay_ILI9341_FillRect(100, 280, 140, 317, TFT_COLOR_ILI9341_CLAY);
20005ac0:	f64b 43f0 	movw	r3, #48368	; 0xbcf0
20005ac4:	9300      	str	r3, [sp, #0]
20005ac6:	f240 133d 	movw	r3, #317	; 0x13d
20005aca:	228c      	movs	r2, #140	; 0x8c
20005acc:	f44f 718c 	mov.w	r1, #280	; 0x118
20005ad0:	2064      	movs	r0, #100	; 0x64
20005ad2:	f7fe f889 	bl	20003be8 <TFTDisplay_ILI9341_FillRect>
			TFTDisplay_ILI9341_FillRect(80, 280, 160, 300, TFT_COLOR_ILI9341_CLAY);
20005ad6:	f64b 43f0 	movw	r3, #48368	; 0xbcf0
20005ada:	9300      	str	r3, [sp, #0]
20005adc:	f44f 7396 	mov.w	r3, #300	; 0x12c
20005ae0:	22a0      	movs	r2, #160	; 0xa0
20005ae2:	f44f 718c 	mov.w	r1, #280	; 0x118
20005ae6:	2050      	movs	r0, #80	; 0x50
20005ae8:	f7fe f87e 	bl	20003be8 <TFTDisplay_ILI9341_FillRect>
			TFTDisplay_ILI9341_FillRect(115, 230, 125, 280, TFT_COLOR_ILI9341_GREEN);
20005aec:	f44f 63fc 	mov.w	r3, #2016	; 0x7e0
20005af0:	9300      	str	r3, [sp, #0]
20005af2:	f44f 738c 	mov.w	r3, #280	; 0x118
20005af6:	227d      	movs	r2, #125	; 0x7d
20005af8:	21e6      	movs	r1, #230	; 0xe6
20005afa:	2073      	movs	r0, #115	; 0x73
20005afc:	f7fe f874 	bl	20003be8 <TFTDisplay_ILI9341_FillRect>
			TFTDisplay_ILI9341_FillCircle(120, 215, 15, TFT_COLOR_ILI9341_GREENYELLOW);
20005b00:	f64a 73e5 	movw	r3, #45029	; 0xafe5
20005b04:	220f      	movs	r2, #15
20005b06:	21d7      	movs	r1, #215	; 0xd7
20005b08:	2078      	movs	r0, #120	; 0x78
20005b0a:	f7fe f9f7 	bl	20003efc <TFTDisplay_ILI9341_FillCircle>
20005b0e:	e042      	b.n	20005b96 <StartLCDTask_cd+0x1e2>
		}else if(in4.output_i < 416){
20005b10:	4b35      	ldr	r3, [pc, #212]	; (20005be8 <StartLCDTask_cd+0x234>)
20005b12:	699b      	ldr	r3, [r3, #24]
20005b14:	f5b3 7fd0 	cmp.w	r3, #416	; 0x1a0
20005b18:	da27      	bge.n	20005b6a <StartLCDTask_cd+0x1b6>
			TFTDisplay_ILI9341_FillRect(100, 280, 140, 317, TFT_COLOR_ILI9341_CLAY);
20005b1a:	f64b 43f0 	movw	r3, #48368	; 0xbcf0
20005b1e:	9300      	str	r3, [sp, #0]
20005b20:	f240 133d 	movw	r3, #317	; 0x13d
20005b24:	228c      	movs	r2, #140	; 0x8c
20005b26:	f44f 718c 	mov.w	r1, #280	; 0x118
20005b2a:	2064      	movs	r0, #100	; 0x64
20005b2c:	f7fe f85c 	bl	20003be8 <TFTDisplay_ILI9341_FillRect>
			TFTDisplay_ILI9341_FillRect(80, 280, 160, 300, TFT_COLOR_ILI9341_CLAY);
20005b30:	f64b 43f0 	movw	r3, #48368	; 0xbcf0
20005b34:	9300      	str	r3, [sp, #0]
20005b36:	f44f 7396 	mov.w	r3, #300	; 0x12c
20005b3a:	22a0      	movs	r2, #160	; 0xa0
20005b3c:	f44f 718c 	mov.w	r1, #280	; 0x118
20005b40:	2050      	movs	r0, #80	; 0x50
20005b42:	f7fe f851 	bl	20003be8 <TFTDisplay_ILI9341_FillRect>
			TFTDisplay_ILI9341_FillRect(117, 215, 123, 279, TFT_COLOR_ILI9341_GREEN);
20005b46:	f44f 63fc 	mov.w	r3, #2016	; 0x7e0
20005b4a:	9300      	str	r3, [sp, #0]
20005b4c:	f240 1317 	movw	r3, #279	; 0x117
20005b50:	227b      	movs	r2, #123	; 0x7b
20005b52:	21d7      	movs	r1, #215	; 0xd7
20005b54:	2075      	movs	r0, #117	; 0x75
20005b56:	f7fe f847 	bl	20003be8 <TFTDisplay_ILI9341_FillRect>
			TFTDisplay_ILI9341_FillCircle(120, 200, 30, TFT_COLOR_ILI9341_GREENYELLOW);
20005b5a:	f64a 73e5 	movw	r3, #45029	; 0xafe5
20005b5e:	221e      	movs	r2, #30
20005b60:	21c8      	movs	r1, #200	; 0xc8
20005b62:	2078      	movs	r0, #120	; 0x78
20005b64:	f7fe f9ca 	bl	20003efc <TFTDisplay_ILI9341_FillCircle>
20005b68:	e015      	b.n	20005b96 <StartLCDTask_cd+0x1e2>
		}else{
			TFTDisplay_ILI9341_FillRect(100, 280, 140, 317, TFT_COLOR_ILI9341_CLAY);
20005b6a:	f64b 43f0 	movw	r3, #48368	; 0xbcf0
20005b6e:	9300      	str	r3, [sp, #0]
20005b70:	f240 133d 	movw	r3, #317	; 0x13d
20005b74:	228c      	movs	r2, #140	; 0x8c
20005b76:	f44f 718c 	mov.w	r1, #280	; 0x118
20005b7a:	2064      	movs	r0, #100	; 0x64
20005b7c:	f7fe f834 	bl	20003be8 <TFTDisplay_ILI9341_FillRect>
			TFTDisplay_ILI9341_FillRect(80, 280, 160, 300, TFT_COLOR_ILI9341_CLAY);
20005b80:	f64b 43f0 	movw	r3, #48368	; 0xbcf0
20005b84:	9300      	str	r3, [sp, #0]
20005b86:	f44f 7396 	mov.w	r3, #300	; 0x12c
20005b8a:	22a0      	movs	r2, #160	; 0xa0
20005b8c:	f44f 718c 	mov.w	r1, #280	; 0x118
20005b90:	2050      	movs	r0, #80	; 0x50
20005b92:	f7fe f829 	bl	20003be8 <TFTDisplay_ILI9341_FillRect>
		}
	TFTDisplay_ILI9341_FillRect(20, 21, 238, 119, 0xFFFF);
20005b96:	f64f 73ff 	movw	r3, #65535	; 0xffff
20005b9a:	9300      	str	r3, [sp, #0]
20005b9c:	2377      	movs	r3, #119	; 0x77
20005b9e:	22ee      	movs	r2, #238	; 0xee
20005ba0:	2115      	movs	r1, #21
20005ba2:	2014      	movs	r0, #20
20005ba4:	f7fe f820 	bl	20003be8 <TFTDisplay_ILI9341_FillRect>
	wykres_show(&entry);
20005ba8:	4808      	ldr	r0, [pc, #32]	; (20005bcc <StartLCDTask_cd+0x218>)
20005baa:	f000 f973 	bl	20005e94 <wykres_show>
	wykres_show(&out);
20005bae:	480a      	ldr	r0, [pc, #40]	; (20005bd8 <StartLCDTask_cd+0x224>)
20005bb0:	f000 f970 	bl	20005e94 <wykres_show>
	wykres_show(&errdr);
20005bb4:	480b      	ldr	r0, [pc, #44]	; (20005be4 <StartLCDTask_cd+0x230>)
20005bb6:	f000 f96d 	bl	20005e94 <wykres_show>
//	TFTDisplay_ILI9341_FillRect(100, 260, 140, 300, TFT_COLOR_ILI9341_PURPLE);

    osDelay(30);
20005bba:	201e      	movs	r0, #30
20005bbc:	f7fb f880 	bl	20000cc0 <osDelay>
		if(in4.output_i < 83){
20005bc0:	e716      	b.n	200059f0 <StartLCDTask_cd+0x3c>
20005bc2:	bf00      	nop
20005bc4:	2001ee50 	.word	0x2001ee50
20005bc8:	20006520 	.word	0x20006520
20005bcc:	2001ee90 	.word	0x2001ee90
20005bd0:	2001ee8c 	.word	0x2001ee8c
20005bd4:	20006524 	.word	0x20006524
20005bd8:	2001f21c 	.word	0x2001f21c
20005bdc:	2001f5a8 	.word	0x2001f5a8
20005be0:	20006528 	.word	0x20006528
20005be4:	2001f5ac 	.word	0x2001f5ac
20005be8:	2001ee74 	.word	0x2001ee74

20005bec <Draw_info>:
#include "ll_spi_ili9341.h"

unsigned short int *const LCD_FB = (unsigned short int*) 0xD0000000;
unsigned short int *const LCD_BUF = (unsigned short int*) 0xD0100000;

void Draw_info(int real_temp, int exp_temp, bool window){
20005bec:	b5b0      	push	{r4, r5, r7, lr}
20005bee:	b08e      	sub	sp, #56	; 0x38
20005bf0:	af02      	add	r7, sp, #8
20005bf2:	60f8      	str	r0, [r7, #12]
20005bf4:	60b9      	str	r1, [r7, #8]
20005bf6:	4613      	mov	r3, r2
20005bf8:	71fb      	strb	r3, [r7, #7]
    unsigned char data[]= "Temp:  .  Set:  .  Okno";
20005bfa:	4b5e      	ldr	r3, [pc, #376]	; (20005d74 <Draw_info+0x188>)
20005bfc:	f107 0414 	add.w	r4, r7, #20
20005c00:	461d      	mov	r5, r3
20005c02:	cd0f      	ldmia	r5!, {r0, r1, r2, r3}
20005c04:	c40f      	stmia	r4!, {r0, r1, r2, r3}
20005c06:	e895 0003 	ldmia.w	r5, {r0, r1}
20005c0a:	e884 0003 	stmia.w	r4, {r0, r1}
    if(real_temp > 500) real_temp = 500;
20005c0e:	68fb      	ldr	r3, [r7, #12]
20005c10:	f5b3 7ffa 	cmp.w	r3, #500	; 0x1f4
20005c14:	dd02      	ble.n	20005c1c <Draw_info+0x30>
20005c16:	f44f 73fa 	mov.w	r3, #500	; 0x1f4
20005c1a:	60fb      	str	r3, [r7, #12]
    data[5] = real_temp / 100 + '0';
20005c1c:	68fb      	ldr	r3, [r7, #12]
20005c1e:	4a56      	ldr	r2, [pc, #344]	; (20005d78 <Draw_info+0x18c>)
20005c20:	fb82 1203 	smull	r1, r2, r2, r3
20005c24:	1152      	asrs	r2, r2, #5
20005c26:	17db      	asrs	r3, r3, #31
20005c28:	1ad3      	subs	r3, r2, r3
20005c2a:	b2db      	uxtb	r3, r3
20005c2c:	3330      	adds	r3, #48	; 0x30
20005c2e:	b2db      	uxtb	r3, r3
20005c30:	767b      	strb	r3, [r7, #25]
    data[6] = ((real_temp / 10) - (real_temp / 100 * 10)) + '0';
20005c32:	68fb      	ldr	r3, [r7, #12]
20005c34:	4a51      	ldr	r2, [pc, #324]	; (20005d7c <Draw_info+0x190>)
20005c36:	fb82 1203 	smull	r1, r2, r2, r3
20005c3a:	1092      	asrs	r2, r2, #2
20005c3c:	17db      	asrs	r3, r3, #31
20005c3e:	1ad3      	subs	r3, r2, r3
20005c40:	b2da      	uxtb	r2, r3
20005c42:	68fb      	ldr	r3, [r7, #12]
20005c44:	494c      	ldr	r1, [pc, #304]	; (20005d78 <Draw_info+0x18c>)
20005c46:	fb81 0103 	smull	r0, r1, r1, r3
20005c4a:	1149      	asrs	r1, r1, #5
20005c4c:	17db      	asrs	r3, r3, #31
20005c4e:	1a5b      	subs	r3, r3, r1
20005c50:	b2db      	uxtb	r3, r3
20005c52:	4619      	mov	r1, r3
20005c54:	0089      	lsls	r1, r1, #2
20005c56:	440b      	add	r3, r1
20005c58:	005b      	lsls	r3, r3, #1
20005c5a:	b2db      	uxtb	r3, r3
20005c5c:	4413      	add	r3, r2
20005c5e:	b2db      	uxtb	r3, r3
20005c60:	3330      	adds	r3, #48	; 0x30
20005c62:	b2db      	uxtb	r3, r3
20005c64:	76bb      	strb	r3, [r7, #26]
    data[8] = real_temp % 10 + '0';
20005c66:	68fa      	ldr	r2, [r7, #12]
20005c68:	4b44      	ldr	r3, [pc, #272]	; (20005d7c <Draw_info+0x190>)
20005c6a:	fb83 1302 	smull	r1, r3, r3, r2
20005c6e:	1099      	asrs	r1, r3, #2
20005c70:	17d3      	asrs	r3, r2, #31
20005c72:	1ac9      	subs	r1, r1, r3
20005c74:	460b      	mov	r3, r1
20005c76:	009b      	lsls	r3, r3, #2
20005c78:	440b      	add	r3, r1
20005c7a:	005b      	lsls	r3, r3, #1
20005c7c:	1ad1      	subs	r1, r2, r3
20005c7e:	b2cb      	uxtb	r3, r1
20005c80:	3330      	adds	r3, #48	; 0x30
20005c82:	b2db      	uxtb	r3, r3
20005c84:	773b      	strb	r3, [r7, #28]
    data[14] = exp_temp / 100 + '0';
20005c86:	68bb      	ldr	r3, [r7, #8]
20005c88:	4a3b      	ldr	r2, [pc, #236]	; (20005d78 <Draw_info+0x18c>)
20005c8a:	fb82 1203 	smull	r1, r2, r2, r3
20005c8e:	1152      	asrs	r2, r2, #5
20005c90:	17db      	asrs	r3, r3, #31
20005c92:	1ad3      	subs	r3, r2, r3
20005c94:	b2db      	uxtb	r3, r3
20005c96:	3330      	adds	r3, #48	; 0x30
20005c98:	b2db      	uxtb	r3, r3
20005c9a:	f887 3022 	strb.w	r3, [r7, #34]	; 0x22
    data[15] = ((exp_temp / 10) - (exp_temp / 100 * 10)) + '0';
20005c9e:	68bb      	ldr	r3, [r7, #8]
20005ca0:	4a36      	ldr	r2, [pc, #216]	; (20005d7c <Draw_info+0x190>)
20005ca2:	fb82 1203 	smull	r1, r2, r2, r3
20005ca6:	1092      	asrs	r2, r2, #2
20005ca8:	17db      	asrs	r3, r3, #31
20005caa:	1ad3      	subs	r3, r2, r3
20005cac:	b2da      	uxtb	r2, r3
20005cae:	68bb      	ldr	r3, [r7, #8]
20005cb0:	4931      	ldr	r1, [pc, #196]	; (20005d78 <Draw_info+0x18c>)
20005cb2:	fb81 0103 	smull	r0, r1, r1, r3
20005cb6:	1149      	asrs	r1, r1, #5
20005cb8:	17db      	asrs	r3, r3, #31
20005cba:	1a5b      	subs	r3, r3, r1
20005cbc:	b2db      	uxtb	r3, r3
20005cbe:	4619      	mov	r1, r3
20005cc0:	0089      	lsls	r1, r1, #2
20005cc2:	440b      	add	r3, r1
20005cc4:	005b      	lsls	r3, r3, #1
20005cc6:	b2db      	uxtb	r3, r3
20005cc8:	4413      	add	r3, r2
20005cca:	b2db      	uxtb	r3, r3
20005ccc:	3330      	adds	r3, #48	; 0x30
20005cce:	b2db      	uxtb	r3, r3
20005cd0:	f887 3023 	strb.w	r3, [r7, #35]	; 0x23
    data[17] = exp_temp % 10 + '0';
20005cd4:	68ba      	ldr	r2, [r7, #8]
20005cd6:	4b29      	ldr	r3, [pc, #164]	; (20005d7c <Draw_info+0x190>)
20005cd8:	fb83 1302 	smull	r1, r3, r3, r2
20005cdc:	1099      	asrs	r1, r3, #2
20005cde:	17d3      	asrs	r3, r2, #31
20005ce0:	1ac9      	subs	r1, r1, r3
20005ce2:	460b      	mov	r3, r1
20005ce4:	009b      	lsls	r3, r3, #2
20005ce6:	440b      	add	r3, r1
20005ce8:	005b      	lsls	r3, r3, #1
20005cea:	1ad1      	subs	r1, r2, r3
20005cec:	b2cb      	uxtb	r3, r1
20005cee:	3330      	adds	r3, #48	; 0x30
20005cf0:	b2db      	uxtb	r3, r3
20005cf2:	f887 3025 	strb.w	r3, [r7, #37]	; 0x25

    for(int i = 0; i < 23; i++){
20005cf6:	2300      	movs	r3, #0
20005cf8:	62fb      	str	r3, [r7, #44]	; 0x2c
20005cfa:	e012      	b.n	20005d22 <Draw_info+0x136>
    	TFTDisplay_ILI9341_DrawChar(i * 10, 2, data[i]); //nie dziaa
20005cfc:	6afb      	ldr	r3, [r7, #44]	; 0x2c
20005cfe:	b29b      	uxth	r3, r3
20005d00:	461a      	mov	r2, r3
20005d02:	0092      	lsls	r2, r2, #2
20005d04:	4413      	add	r3, r2
20005d06:	005b      	lsls	r3, r3, #1
20005d08:	b298      	uxth	r0, r3
20005d0a:	f107 0214 	add.w	r2, r7, #20
20005d0e:	6afb      	ldr	r3, [r7, #44]	; 0x2c
20005d10:	4413      	add	r3, r2
20005d12:	781b      	ldrb	r3, [r3, #0]
20005d14:	461a      	mov	r2, r3
20005d16:	2102      	movs	r1, #2
20005d18:	f7fe f9a6 	bl	20004068 <TFTDisplay_ILI9341_DrawChar>
    for(int i = 0; i < 23; i++){
20005d1c:	6afb      	ldr	r3, [r7, #44]	; 0x2c
20005d1e:	3301      	adds	r3, #1
20005d20:	62fb      	str	r3, [r7, #44]	; 0x2c
20005d22:	6afb      	ldr	r3, [r7, #44]	; 0x2c
20005d24:	2b16      	cmp	r3, #22
20005d26:	dde9      	ble.n	20005cfc <Draw_info+0x110>
    }
    if(!window){
20005d28:	79fb      	ldrb	r3, [r7, #7]
20005d2a:	f083 0301 	eor.w	r3, r3, #1
20005d2e:	b2db      	uxtb	r3, r3
20005d30:	2b00      	cmp	r3, #0
20005d32:	d01a      	beq.n	20005d6a <Draw_info+0x17e>
        TFTDisplay_ILI9341_DrawLine(190, 9, 230, 9, 0x07E0);
20005d34:	f44f 63fc 	mov.w	r3, #2016	; 0x7e0
20005d38:	9300      	str	r3, [sp, #0]
20005d3a:	2309      	movs	r3, #9
20005d3c:	22e6      	movs	r2, #230	; 0xe6
20005d3e:	2109      	movs	r1, #9
20005d40:	20be      	movs	r0, #190	; 0xbe
20005d42:	f7fe f845 	bl	20003dd0 <TFTDisplay_ILI9341_DrawLine>
        TFTDisplay_ILI9341_DrawLine(190, 8, 230, 8, 0x07E0);
20005d46:	f44f 63fc 	mov.w	r3, #2016	; 0x7e0
20005d4a:	9300      	str	r3, [sp, #0]
20005d4c:	2308      	movs	r3, #8
20005d4e:	22e6      	movs	r2, #230	; 0xe6
20005d50:	2108      	movs	r1, #8
20005d52:	20be      	movs	r0, #190	; 0xbe
20005d54:	f7fe f83c 	bl	20003dd0 <TFTDisplay_ILI9341_DrawLine>
        TFTDisplay_ILI9341_DrawLine(190, 7, 230, 7, 0x07E0);
20005d58:	f44f 63fc 	mov.w	r3, #2016	; 0x7e0
20005d5c:	9300      	str	r3, [sp, #0]
20005d5e:	2307      	movs	r3, #7
20005d60:	22e6      	movs	r2, #230	; 0xe6
20005d62:	2107      	movs	r1, #7
20005d64:	20be      	movs	r0, #190	; 0xbe
20005d66:	f7fe f833 	bl	20003dd0 <TFTDisplay_ILI9341_DrawLine>
    }
}
20005d6a:	bf00      	nop
20005d6c:	3730      	adds	r7, #48	; 0x30
20005d6e:	46bd      	mov	sp, r7
20005d70:	bdb0      	pop	{r4, r5, r7, pc}
20005d72:	bf00      	nop
20005d74:	2000652c 	.word	0x2000652c
20005d78:	51eb851f 	.word	0x51eb851f
20005d7c:	66666667 	.word	0x66666667

20005d80 <SetPixel>:

void SetPixel(int x, int y, uint16_t color){	
20005d80:	b580      	push	{r7, lr}
20005d82:	b084      	sub	sp, #16
20005d84:	af00      	add	r7, sp, #0
20005d86:	60f8      	str	r0, [r7, #12]
20005d88:	60b9      	str	r1, [r7, #8]
20005d8a:	4613      	mov	r3, r2
20005d8c:	80fb      	strh	r3, [r7, #6]
	TFTDisplay_ILI9341_DrawPixel(x, y, color);
20005d8e:	88fb      	ldrh	r3, [r7, #6]
20005d90:	461a      	mov	r2, r3
20005d92:	68b9      	ldr	r1, [r7, #8]
20005d94:	68f8      	ldr	r0, [r7, #12]
20005d96:	f7fd ffd5 	bl	20003d44 <TFTDisplay_ILI9341_DrawPixel>
}
20005d9a:	bf00      	nop
20005d9c:	3710      	adds	r7, #16
20005d9e:	46bd      	mov	sp, r7
20005da0:	bd80      	pop	{r7, pc}

20005da2 <wykres_init>:
            TFTDisplay_ILI9341_DrawPixel(x, y, img[240 * (y -80) + x]);
        }
    }
}

void wykres_init(wykres_s* wykres, char* name, int* source, int off, uint16_t color){
20005da2:	b480      	push	{r7}
20005da4:	b087      	sub	sp, #28
20005da6:	af00      	add	r7, sp, #0
20005da8:	60f8      	str	r0, [r7, #12]
20005daa:	60b9      	str	r1, [r7, #8]
20005dac:	607a      	str	r2, [r7, #4]
20005dae:	603b      	str	r3, [r7, #0]
    for(int i = 0; i < wykres_char; i++){
20005db0:	2300      	movs	r3, #0
20005db2:	617b      	str	r3, [r7, #20]
20005db4:	e015      	b.n	20005de2 <wykres_init+0x40>
        wykres->os_y_name[i] = name[i];
20005db6:	697b      	ldr	r3, [r7, #20]
20005db8:	68ba      	ldr	r2, [r7, #8]
20005dba:	4413      	add	r3, r2
20005dbc:	7819      	ldrb	r1, [r3, #0]
20005dbe:	68fa      	ldr	r2, [r7, #12]
20005dc0:	697b      	ldr	r3, [r7, #20]
20005dc2:	4413      	add	r3, r2
20005dc4:	3304      	adds	r3, #4
20005dc6:	460a      	mov	r2, r1
20005dc8:	701a      	strb	r2, [r3, #0]
        if(sizeof(name) + 1 < i){
20005dca:	697b      	ldr	r3, [r7, #20]
20005dcc:	2b05      	cmp	r3, #5
20005dce:	d905      	bls.n	20005ddc <wykres_init+0x3a>
            wykres->os_y_name[i] = 0x20;
20005dd0:	68fa      	ldr	r2, [r7, #12]
20005dd2:	697b      	ldr	r3, [r7, #20]
20005dd4:	4413      	add	r3, r2
20005dd6:	3304      	adds	r3, #4
20005dd8:	2220      	movs	r2, #32
20005dda:	701a      	strb	r2, [r3, #0]
    for(int i = 0; i < wykres_char; i++){
20005ddc:	697b      	ldr	r3, [r7, #20]
20005dde:	3301      	adds	r3, #1
20005de0:	617b      	str	r3, [r7, #20]
20005de2:	697b      	ldr	r3, [r7, #20]
20005de4:	2b06      	cmp	r3, #6
20005de6:	dde6      	ble.n	20005db6 <wykres_init+0x14>
        }
    }
    wykres->os_x_name[0] = 0x74;
20005de8:	68fb      	ldr	r3, [r7, #12]
20005dea:	2274      	movs	r2, #116	; 0x74
20005dec:	72da      	strb	r2, [r3, #11]
    wykres->os_x_name[1] = 0x69;
20005dee:	68fb      	ldr	r3, [r7, #12]
20005df0:	2269      	movs	r2, #105	; 0x69
20005df2:	731a      	strb	r2, [r3, #12]
    wykres->os_x_name[2] = 0x6d;
20005df4:	68fb      	ldr	r3, [r7, #12]
20005df6:	226d      	movs	r2, #109	; 0x6d
20005df8:	735a      	strb	r2, [r3, #13]
    wykres->os_x_name[3] = 0x65;
20005dfa:	68fb      	ldr	r3, [r7, #12]
20005dfc:	2265      	movs	r2, #101	; 0x65
20005dfe:	739a      	strb	r2, [r3, #14]
    wykres->last_temps_insert = 0;
20005e00:	68fb      	ldr	r3, [r7, #12]
20005e02:	2200      	movs	r2, #0
20005e04:	601a      	str	r2, [r3, #0]
    wykres->source_data = source;
20005e06:	68fb      	ldr	r3, [r7, #12]
20005e08:	687a      	ldr	r2, [r7, #4]
20005e0a:	611a      	str	r2, [r3, #16]
    wykres->offset = off;
20005e0c:	68fb      	ldr	r3, [r7, #12]
20005e0e:	683a      	ldr	r2, [r7, #0]
20005e10:	615a      	str	r2, [r3, #20]
    wykres->color = color;
20005e12:	68fb      	ldr	r3, [r7, #12]
20005e14:	8c3a      	ldrh	r2, [r7, #32]
20005e16:	f8a3 2388 	strh.w	r2, [r3, #904]	; 0x388
}
20005e1a:	bf00      	nop
20005e1c:	371c      	adds	r7, #28
20005e1e:	46bd      	mov	sp, r7
20005e20:	f85d 7b04 	ldr.w	r7, [sp], #4
20005e24:	4770      	bx	lr

20005e26 <wykres_draw>:

void wykres_draw(wykres_s* wykres){
20005e26:	b480      	push	{r7}
20005e28:	b085      	sub	sp, #20
20005e2a:	af00      	add	r7, sp, #0
20005e2c:	6078      	str	r0, [r7, #4]
    if(wykres->last_temps_insert <219){
20005e2e:	687b      	ldr	r3, [r7, #4]
20005e30:	681b      	ldr	r3, [r3, #0]
20005e32:	2bda      	cmp	r3, #218	; 0xda
20005e34:	dc0e      	bgt.n	20005e54 <wykres_draw+0x2e>
        wykres->last_temps[wykres->last_temps_insert] = *wykres->source_data;
20005e36:	687b      	ldr	r3, [r7, #4]
20005e38:	691b      	ldr	r3, [r3, #16]
20005e3a:	687a      	ldr	r2, [r7, #4]
20005e3c:	6812      	ldr	r2, [r2, #0]
20005e3e:	6819      	ldr	r1, [r3, #0]
20005e40:	687b      	ldr	r3, [r7, #4]
20005e42:	3206      	adds	r2, #6
20005e44:	f843 1022 	str.w	r1, [r3, r2, lsl #2]
        wykres->last_temps_insert++;
20005e48:	687b      	ldr	r3, [r7, #4]
20005e4a:	681b      	ldr	r3, [r3, #0]
20005e4c:	1c5a      	adds	r2, r3, #1
20005e4e:	687b      	ldr	r3, [r7, #4]
20005e50:	601a      	str	r2, [r3, #0]
        for(int i = 0 ;i < 219;i++){
            wykres->last_temps[i] = wykres->last_temps[i+1];
        }
        wykres->last_temps[219] = *wykres->source_data;
    }
}
20005e52:	e019      	b.n	20005e88 <wykres_draw+0x62>
        for(int i = 0 ;i < 219;i++){
20005e54:	2300      	movs	r3, #0
20005e56:	60fb      	str	r3, [r7, #12]
20005e58:	e00d      	b.n	20005e76 <wykres_draw+0x50>
            wykres->last_temps[i] = wykres->last_temps[i+1];
20005e5a:	68fb      	ldr	r3, [r7, #12]
20005e5c:	1c5a      	adds	r2, r3, #1
20005e5e:	687b      	ldr	r3, [r7, #4]
20005e60:	3206      	adds	r2, #6
20005e62:	f853 1022 	ldr.w	r1, [r3, r2, lsl #2]
20005e66:	687b      	ldr	r3, [r7, #4]
20005e68:	68fa      	ldr	r2, [r7, #12]
20005e6a:	3206      	adds	r2, #6
20005e6c:	f843 1022 	str.w	r1, [r3, r2, lsl #2]
        for(int i = 0 ;i < 219;i++){
20005e70:	68fb      	ldr	r3, [r7, #12]
20005e72:	3301      	adds	r3, #1
20005e74:	60fb      	str	r3, [r7, #12]
20005e76:	68fb      	ldr	r3, [r7, #12]
20005e78:	2bda      	cmp	r3, #218	; 0xda
20005e7a:	ddee      	ble.n	20005e5a <wykres_draw+0x34>
        wykres->last_temps[219] = *wykres->source_data;
20005e7c:	687b      	ldr	r3, [r7, #4]
20005e7e:	691b      	ldr	r3, [r3, #16]
20005e80:	681a      	ldr	r2, [r3, #0]
20005e82:	687b      	ldr	r3, [r7, #4]
20005e84:	f8c3 2384 	str.w	r2, [r3, #900]	; 0x384
}
20005e88:	bf00      	nop
20005e8a:	3714      	adds	r7, #20
20005e8c:	46bd      	mov	sp, r7
20005e8e:	f85d 7b04 	ldr.w	r7, [sp], #4
20005e92:	4770      	bx	lr

20005e94 <wykres_show>:

void wykres_show(wykres_s* wykres){
20005e94:	b580      	push	{r7, lr}
20005e96:	b084      	sub	sp, #16
20005e98:	af00      	add	r7, sp, #0
20005e9a:	6078      	str	r0, [r7, #4]
//	TFTDisplay_ILI9341_FillScreen(0x001F);
    //data
    for(int i = 0; i< 220; i++){
20005e9c:	2300      	movs	r3, #0
20005e9e:	60fb      	str	r3, [r7, #12]
20005ea0:	e034      	b.n	20005f0c <wykres_show+0x78>
        // TFTDisplay_ILI9341_DrawPixel(140, 140, TFT_COLOR_ILI9341_WHITE);
        SetPixel(i+19, ((500-wykres->last_temps[i] - (10 * wykres->offset))/5)+20, wykres->color);
20005ea2:	68fb      	ldr	r3, [r7, #12]
20005ea4:	f103 0013 	add.w	r0, r3, #19
20005ea8:	687b      	ldr	r3, [r7, #4]
20005eaa:	68fa      	ldr	r2, [r7, #12]
20005eac:	3206      	adds	r2, #6
20005eae:	f853 3022 	ldr.w	r3, [r3, r2, lsl #2]
20005eb2:	f5c3 72fa 	rsb	r2, r3, #500	; 0x1f4
20005eb6:	687b      	ldr	r3, [r7, #4]
20005eb8:	695b      	ldr	r3, [r3, #20]
20005eba:	f06f 0109 	mvn.w	r1, #9
20005ebe:	fb01 f303 	mul.w	r3, r1, r3
20005ec2:	4413      	add	r3, r2
20005ec4:	4a15      	ldr	r2, [pc, #84]	; (20005f1c <wykres_show+0x88>)
20005ec6:	fb82 1203 	smull	r1, r2, r2, r3
20005eca:	1052      	asrs	r2, r2, #1
20005ecc:	17db      	asrs	r3, r3, #31
20005ece:	1ad3      	subs	r3, r2, r3
20005ed0:	f103 0114 	add.w	r1, r3, #20
20005ed4:	687b      	ldr	r3, [r7, #4]
20005ed6:	f8b3 3388 	ldrh.w	r3, [r3, #904]	; 0x388
20005eda:	461a      	mov	r2, r3
20005edc:	f7ff ff50 	bl	20005d80 <SetPixel>
        SetPixel(i+19, 120, 0xF410);
20005ee0:	68fb      	ldr	r3, [r7, #12]
20005ee2:	3313      	adds	r3, #19
20005ee4:	f24f 4210 	movw	r2, #62480	; 0xf410
20005ee8:	2178      	movs	r1, #120	; 0x78
20005eea:	4618      	mov	r0, r3
20005eec:	f7ff ff48 	bl	20005d80 <SetPixel>
        if (i < 100){
20005ef0:	68fb      	ldr	r3, [r7, #12]
20005ef2:	2b63      	cmp	r3, #99	; 0x63
20005ef4:	dc07      	bgt.n	20005f06 <wykres_show+0x72>
            SetPixel(19, i+20, 0xF410);
20005ef6:	68fb      	ldr	r3, [r7, #12]
20005ef8:	3314      	adds	r3, #20
20005efa:	f24f 4210 	movw	r2, #62480	; 0xf410
20005efe:	4619      	mov	r1, r3
20005f00:	2013      	movs	r0, #19
20005f02:	f7ff ff3d 	bl	20005d80 <SetPixel>
    for(int i = 0; i< 220; i++){
20005f06:	68fb      	ldr	r3, [r7, #12]
20005f08:	3301      	adds	r3, #1
20005f0a:	60fb      	str	r3, [r7, #12]
20005f0c:	68fb      	ldr	r3, [r7, #12]
20005f0e:	2bdb      	cmp	r3, #219	; 0xdb
20005f10:	ddc7      	ble.n	20005ea2 <wykres_show+0xe>
    // }
    // //x name
    // TFTDisplay_ILI9341_DrawChar(100, 100, 0x30 + i);
    // // PrintText(textEkran,os_x_name,4,20,15);

}
20005f12:	bf00      	nop
20005f14:	bf00      	nop
20005f16:	3710      	adds	r7, #16
20005f18:	46bd      	mov	sp, r7
20005f1a:	bd80      	pop	{r7, pc}
20005f1c:	66666667 	.word	0x66666667

20005f20 <PID_s_init>:
20005f20:	b480      	push	{r7}
20005f22:	b087      	sub	sp, #28
20005f24:	af00      	add	r7, sp, #0
20005f26:	6178      	str	r0, [r7, #20]
20005f28:	ed87 0a04 	vstr	s0, [r7, #16]
20005f2c:	edc7 0a03 	vstr	s1, [r7, #12]
20005f30:	ed87 1a02 	vstr	s2, [r7, #8]
20005f34:	edc7 1a01 	vstr	s3, [r7, #4]
20005f38:	697b      	ldr	r3, [r7, #20]
20005f3a:	693a      	ldr	r2, [r7, #16]
20005f3c:	601a      	str	r2, [r3, #0]
20005f3e:	697b      	ldr	r3, [r7, #20]
20005f40:	68fa      	ldr	r2, [r7, #12]
20005f42:	605a      	str	r2, [r3, #4]
20005f44:	697b      	ldr	r3, [r7, #20]
20005f46:	68ba      	ldr	r2, [r7, #8]
20005f48:	609a      	str	r2, [r3, #8]
20005f4a:	697b      	ldr	r3, [r7, #20]
20005f4c:	687a      	ldr	r2, [r7, #4]
20005f4e:	60da      	str	r2, [r3, #12]
20005f50:	697b      	ldr	r3, [r7, #20]
20005f52:	f04f 0200 	mov.w	r2, #0
20005f56:	611a      	str	r2, [r3, #16]
20005f58:	697b      	ldr	r3, [r7, #20]
20005f5a:	f04f 0200 	mov.w	r2, #0
20005f5e:	615a      	str	r2, [r3, #20]
20005f60:	bf00      	nop
20005f62:	371c      	adds	r7, #28
20005f64:	46bd      	mov	sp, r7
20005f66:	f85d 7b04 	ldr.w	r7, [sp], #4
20005f6a:	4770      	bx	lr

20005f6c <Reg_s_step>:
20005f6c:	b480      	push	{r7}
20005f6e:	b085      	sub	sp, #20
20005f70:	af00      	add	r7, sp, #0
20005f72:	6078      	str	r0, [r7, #4]
20005f74:	687b      	ldr	r3, [r7, #4]
20005f76:	ed93 7a00 	vldr	s14, [r3]
20005f7a:	687b      	ldr	r3, [r7, #4]
20005f7c:	edd3 7a03 	vldr	s15, [r3, #12]
20005f80:	ee27 7a27 	vmul.f32	s14, s14, s15
20005f84:	687b      	ldr	r3, [r7, #4]
20005f86:	edd3 6a07 	vldr	s13, [r3, #28]
20005f8a:	687b      	ldr	r3, [r7, #4]
20005f8c:	edd3 7a06 	vldr	s15, [r3, #24]
20005f90:	ee76 7ae7 	vsub.f32	s15, s13, s15
20005f94:	ee67 7a27 	vmul.f32	s15, s14, s15
20005f98:	edc7 7a02 	vstr	s15, [r7, #8]
20005f9c:	687b      	ldr	r3, [r7, #4]
20005f9e:	edd3 6a00 	vldr	s13, [r3]
20005fa2:	687b      	ldr	r3, [r7, #4]
20005fa4:	edd3 7a01 	vldr	s15, [r3, #4]
20005fa8:	ee86 7aa7 	vdiv.f32	s14, s13, s15
20005fac:	687b      	ldr	r3, [r7, #4]
20005fae:	edd3 7a03 	vldr	s15, [r3, #12]
20005fb2:	ee27 7a27 	vmul.f32	s14, s14, s15
20005fb6:	687b      	ldr	r3, [r7, #4]
20005fb8:	edd3 6a07 	vldr	s13, [r3, #28]
20005fbc:	687b      	ldr	r3, [r7, #4]
20005fbe:	edd3 7a06 	vldr	s15, [r3, #24]
20005fc2:	ee76 7ae7 	vsub.f32	s15, s13, s15
20005fc6:	ee27 7a27 	vmul.f32	s14, s14, s15
20005fca:	687b      	ldr	r3, [r7, #4]
20005fcc:	edd3 7a04 	vldr	s15, [r3, #16]
20005fd0:	ee77 7a27 	vadd.f32	s15, s14, s15
20005fd4:	edc7 7a03 	vstr	s15, [r7, #12]
20005fd8:	edd7 7a03 	vldr	s15, [r7, #12]
20005fdc:	ed9f 7a21 	vldr	s14, [pc, #132]	; 20006064 <Reg_s_step+0xf8>
20005fe0:	eef4 7ac7 	vcmpe.f32	s15, s14
20005fe4:	eef1 fa10 	vmrs	APSR_nzcv, fpscr
20005fe8:	dd01      	ble.n	20005fee <Reg_s_step+0x82>
20005fea:	4b1f      	ldr	r3, [pc, #124]	; (20006068 <Reg_s_step+0xfc>)
20005fec:	60fb      	str	r3, [r7, #12]
20005fee:	edd7 7a03 	vldr	s15, [r7, #12]
20005ff2:	eebb 7a04 	vmov.f32	s14, #180	; 0xc1a00000 -20.0
20005ff6:	eef4 7ac7 	vcmpe.f32	s15, s14
20005ffa:	eef1 fa10 	vmrs	APSR_nzcv, fpscr
20005ffe:	d501      	bpl.n	20006004 <Reg_s_step+0x98>
20006000:	4b1a      	ldr	r3, [pc, #104]	; (2000606c <Reg_s_step+0x100>)
20006002:	60fb      	str	r3, [r7, #12]
20006004:	687b      	ldr	r3, [r7, #4]
20006006:	68fa      	ldr	r2, [r7, #12]
20006008:	611a      	str	r2, [r3, #16]
2000600a:	687b      	ldr	r3, [r7, #4]
2000600c:	699a      	ldr	r2, [r3, #24]
2000600e:	687b      	ldr	r3, [r7, #4]
20006010:	615a      	str	r2, [r3, #20]
20006012:	687b      	ldr	r3, [r7, #4]
20006014:	edd3 7a08 	vldr	s15, [r3, #32]
20006018:	ed9f 7a15 	vldr	s14, [pc, #84]	; 20006070 <Reg_s_step+0x104>
2000601c:	eef4 7ac7 	vcmpe.f32	s15, s14
20006020:	eef1 fa10 	vmrs	APSR_nzcv, fpscr
20006024:	dd02      	ble.n	2000602c <Reg_s_step+0xc0>
20006026:	687b      	ldr	r3, [r7, #4]
20006028:	4a12      	ldr	r2, [pc, #72]	; (20006074 <Reg_s_step+0x108>)
2000602a:	621a      	str	r2, [r3, #32]
2000602c:	687b      	ldr	r3, [r7, #4]
2000602e:	edd3 7a08 	vldr	s15, [r3, #32]
20006032:	ed9f 7a11 	vldr	s14, [pc, #68]	; 20006078 <Reg_s_step+0x10c>
20006036:	eef4 7ac7 	vcmpe.f32	s15, s14
2000603a:	eef1 fa10 	vmrs	APSR_nzcv, fpscr
2000603e:	d502      	bpl.n	20006046 <Reg_s_step+0xda>
20006040:	687b      	ldr	r3, [r7, #4]
20006042:	4a0e      	ldr	r2, [pc, #56]	; (2000607c <Reg_s_step+0x110>)
20006044:	621a      	str	r2, [r3, #32]
20006046:	ed97 7a02 	vldr	s14, [r7, #8]
2000604a:	edd7 7a03 	vldr	s15, [r7, #12]
2000604e:	ee77 7a27 	vadd.f32	s15, s14, s15
20006052:	687b      	ldr	r3, [r7, #4]
20006054:	edc3 7a08 	vstr	s15, [r3, #32]
20006058:	bf00      	nop
2000605a:	3714      	adds	r7, #20
2000605c:	46bd      	mov	sp, r7
2000605e:	f85d 7b04 	ldr.w	r7, [sp], #4
20006062:	4770      	bx	lr
20006064:	42480000 	.word	0x42480000
20006068:	42480000 	.word	0x42480000
2000606c:	c1a00000 	.word	0xc1a00000
20006070:	428c0000 	.word	0x428c0000
20006074:	428c0000 	.word	0x428c0000
20006078:	c28c0000 	.word	0xc28c0000
2000607c:	c28c0000 	.word	0xc28c0000

20006080 <Inercja_s_init>:
20006080:	b480      	push	{r7}
20006082:	b085      	sub	sp, #20
20006084:	af00      	add	r7, sp, #0
20006086:	60f8      	str	r0, [r7, #12]
20006088:	ed87 0a02 	vstr	s0, [r7, #8]
2000608c:	edc7 0a01 	vstr	s1, [r7, #4]
20006090:	ed87 1a00 	vstr	s2, [r7]
20006094:	68fb      	ldr	r3, [r7, #12]
20006096:	f04f 0200 	mov.w	r2, #0
2000609a:	601a      	str	r2, [r3, #0]
2000609c:	68fb      	ldr	r3, [r7, #12]
2000609e:	68ba      	ldr	r2, [r7, #8]
200060a0:	605a      	str	r2, [r3, #4]
200060a2:	68fb      	ldr	r3, [r7, #12]
200060a4:	687a      	ldr	r2, [r7, #4]
200060a6:	60da      	str	r2, [r3, #12]
200060a8:	68fb      	ldr	r3, [r7, #12]
200060aa:	683a      	ldr	r2, [r7, #0]
200060ac:	609a      	str	r2, [r3, #8]
200060ae:	bf00      	nop
200060b0:	3714      	adds	r7, #20
200060b2:	46bd      	mov	sp, r7
200060b4:	f85d 7b04 	ldr.w	r7, [sp], #4
200060b8:	4770      	bx	lr

200060ba <Inercja_s_step>:
200060ba:	b480      	push	{r7}
200060bc:	b083      	sub	sp, #12
200060be:	af00      	add	r7, sp, #0
200060c0:	6078      	str	r0, [r7, #4]
200060c2:	687b      	ldr	r3, [r7, #4]
200060c4:	edd3 6a03 	vldr	s13, [r3, #12]
200060c8:	687b      	ldr	r3, [r7, #4]
200060ca:	ed93 7a02 	vldr	s14, [r3, #8]
200060ce:	687b      	ldr	r3, [r7, #4]
200060d0:	edd3 7a03 	vldr	s15, [r3, #12]
200060d4:	ee77 7a27 	vadd.f32	s15, s14, s15
200060d8:	ee86 7aa7 	vdiv.f32	s14, s13, s15
200060dc:	687b      	ldr	r3, [r7, #4]
200060de:	edd3 7a05 	vldr	s15, [r3, #20]
200060e2:	ee27 7a27 	vmul.f32	s14, s14, s15
200060e6:	687b      	ldr	r3, [r7, #4]
200060e8:	ed93 6a02 	vldr	s12, [r3, #8]
200060ec:	687b      	ldr	r3, [r7, #4]
200060ee:	edd3 6a02 	vldr	s13, [r3, #8]
200060f2:	687b      	ldr	r3, [r7, #4]
200060f4:	edd3 7a03 	vldr	s15, [r3, #12]
200060f8:	ee76 7aa7 	vadd.f32	s15, s13, s15
200060fc:	eec6 6a27 	vdiv.f32	s13, s12, s15
20006100:	687b      	ldr	r3, [r7, #4]
20006102:	edd3 7a00 	vldr	s15, [r3]
20006106:	ee26 6aa7 	vmul.f32	s12, s13, s15
2000610a:	687b      	ldr	r3, [r7, #4]
2000610c:	edd3 6a01 	vldr	s13, [r3, #4]
20006110:	eec6 7a26 	vdiv.f32	s15, s12, s13
20006114:	ee37 7a27 	vadd.f32	s14, s14, s15
20006118:	687b      	ldr	r3, [r7, #4]
2000611a:	edd3 7a01 	vldr	s15, [r3, #4]
2000611e:	ee67 7a27 	vmul.f32	s15, s14, s15
20006122:	687b      	ldr	r3, [r7, #4]
20006124:	edc3 7a04 	vstr	s15, [r3, #16]
20006128:	687b      	ldr	r3, [r7, #4]
2000612a:	695a      	ldr	r2, [r3, #20]
2000612c:	687b      	ldr	r3, [r7, #4]
2000612e:	601a      	str	r2, [r3, #0]
20006130:	687b      	ldr	r3, [r7, #4]
20006132:	edd3 7a04 	vldr	s15, [r3, #16]
20006136:	eeb2 7a04 	vmov.f32	s14, #36	; 0x41200000  10.0
2000613a:	ee67 7a87 	vmul.f32	s15, s15, s14
2000613e:	eefd 7ae7 	vcvt.s32.f32	s15, s15
20006142:	ee17 2a90 	vmov	r2, s15
20006146:	687b      	ldr	r3, [r7, #4]
20006148:	619a      	str	r2, [r3, #24]
2000614a:	bf00      	nop
2000614c:	370c      	adds	r7, #12
2000614e:	46bd      	mov	sp, r7
20006150:	f85d 7b04 	ldr.w	r7, [sp], #4
20006154:	4770      	bx	lr

20006156 <LL_DMA_IsActiveFlag_TC4>:
20006156:	b480      	push	{r7}
20006158:	b083      	sub	sp, #12
2000615a:	af00      	add	r7, sp, #0
2000615c:	6078      	str	r0, [r7, #4]
2000615e:	687b      	ldr	r3, [r7, #4]
20006160:	685b      	ldr	r3, [r3, #4]
20006162:	f003 0320 	and.w	r3, r3, #32
20006166:	2b20      	cmp	r3, #32
20006168:	bf0c      	ite	eq
2000616a:	2301      	moveq	r3, #1
2000616c:	2300      	movne	r3, #0
2000616e:	b2db      	uxtb	r3, r3
20006170:	4618      	mov	r0, r3
20006172:	370c      	adds	r7, #12
20006174:	46bd      	mov	sp, r7
20006176:	f85d 7b04 	ldr.w	r7, [sp], #4
2000617a:	4770      	bx	lr

2000617c <LL_DMA_IsActiveFlag_TE4>:
2000617c:	b480      	push	{r7}
2000617e:	b083      	sub	sp, #12
20006180:	af00      	add	r7, sp, #0
20006182:	6078      	str	r0, [r7, #4]
20006184:	687b      	ldr	r3, [r7, #4]
20006186:	685b      	ldr	r3, [r3, #4]
20006188:	f003 0308 	and.w	r3, r3, #8
2000618c:	2b08      	cmp	r3, #8
2000618e:	bf0c      	ite	eq
20006190:	2301      	moveq	r3, #1
20006192:	2300      	movne	r3, #0
20006194:	b2db      	uxtb	r3, r3
20006196:	4618      	mov	r0, r3
20006198:	370c      	adds	r7, #12
2000619a:	46bd      	mov	sp, r7
2000619c:	f85d 7b04 	ldr.w	r7, [sp], #4
200061a0:	4770      	bx	lr

200061a2 <LL_DMA_ClearFlag_TE4>:
200061a2:	b480      	push	{r7}
200061a4:	b083      	sub	sp, #12
200061a6:	af00      	add	r7, sp, #0
200061a8:	6078      	str	r0, [r7, #4]
200061aa:	687b      	ldr	r3, [r7, #4]
200061ac:	2208      	movs	r2, #8
200061ae:	60da      	str	r2, [r3, #12]
200061b0:	bf00      	nop
200061b2:	370c      	adds	r7, #12
200061b4:	46bd      	mov	sp, r7
200061b6:	f85d 7b04 	ldr.w	r7, [sp], #4
200061ba:	4770      	bx	lr

200061bc <NMI_Handler>:
200061bc:	b480      	push	{r7}
200061be:	af00      	add	r7, sp, #0
200061c0:	bf00      	nop
200061c2:	46bd      	mov	sp, r7
200061c4:	f85d 7b04 	ldr.w	r7, [sp], #4
200061c8:	4770      	bx	lr

200061ca <HardFault_Handler>:
200061ca:	b480      	push	{r7}
200061cc:	af00      	add	r7, sp, #0
200061ce:	e7fe      	b.n	200061ce <HardFault_Handler+0x4>

200061d0 <MemManage_Handler>:
200061d0:	b480      	push	{r7}
200061d2:	af00      	add	r7, sp, #0
200061d4:	e7fe      	b.n	200061d4 <MemManage_Handler+0x4>

200061d6 <BusFault_Handler>:
200061d6:	b480      	push	{r7}
200061d8:	af00      	add	r7, sp, #0
200061da:	e7fe      	b.n	200061da <BusFault_Handler+0x4>

200061dc <UsageFault_Handler>:
200061dc:	b480      	push	{r7}
200061de:	af00      	add	r7, sp, #0
200061e0:	e7fe      	b.n	200061e0 <UsageFault_Handler+0x4>

200061e2 <DebugMon_Handler>:
200061e2:	b480      	push	{r7}
200061e4:	af00      	add	r7, sp, #0
200061e6:	bf00      	nop
200061e8:	46bd      	mov	sp, r7
200061ea:	f85d 7b04 	ldr.w	r7, [sp], #4
200061ee:	4770      	bx	lr

200061f0 <SysTick_Handler>:
200061f0:	b580      	push	{r7, lr}
200061f2:	af00      	add	r7, sp, #0
200061f4:	f7fc fb16 	bl	20002824 <xTaskGetSchedulerState>
200061f8:	4603      	mov	r3, r0
200061fa:	2b01      	cmp	r3, #1
200061fc:	d001      	beq.n	20006202 <SysTick_Handler+0x12>
200061fe:	f7fd f8fb 	bl	200033f8 <xPortSysTickHandler>
20006202:	bf00      	nop
20006204:	bd80      	pop	{r7, pc}
	...

20006208 <DMA2_Stream4_IRQHandler>:
20006208:	b580      	push	{r7, lr}
2000620a:	af00      	add	r7, sp, #0
2000620c:	4809      	ldr	r0, [pc, #36]	; (20006234 <DMA2_Stream4_IRQHandler+0x2c>)
2000620e:	f7ff ffa2 	bl	20006156 <LL_DMA_IsActiveFlag_TC4>
20006212:	4603      	mov	r3, r0
20006214:	2b01      	cmp	r3, #1
20006216:	d102      	bne.n	2000621e <DMA2_Stream4_IRQHandler+0x16>
20006218:	f7ff fa5c 	bl	200056d4 <DMA1_Stream4_TransferComplete>
2000621c:	e008      	b.n	20006230 <DMA2_Stream4_IRQHandler+0x28>
2000621e:	4805      	ldr	r0, [pc, #20]	; (20006234 <DMA2_Stream4_IRQHandler+0x2c>)
20006220:	f7ff ffac 	bl	2000617c <LL_DMA_IsActiveFlag_TE4>
20006224:	4603      	mov	r3, r0
20006226:	2b01      	cmp	r3, #1
20006228:	d102      	bne.n	20006230 <DMA2_Stream4_IRQHandler+0x28>
2000622a:	4802      	ldr	r0, [pc, #8]	; (20006234 <DMA2_Stream4_IRQHandler+0x2c>)
2000622c:	f7ff ffb9 	bl	200061a2 <LL_DMA_ClearFlag_TE4>
20006230:	bf00      	nop
20006232:	bd80      	pop	{r7, pc}
20006234:	40026400 	.word	0x40026400

20006238 <SystemInit>:
20006238:	b480      	push	{r7}
2000623a:	af00      	add	r7, sp, #0
2000623c:	4b08      	ldr	r3, [pc, #32]	; (20006260 <SystemInit+0x28>)
2000623e:	f8d3 3088 	ldr.w	r3, [r3, #136]	; 0x88
20006242:	4a07      	ldr	r2, [pc, #28]	; (20006260 <SystemInit+0x28>)
20006244:	f443 0370 	orr.w	r3, r3, #15728640	; 0xf00000
20006248:	f8c2 3088 	str.w	r3, [r2, #136]	; 0x88
2000624c:	4b04      	ldr	r3, [pc, #16]	; (20006260 <SystemInit+0x28>)
2000624e:	f04f 5200 	mov.w	r2, #536870912	; 0x20000000
20006252:	609a      	str	r2, [r3, #8]
20006254:	bf00      	nop
20006256:	46bd      	mov	sp, r7
20006258:	f85d 7b04 	ldr.w	r7, [sp], #4
2000625c:	4770      	bx	lr
2000625e:	bf00      	nop
20006260:	e000ed00 	.word	0xe000ed00

20006264 <Reset_Handler>:
20006264:	f8df d034 	ldr.w	sp, [pc, #52]	; 2000629c <LoopFillZerobss+0x14>
20006268:	2100      	movs	r1, #0
2000626a:	e003      	b.n	20006274 <LoopCopyDataInit>

2000626c <CopyDataInit>:
2000626c:	4b0c      	ldr	r3, [pc, #48]	; (200062a0 <LoopFillZerobss+0x18>)
2000626e:	585b      	ldr	r3, [r3, r1]
20006270:	5043      	str	r3, [r0, r1]
20006272:	3104      	adds	r1, #4

20006274 <LoopCopyDataInit>:
20006274:	480b      	ldr	r0, [pc, #44]	; (200062a4 <LoopFillZerobss+0x1c>)
20006276:	4b0c      	ldr	r3, [pc, #48]	; (200062a8 <LoopFillZerobss+0x20>)
20006278:	1842      	adds	r2, r0, r1
2000627a:	429a      	cmp	r2, r3
2000627c:	d3f6      	bcc.n	2000626c <CopyDataInit>
2000627e:	4a0b      	ldr	r2, [pc, #44]	; (200062ac <LoopFillZerobss+0x24>)
20006280:	e002      	b.n	20006288 <LoopFillZerobss>

20006282 <FillZerobss>:
20006282:	2300      	movs	r3, #0
20006284:	f842 3b04 	str.w	r3, [r2], #4

20006288 <LoopFillZerobss>:
20006288:	4b09      	ldr	r3, [pc, #36]	; (200062b0 <LoopFillZerobss+0x28>)
2000628a:	429a      	cmp	r2, r3
2000628c:	d3f9      	bcc.n	20006282 <FillZerobss>
2000628e:	f7ff ffd3 	bl	20006238 <SystemInit>
20006292:	f000 f811 	bl	200062b8 <__libc_init_array>
20006296:	f7ff f805 	bl	200052a4 <main>
2000629a:	4770      	bx	lr
2000629c:	20030000 	.word	0x20030000
200062a0:	2000a338 	.word	0x2000a338
200062a4:	2000a338 	.word	0x2000a338
200062a8:	2000a3f0 	.word	0x2000a3f0
200062ac:	2000a3f0 	.word	0x2000a3f0
200062b0:	2001f958 	.word	0x2001f958

200062b4 <ADC_IRQHandler>:
200062b4:	e7fe      	b.n	200062b4 <ADC_IRQHandler>
	...

200062b8 <__libc_init_array>:
200062b8:	b570      	push	{r4, r5, r6, lr}
200062ba:	4d0d      	ldr	r5, [pc, #52]	; (200062f0 <__libc_init_array+0x38>)
200062bc:	4c0d      	ldr	r4, [pc, #52]	; (200062f4 <__libc_init_array+0x3c>)
200062be:	1b64      	subs	r4, r4, r5
200062c0:	10a4      	asrs	r4, r4, #2
200062c2:	2600      	movs	r6, #0
200062c4:	42a6      	cmp	r6, r4
200062c6:	d109      	bne.n	200062dc <__libc_init_array+0x24>
200062c8:	4d0b      	ldr	r5, [pc, #44]	; (200062f8 <__libc_init_array+0x40>)
200062ca:	4c0c      	ldr	r4, [pc, #48]	; (200062fc <__libc_init_array+0x44>)
200062cc:	f000 f8f2 	bl	200064b4 <_init>
200062d0:	1b64      	subs	r4, r4, r5
200062d2:	10a4      	asrs	r4, r4, #2
200062d4:	2600      	movs	r6, #0
200062d6:	42a6      	cmp	r6, r4
200062d8:	d105      	bne.n	200062e6 <__libc_init_array+0x2e>
200062da:	bd70      	pop	{r4, r5, r6, pc}
200062dc:	f855 3b04 	ldr.w	r3, [r5], #4
200062e0:	4798      	blx	r3
200062e2:	3601      	adds	r6, #1
200062e4:	e7ee      	b.n	200062c4 <__libc_init_array+0xc>
200062e6:	f855 3b04 	ldr.w	r3, [r5], #4
200062ea:	4798      	blx	r3
200062ec:	3601      	adds	r6, #1
200062ee:	e7f2      	b.n	200062d6 <__libc_init_array+0x1e>
200062f0:	2000a330 	.word	0x2000a330
200062f4:	2000a330 	.word	0x2000a330
200062f8:	2000a330 	.word	0x2000a330
200062fc:	2000a334 	.word	0x2000a334

20006300 <__retarget_lock_acquire_recursive>:
20006300:	4770      	bx	lr

20006302 <__retarget_lock_release_recursive>:
20006302:	4770      	bx	lr

20006304 <memcpy>:
20006304:	440a      	add	r2, r1
20006306:	4291      	cmp	r1, r2
20006308:	f100 33ff 	add.w	r3, r0, #4294967295
2000630c:	d100      	bne.n	20006310 <memcpy+0xc>
2000630e:	4770      	bx	lr
20006310:	b510      	push	{r4, lr}
20006312:	f811 4b01 	ldrb.w	r4, [r1], #1
20006316:	f803 4f01 	strb.w	r4, [r3, #1]!
2000631a:	4291      	cmp	r1, r2
2000631c:	d1f9      	bne.n	20006312 <memcpy+0xe>
2000631e:	bd10      	pop	{r4, pc}

20006320 <memset>:
20006320:	4402      	add	r2, r0
20006322:	4603      	mov	r3, r0
20006324:	4293      	cmp	r3, r2
20006326:	d100      	bne.n	2000632a <memset+0xa>
20006328:	4770      	bx	lr
2000632a:	f803 1b01 	strb.w	r1, [r3], #1
2000632e:	e7f9      	b.n	20006324 <memset+0x4>

20006330 <cleanup_glue>:
20006330:	b538      	push	{r3, r4, r5, lr}
20006332:	460c      	mov	r4, r1
20006334:	6809      	ldr	r1, [r1, #0]
20006336:	4605      	mov	r5, r0
20006338:	b109      	cbz	r1, 2000633e <cleanup_glue+0xe>
2000633a:	f7ff fff9 	bl	20006330 <cleanup_glue>
2000633e:	4621      	mov	r1, r4
20006340:	4628      	mov	r0, r5
20006342:	e8bd 4038 	ldmia.w	sp!, {r3, r4, r5, lr}
20006346:	f000 b869 	b.w	2000641c <_free_r>
	...

2000634c <_reclaim_reent>:
2000634c:	4b2c      	ldr	r3, [pc, #176]	; (20006400 <_reclaim_reent+0xb4>)
2000634e:	681b      	ldr	r3, [r3, #0]
20006350:	4283      	cmp	r3, r0
20006352:	b570      	push	{r4, r5, r6, lr}
20006354:	4604      	mov	r4, r0
20006356:	d051      	beq.n	200063fc <_reclaim_reent+0xb0>
20006358:	6a43      	ldr	r3, [r0, #36]	; 0x24
2000635a:	b143      	cbz	r3, 2000636e <_reclaim_reent+0x22>
2000635c:	68db      	ldr	r3, [r3, #12]
2000635e:	2b00      	cmp	r3, #0
20006360:	d14a      	bne.n	200063f8 <_reclaim_reent+0xac>
20006362:	6a63      	ldr	r3, [r4, #36]	; 0x24
20006364:	6819      	ldr	r1, [r3, #0]
20006366:	b111      	cbz	r1, 2000636e <_reclaim_reent+0x22>
20006368:	4620      	mov	r0, r4
2000636a:	f000 f857 	bl	2000641c <_free_r>
2000636e:	6961      	ldr	r1, [r4, #20]
20006370:	b111      	cbz	r1, 20006378 <_reclaim_reent+0x2c>
20006372:	4620      	mov	r0, r4
20006374:	f000 f852 	bl	2000641c <_free_r>
20006378:	6a61      	ldr	r1, [r4, #36]	; 0x24
2000637a:	b111      	cbz	r1, 20006382 <_reclaim_reent+0x36>
2000637c:	4620      	mov	r0, r4
2000637e:	f000 f84d 	bl	2000641c <_free_r>
20006382:	6ba1      	ldr	r1, [r4, #56]	; 0x38
20006384:	b111      	cbz	r1, 2000638c <_reclaim_reent+0x40>
20006386:	4620      	mov	r0, r4
20006388:	f000 f848 	bl	2000641c <_free_r>
2000638c:	6be1      	ldr	r1, [r4, #60]	; 0x3c
2000638e:	b111      	cbz	r1, 20006396 <_reclaim_reent+0x4a>
20006390:	4620      	mov	r0, r4
20006392:	f000 f843 	bl	2000641c <_free_r>
20006396:	6c21      	ldr	r1, [r4, #64]	; 0x40
20006398:	b111      	cbz	r1, 200063a0 <_reclaim_reent+0x54>
2000639a:	4620      	mov	r0, r4
2000639c:	f000 f83e 	bl	2000641c <_free_r>
200063a0:	6de1      	ldr	r1, [r4, #92]	; 0x5c
200063a2:	b111      	cbz	r1, 200063aa <_reclaim_reent+0x5e>
200063a4:	4620      	mov	r0, r4
200063a6:	f000 f839 	bl	2000641c <_free_r>
200063aa:	6da1      	ldr	r1, [r4, #88]	; 0x58
200063ac:	b111      	cbz	r1, 200063b4 <_reclaim_reent+0x68>
200063ae:	4620      	mov	r0, r4
200063b0:	f000 f834 	bl	2000641c <_free_r>
200063b4:	6b61      	ldr	r1, [r4, #52]	; 0x34
200063b6:	b111      	cbz	r1, 200063be <_reclaim_reent+0x72>
200063b8:	4620      	mov	r0, r4
200063ba:	f000 f82f 	bl	2000641c <_free_r>
200063be:	69a3      	ldr	r3, [r4, #24]
200063c0:	b1e3      	cbz	r3, 200063fc <_reclaim_reent+0xb0>
200063c2:	6aa3      	ldr	r3, [r4, #40]	; 0x28
200063c4:	4620      	mov	r0, r4
200063c6:	4798      	blx	r3
200063c8:	6ca1      	ldr	r1, [r4, #72]	; 0x48
200063ca:	b1b9      	cbz	r1, 200063fc <_reclaim_reent+0xb0>
200063cc:	4620      	mov	r0, r4
200063ce:	e8bd 4070 	ldmia.w	sp!, {r4, r5, r6, lr}
200063d2:	f7ff bfad 	b.w	20006330 <cleanup_glue>
200063d6:	5949      	ldr	r1, [r1, r5]
200063d8:	b941      	cbnz	r1, 200063ec <_reclaim_reent+0xa0>
200063da:	3504      	adds	r5, #4
200063dc:	6a63      	ldr	r3, [r4, #36]	; 0x24
200063de:	2d80      	cmp	r5, #128	; 0x80
200063e0:	68d9      	ldr	r1, [r3, #12]
200063e2:	d1f8      	bne.n	200063d6 <_reclaim_reent+0x8a>
200063e4:	4620      	mov	r0, r4
200063e6:	f000 f819 	bl	2000641c <_free_r>
200063ea:	e7ba      	b.n	20006362 <_reclaim_reent+0x16>
200063ec:	680e      	ldr	r6, [r1, #0]
200063ee:	4620      	mov	r0, r4
200063f0:	f000 f814 	bl	2000641c <_free_r>
200063f4:	4631      	mov	r1, r6
200063f6:	e7ef      	b.n	200063d8 <_reclaim_reent+0x8c>
200063f8:	2500      	movs	r5, #0
200063fa:	e7ef      	b.n	200063dc <_reclaim_reent+0x90>
200063fc:	bd70      	pop	{r4, r5, r6, pc}
200063fe:	bf00      	nop
20006400:	2000a38c 	.word	0x2000a38c

20006404 <__malloc_lock>:
20006404:	4801      	ldr	r0, [pc, #4]	; (2000640c <__malloc_lock+0x8>)
20006406:	f7ff bf7b 	b.w	20006300 <__retarget_lock_acquire_recursive>
2000640a:	bf00      	nop
2000640c:	2001f950 	.word	0x2001f950

20006410 <__malloc_unlock>:
20006410:	4801      	ldr	r0, [pc, #4]	; (20006418 <__malloc_unlock+0x8>)
20006412:	f7ff bf76 	b.w	20006302 <__retarget_lock_release_recursive>
20006416:	bf00      	nop
20006418:	2001f950 	.word	0x2001f950

2000641c <_free_r>:
2000641c:	b537      	push	{r0, r1, r2, r4, r5, lr}
2000641e:	2900      	cmp	r1, #0
20006420:	d044      	beq.n	200064ac <_free_r+0x90>
20006422:	f851 3c04 	ldr.w	r3, [r1, #-4]
20006426:	9001      	str	r0, [sp, #4]
20006428:	2b00      	cmp	r3, #0
2000642a:	f1a1 0404 	sub.w	r4, r1, #4
2000642e:	bfb8      	it	lt
20006430:	18e4      	addlt	r4, r4, r3
20006432:	f7ff ffe7 	bl	20006404 <__malloc_lock>
20006436:	4a1e      	ldr	r2, [pc, #120]	; (200064b0 <_free_r+0x94>)
20006438:	9801      	ldr	r0, [sp, #4]
2000643a:	6813      	ldr	r3, [r2, #0]
2000643c:	b933      	cbnz	r3, 2000644c <_free_r+0x30>
2000643e:	6063      	str	r3, [r4, #4]
20006440:	6014      	str	r4, [r2, #0]
20006442:	b003      	add	sp, #12
20006444:	e8bd 4030 	ldmia.w	sp!, {r4, r5, lr}
20006448:	f7ff bfe2 	b.w	20006410 <__malloc_unlock>
2000644c:	42a3      	cmp	r3, r4
2000644e:	d908      	bls.n	20006462 <_free_r+0x46>
20006450:	6825      	ldr	r5, [r4, #0]
20006452:	1961      	adds	r1, r4, r5
20006454:	428b      	cmp	r3, r1
20006456:	bf01      	itttt	eq
20006458:	6819      	ldreq	r1, [r3, #0]
2000645a:	685b      	ldreq	r3, [r3, #4]
2000645c:	1949      	addeq	r1, r1, r5
2000645e:	6021      	streq	r1, [r4, #0]
20006460:	e7ed      	b.n	2000643e <_free_r+0x22>
20006462:	461a      	mov	r2, r3
20006464:	685b      	ldr	r3, [r3, #4]
20006466:	b10b      	cbz	r3, 2000646c <_free_r+0x50>
20006468:	42a3      	cmp	r3, r4
2000646a:	d9fa      	bls.n	20006462 <_free_r+0x46>
2000646c:	6811      	ldr	r1, [r2, #0]
2000646e:	1855      	adds	r5, r2, r1
20006470:	42a5      	cmp	r5, r4
20006472:	d10b      	bne.n	2000648c <_free_r+0x70>
20006474:	6824      	ldr	r4, [r4, #0]
20006476:	4421      	add	r1, r4
20006478:	1854      	adds	r4, r2, r1
2000647a:	42a3      	cmp	r3, r4
2000647c:	6011      	str	r1, [r2, #0]
2000647e:	d1e0      	bne.n	20006442 <_free_r+0x26>
20006480:	681c      	ldr	r4, [r3, #0]
20006482:	685b      	ldr	r3, [r3, #4]
20006484:	6053      	str	r3, [r2, #4]
20006486:	4421      	add	r1, r4
20006488:	6011      	str	r1, [r2, #0]
2000648a:	e7da      	b.n	20006442 <_free_r+0x26>
2000648c:	d902      	bls.n	20006494 <_free_r+0x78>
2000648e:	230c      	movs	r3, #12
20006490:	6003      	str	r3, [r0, #0]
20006492:	e7d6      	b.n	20006442 <_free_r+0x26>
20006494:	6825      	ldr	r5, [r4, #0]
20006496:	1961      	adds	r1, r4, r5
20006498:	428b      	cmp	r3, r1
2000649a:	bf04      	itt	eq
2000649c:	6819      	ldreq	r1, [r3, #0]
2000649e:	685b      	ldreq	r3, [r3, #4]
200064a0:	6063      	str	r3, [r4, #4]
200064a2:	bf04      	itt	eq
200064a4:	1949      	addeq	r1, r1, r5
200064a6:	6021      	streq	r1, [r4, #0]
200064a8:	6054      	str	r4, [r2, #4]
200064aa:	e7ca      	b.n	20006442 <_free_r+0x26>
200064ac:	b003      	add	sp, #12
200064ae:	bd30      	pop	{r4, r5, pc}
200064b0:	2001f954 	.word	0x2001f954

200064b4 <_init>:
200064b4:	b5f8      	push	{r3, r4, r5, r6, r7, lr}
200064b6:	bf00      	nop
200064b8:	bcf8      	pop	{r3, r4, r5, r6, r7}
200064ba:	bc08      	pop	{r3}
200064bc:	469e      	mov	lr, r3
200064be:	4770      	bx	lr

200064c0 <_fini>:
200064c0:	b5f8      	push	{r3, r4, r5, r6, r7, lr}
200064c2:	bf00      	nop
200064c4:	bcf8      	pop	{r3, r4, r5, r6, r7}
200064c6:	bc08      	pop	{r3}
200064c8:	469e      	mov	lr, r3
200064ca:	4770      	bx	lr
